	.section __TEXT,__text,regular,pure_instructions
	.section __TEXT,__picsymbolstub1,symbol_stubs,pure_instructions,32
	.machine ppc
	.objc_cat_cls_meth
	.objc_cat_inst_meth
	.objc_string_object
	.section __OBJC, __cstring_object, regular, no_dead_strip
	.objc_message_refs
	.section __OBJC, __sel_fixup, regular, no_dead_strip
	.objc_cls_refs
	.objc_class
	.objc_meta_class
	.objc_cls_meth
	.objc_inst_meth
	.objc_protocol
	.objc_class_names
	.objc_meth_var_types
	.objc_meth_var_names
	.objc_category
	.objc_class_vars
	.objc_instance_vars
	.objc_module_info
	.objc_symbols
	.section __OBJC, __protocol_ext, regular, no_dead_strip
	.section __OBJC, __class_ext, regular, no_dead_strip
	.section __OBJC, __property, regular, no_dead_strip
	.section __OBJC, __image_info, regular, no_dead_strip
	.align 2
L_OBJC_IMAGE_INFO:
	.space 8
	.lazy_reference .objc_class_name_com_fieldingdsp_UIToolBox_CocoaViewWrapper_c570292
	.lazy_reference .objc_class_name_NSGraphicsContext
	.mod_init_func
	.align 2
	.long	__GLOBAL__I__ZN12_GLOBAL__N_12_1E
	.cstring
	.align 2
LC0:
	.ascii "boost::lock_error\0"
	.section __TEXT,__textcoal_nt,coalesced,pure_instructions
	.align 2
	.p2align 4,,15
	.globl __ZNK5boost10lock_error4whatEv
	.weak_definition __ZNK5boost10lock_error4whatEv
	.private_extern __ZNK5boost10lock_error4whatEv
__ZNK5boost10lock_error4whatEv:
LFB4375:
	mflr r0
	bcl 20,31,"L00000000001$pb"
"L00000000001$pb":
	mflr r10
	mtlr r0
	addis r3,r10,ha16(LC0-"L00000000001$pb")
	la r3,lo16(LC0-"L00000000001$pb")(r3)
	blr
LFE4375:
	.cstring
	.align 2
LC1:
	.ascii "boost::thread_resource_error\0"
	.section __TEXT,__textcoal_nt,coalesced,pure_instructions
	.align 2
	.p2align 4,,15
	.globl __ZNK5boost21thread_resource_error4whatEv
	.weak_definition __ZNK5boost21thread_resource_error4whatEv
	.private_extern __ZNK5boost21thread_resource_error4whatEv
__ZNK5boost21thread_resource_error4whatEv:
LFB4386:
	mflr r0
	bcl 20,31,"L00000000002$pb"
"L00000000002$pb":
	mflr r10
	mtlr r0
	addis r3,r10,ha16(LC1-"L00000000002$pb")
	la r3,lo16(LC1-"L00000000002$pb")(r3)
	blr
LFE4386:
	.align 2
	.p2align 4,,15
	.globl __ZN5boost6detail15sp_counted_base7destroyEv
	.weak_definition __ZN5boost6detail15sp_counted_base7destroyEv
	.private_extern __ZN5boost6detail15sp_counted_base7destroyEv
__ZN5boost6detail15sp_counted_base7destroyEv:
LFB4484:
	mr. r2,r3
	beq cr0,L8
	lwz r2,0(r2)
	lwz r0,4(r2)
	mtctr r0
	mr r12,r0
	bctr
	.p2align 4,,15
L8:
	blr
LFE4484:
	.align 2
	.p2align 4,,15
	.globl __ZN5boost6detail26sp_enable_shared_from_thisEz
	.weak_definition __ZN5boost6detail26sp_enable_shared_from_thisEz
	.private_extern __ZN5boost6detail26sp_enable_shared_from_thisEz
__ZN5boost6detail26sp_enable_shared_from_thisEz:
LFB4585:
	blr
LFE4585:
	.align 2
	.p2align 4,,15
	.globl __ZN17CocoaViewInstance19viewDidMoveToWindowEv
	.weak_definition __ZN17CocoaViewInstance19viewDidMoveToWindowEv
	.private_extern __ZN17CocoaViewInstance19viewDidMoveToWindowEv
__ZN17CocoaViewInstance19viewDidMoveToWindowEv:
LFB8445:
	blr
LFE8445:
	.align 2
	.p2align 4,,15
	.globl __ZN17CocoaViewInstance18EventLoopTimerProcEP16__CFRunLoopTimerPv
	.weak_definition __ZN17CocoaViewInstance18EventLoopTimerProcEP16__CFRunLoopTimerPv
	.private_extern __ZN17CocoaViewInstance18EventLoopTimerProcEP16__CFRunLoopTimerPv
__ZN17CocoaViewInstance18EventLoopTimerProcEP16__CFRunLoopTimerPv:
LFB8461:
	lwz r3,8(r4)
	lwz r2,0(r3)
	lwz r12,44(r2)
	mtctr r12
	bctr
LFE8461:
	.text
	.align 2
	.p2align 4,,15
	.globl __ZN8Fielding13HostViewCocoa11GetRootViewEv
	.private_extern __ZN8Fielding13HostViewCocoa11GetRootViewEv
__ZN8Fielding13HostViewCocoa11GetRootViewEv:
LFB8476:
	blr
LFE8476:
	.align 2
	.p2align 4,,15
	.globl __ZN8Fielding13HostViewCocoa16hostMouseCaptureEv
	.private_extern __ZN8Fielding13HostViewCocoa16hostMouseCaptureEv
__ZN8Fielding13HostViewCocoa16hostMouseCaptureEv:
LFB8478:
	lwz r2,96(r3)
	cmpwi cr7,r2,0
	beqlr cr7
	li r0,1
	stw r0,64(r2)
	blr
LFE8478:
	.align 2
	.p2align 4,,15
	.globl __ZN8Fielding13HostViewCocoa16hostMouseReleaseEv
	.private_extern __ZN8Fielding13HostViewCocoa16hostMouseReleaseEv
__ZN8Fielding13HostViewCocoa16hostMouseReleaseEv:
LFB8479:
	lwz r2,96(r3)
	cmpwi cr7,r2,0
	beqlr cr7
	li r0,0
	stw r0,64(r2)
	blr
LFE8479:
	.section __TEXT,__textcoal_nt,coalesced,pure_instructions
	.align 2
	.p2align 4,,15
	.globl __ZN5boost7polygon15end_90_set_dataINS0_19polygon_90_set_dataIfEEEENS_9enable_ifINS0_22is_polygon_90_set_typeIT_E4typeENS0_21polygon_90_set_traitsIS6_E13iterator_typeEE4typeERKS6_
	.weak_definition __ZN5boost7polygon15end_90_set_dataINS0_19polygon_90_set_dataIfEEEENS_9enable_ifINS0_22is_polygon_90_set_typeIT_E4typeENS0_21polygon_90_set_traitsIS6_E13iterator_typeEE4typeERKS6_
	.private_extern __ZN5boost7polygon15end_90_set_dataINS0_19polygon_90_set_dataIfEEEENS_9enable_ifINS0_22is_polygon_90_set_typeIT_E4typeENS0_21polygon_90_set_traitsIS6_E13iterator_typeEE4typeERKS6_
__ZN5boost7polygon15end_90_set_dataINS0_19polygon_90_set_dataIfEEEENS_9enable_ifINS0_22is_polygon_90_set_typeIT_E4typeENS0_21polygon_90_set_traitsIS6_E13iterator_typeEE4typeERKS6_:
LFB9459:
	lwz r0,8(r4)
	stw r0,0(r3)
	blr
LFE9459:
	.align 2
	.p2align 4,,15
	.globl __ZN5boost7polygon17begin_90_set_dataINS0_19polygon_90_set_dataIfEEEENS_9enable_ifINS0_22is_polygon_90_set_typeIT_E4typeENS0_21polygon_90_set_traitsIS6_E13iterator_typeEE4typeERKS6_
	.weak_definition __ZN5boost7polygon17begin_90_set_dataINS0_19polygon_90_set_dataIfEEEENS_9enable_ifINS0_22is_polygon_90_set_typeIT_E4typeENS0_21polygon_90_set_traitsIS6_E13iterator_typeEE4typeERKS6_
	.private_extern __ZN5boost7polygon17begin_90_set_dataINS0_19polygon_90_set_dataIfEEEENS_9enable_ifINS0_22is_polygon_90_set_typeIT_E4typeENS0_21polygon_90_set_traitsIS6_E13iterator_typeEE4typeERKS6_
__ZN5boost7polygon17begin_90_set_dataINS0_19polygon_90_set_dataIfEEEENS_9enable_ifINS0_22is_polygon_90_set_typeIT_E4typeENS0_21polygon_90_set_traitsIS6_E13iterator_typeEE4typeERKS6_:
LFB9460:
	lwz r0,4(r4)
	stw r0,0(r3)
	blr
LFE9460:
	.align 2
	.p2align 4,,15
	.globl __ZN5boost7polygon3getINS0_14rectangle_dataIfEEEENS0_23rectangle_interval_typeIT_E4typeERKS5_NS0_14orientation_2dEPNS_9enable_ifINS0_6gtl_ifINS0_20is_rectangle_conceptINS0_16geometry_conceptIS5_E4typeEE4typeEE4typeEvE4typeE
	.weak_definition __ZN5boost7polygon3getINS0_14rectangle_dataIfEEEENS0_23rectangle_interval_typeIT_E4typeERKS5_NS0_14orientation_2dEPNS_9enable_ifINS0_6gtl_ifINS0_20is_rectangle_conceptINS0_16geometry_conceptIS5_E4typeEE4typeEE4typeEvE4typeE
	.private_extern __ZN5boost7polygon3getINS0_14rectangle_dataIfEEEENS0_23rectangle_interval_typeIT_E4typeERKS5_NS0_14orientation_2dEPNS_9enable_ifINS0_6gtl_ifINS0_20is_rectangle_conceptINS0_16geometry_conceptIS5_E4typeEE4typeEE4typeEvE4typeE
__ZN5boost7polygon3getINS0_14rectangle_dataIfEEEENS0_23rectangle_interval_typeIT_E4typeERKS5_NS0_14orientation_2dEPNS_9enable_ifINS0_6gtl_ifINS0_20is_rectangle_conceptINS0_16geometry_conceptIS5_E4typeEE4typeEE4typeEvE4typeE:
LFB9492:
	li r2,0
	lwz r0,0(r5)
	stw r2,4(r3)
	stw r2,0(r3)
	slwi r0,r0,3
	add r2,r0,r4
	lfsx f0,r4,r0
	stfs f0,0(r3)
	lfs f13,4(r2)
	stfs f13,4(r3)
	blr
LFE9492:
	.align 2
	.p2align 4,,15
	.globl __ZSt8_DestroyIP18tSimpleCallbackArgSaIS0_EEvT_S3_T0_
	.weak_definition __ZSt8_DestroyIP18tSimpleCallbackArgSaIS0_EEvT_S3_T0_
	.private_extern __ZSt8_DestroyIP18tSimpleCallbackArgSaIS0_EEvT_S3_T0_
__ZSt8_DestroyIP18tSimpleCallbackArgSaIS0_EEvT_S3_T0_:
LFB10188:
	blr
LFE10188:
	.align 2
	.p2align 4,,15
	.globl __ZSt8_DestroyIPN5boost7polygon14rectangle_dataIfEESaIS3_EEvT_S6_T0_
	.weak_definition __ZSt8_DestroyIPN5boost7polygon14rectangle_dataIfEESaIS3_EEvT_S6_T0_
	.private_extern __ZSt8_DestroyIPN5boost7polygon14rectangle_dataIfEESaIS3_EEvT_S6_T0_
__ZSt8_DestroyIPN5boost7polygon14rectangle_dataIfEESaIS3_EEvT_S6_T0_:
LFB10210:
	blr
LFE10210:
	.align 2
	.p2align 4,,15
	.globl __ZN5boost7polygon8verticalINS0_14rectangle_dataIfEEEENS_9enable_ifINS0_7gtl_andINS0_5y_r_vENS0_6gtl_ifINS0_20is_rectangle_conceptINS0_16geometry_conceptIT_E4typeEE4typeEE4typeEE4typeENS0_16rectangle_traitsISA_NS0_7gtl_yesEE13interval_typeEE4typeERKSA_
	.weak_definition __ZN5boost7polygon8verticalINS0_14rectangle_dataIfEEEENS_9enable_ifINS0_7gtl_andINS0_5y_r_vENS0_6gtl_ifINS0_20is_rectangle_conceptINS0_16geometry_conceptIT_E4typeEE4typeEE4typeEE4typeENS0_16rectangle_traitsISA_NS0_7gtl_yesEE13interval_typeEE4typeERKSA_
	.private_extern __ZN5boost7polygon8verticalINS0_14rectangle_dataIfEEEENS_9enable_ifINS0_7gtl_andINS0_5y_r_vENS0_6gtl_ifINS0_20is_rectangle_conceptINS0_16geometry_conceptIT_E4typeEE4typeEE4typeEE4typeENS0_16rectangle_traitsISA_NS0_7gtl_yesEE13interval_typeEE4typeERKSA_
__ZN5boost7polygon8verticalINS0_14rectangle_dataIfEEEENS_9enable_ifINS0_7gtl_andINS0_5y_r_vENS0_6gtl_ifINS0_20is_rectangle_conceptINS0_16geometry_conceptIT_E4typeEE4typeEE4typeEE4typeENS0_16rectangle_traitsISA_NS0_7gtl_yesEE13interval_typeEE4typeERKSA_:
LFB10229:
	li r0,0
	stw r0,4(r3)
	stw r0,0(r3)
	lfs f0,8(r4)
	stfs f0,0(r3)
	lfs f13,12(r4)
	stfs f13,4(r3)
	blr
LFE10229:
	.align 2
	.p2align 4,,15
	.globl __ZN5boost7polygon10horizontalINS0_14rectangle_dataIfEEEENS_9enable_ifINS0_7gtl_andINS0_5y_r_hENS0_6gtl_ifINS0_20is_rectangle_conceptINS0_16geometry_conceptIT_E4typeEE4typeEE4typeEE4typeENS0_16rectangle_traitsISA_NS0_7gtl_yesEE13interval_typeEE4typeERKSA_
	.weak_definition __ZN5boost7polygon10horizontalINS0_14rectangle_dataIfEEEENS_9enable_ifINS0_7gtl_andINS0_5y_r_hENS0_6gtl_ifINS0_20is_rectangle_conceptINS0_16geometry_conceptIT_E4typeEE4typeEE4typeEE4typeENS0_16rectangle_traitsISA_NS0_7gtl_yesEE13interval_typeEE4typeERKSA_
	.private_extern __ZN5boost7polygon10horizontalINS0_14rectangle_dataIfEEEENS_9enable_ifINS0_7gtl_andINS0_5y_r_hENS0_6gtl_ifINS0_20is_rectangle_conceptINS0_16geometry_conceptIT_E4typeEE4typeEE4typeEE4typeENS0_16rectangle_traitsISA_NS0_7gtl_yesEE13interval_typeEE4typeERKSA_
__ZN5boost7polygon10horizontalINS0_14rectangle_dataIfEEEENS_9enable_ifINS0_7gtl_andINS0_5y_r_hENS0_6gtl_ifINS0_20is_rectangle_conceptINS0_16geometry_conceptIT_E4typeEE4typeEE4typeEE4typeENS0_16rectangle_traitsISA_NS0_7gtl_yesEE13interval_typeEE4typeERKSA_:
LFB10232:
	li r0,0
	stw r0,4(r3)
	stw r0,0(r3)
	lfs f0,0(r4)
	stfs f0,0(r3)
	lfs f13,4(r4)
	stfs f13,4(r3)
	blr
LFE10232:
	.align 2
	.p2align 4,,15
	.globl __ZSt8_DestroyIN9__gnu_cxx17__normal_iteratorIP18tSimpleCallbackArgSt6vectorIS2_SaIS2_EEEES5_EvT_S8_T0_
	.weak_definition __ZSt8_DestroyIN9__gnu_cxx17__normal_iteratorIP18tSimpleCallbackArgSt6vectorIS2_SaIS2_EEEES5_EvT_S8_T0_
	.private_extern __ZSt8_DestroyIN9__gnu_cxx17__normal_iteratorIP18tSimpleCallbackArgSt6vectorIS2_SaIS2_EEEES5_EvT_S8_T0_
__ZSt8_DestroyIN9__gnu_cxx17__normal_iteratorIP18tSimpleCallbackArgSt6vectorIS2_SaIS2_EEEES5_EvT_S8_T0_:
LFB10246:
	blr
LFE10246:
	.align 2
	.p2align 4,,15
	.globl __ZSt8_DestroyIPSt4pairIfS0_IfiEESaIS2_EEvT_S5_T0_
	.weak_definition __ZSt8_DestroyIPSt4pairIfS0_IfiEESaIS2_EEvT_S5_T0_
	.private_extern __ZSt8_DestroyIPSt4pairIfS0_IfiEESaIS2_EEvT_S5_T0_
__ZSt8_DestroyIPSt4pairIfS0_IfiEESaIS2_EEvT_S5_T0_:
LFB10476:
	blr
LFE10476:
	.align 2
	.p2align 4,,15
	.globl __ZN5boost7polygon20scanline_orientationINS0_19polygon_90_set_dataIfEEEENS_9enable_ifINS0_22is_polygon_90_set_typeIT_E4typeENS0_14orientation_2dEE4typeERKS6_
	.weak_definition __ZN5boost7polygon20scanline_orientationINS0_19polygon_90_set_dataIfEEEENS_9enable_ifINS0_22is_polygon_90_set_typeIT_E4typeENS0_14orientation_2dEE4typeERKS6_
	.private_extern __ZN5boost7polygon20scanline_orientationINS0_19polygon_90_set_dataIfEEEENS_9enable_ifINS0_22is_polygon_90_set_typeIT_E4typeENS0_14orientation_2dEE4typeERKS6_
__ZN5boost7polygon20scanline_orientationINS0_19polygon_90_set_dataIfEEEENS_9enable_ifINS0_22is_polygon_90_set_typeIT_E4typeENS0_14orientation_2dEE4typeERKS6_:
LFB10486:
	lwz r0,0(r4)
	stw r0,0(r3)
	blr
LFE10486:
	.align 2
	.p2align 4,,15
	.globl __ZN5boost16exception_detail8set_infoINS0_10clone_implINS0_10bad_alloc_EEEEERKT_S7_RKNS_10error_infoINS_15throw_function_EPKcEE
	.weak_definition __ZN5boost16exception_detail8set_infoINS0_10clone_implINS0_10bad_alloc_EEEEERKT_S7_RKNS_10error_infoINS_15throw_function_EPKcEE
	.private_extern __ZN5boost16exception_detail8set_infoINS0_10clone_implINS0_10bad_alloc_EEEEERKT_S7_RKNS_10error_infoINS_15throw_function_EPKcEE
__ZN5boost16exception_detail8set_infoINS0_10clone_implINS0_10bad_alloc_EEEEERKT_S7_RKNS_10error_infoINS_15throw_function_EPKcEE:
LFB10823:
	lwz r0,0(r4)
	stw r0,8(r3)
	blr
LFE10823:
	.align 2
	.p2align 4,,15
	.globl __ZN5boost16exception_detail8set_infoINS0_10clone_implINS0_10bad_alloc_EEEEERKT_S7_RKNS_10error_infoINS_11throw_file_EPKcEE
	.weak_definition __ZN5boost16exception_detail8set_infoINS0_10clone_implINS0_10bad_alloc_EEEEERKT_S7_RKNS_10error_infoINS_11throw_file_EPKcEE
	.private_extern __ZN5boost16exception_detail8set_infoINS0_10clone_implINS0_10bad_alloc_EEEEERKT_S7_RKNS_10error_infoINS_11throw_file_EPKcEE
__ZN5boost16exception_detail8set_infoINS0_10clone_implINS0_10bad_alloc_EEEEERKT_S7_RKNS_10error_infoINS_11throw_file_EPKcEE:
LFB10824:
	lwz r0,0(r4)
	stw r0,12(r3)
	blr
LFE10824:
	.align 2
	.p2align 4,,15
	.globl __ZN5boost16exception_detail8set_infoINS0_10clone_implINS0_10bad_alloc_EEEEERKT_S7_RKNS_10error_infoINS_11throw_line_EiEE
	.weak_definition __ZN5boost16exception_detail8set_infoINS0_10clone_implINS0_10bad_alloc_EEEEERKT_S7_RKNS_10error_infoINS_11throw_line_EiEE
	.private_extern __ZN5boost16exception_detail8set_infoINS0_10clone_implINS0_10bad_alloc_EEEEERKT_S7_RKNS_10error_infoINS_11throw_line_EiEE
__ZN5boost16exception_detail8set_infoINS0_10clone_implINS0_10bad_alloc_EEEEERKT_S7_RKNS_10error_infoINS_11throw_line_EiEE:
LFB10825:
	lwz r0,0(r4)
	stw r0,16(r3)
	blr
LFE10825:
	.align 2
	.p2align 4,,15
	.globl __ZN5boost16exception_detail8set_infoINS0_10clone_implINS0_14bad_exception_EEEEERKT_S7_RKNS_10error_infoINS_15throw_function_EPKcEE
	.weak_definition __ZN5boost16exception_detail8set_infoINS0_10clone_implINS0_14bad_exception_EEEEERKT_S7_RKNS_10error_infoINS_15throw_function_EPKcEE
	.private_extern __ZN5boost16exception_detail8set_infoINS0_10clone_implINS0_14bad_exception_EEEEERKT_S7_RKNS_10error_infoINS_15throw_function_EPKcEE
__ZN5boost16exception_detail8set_infoINS0_10clone_implINS0_14bad_exception_EEEEERKT_S7_RKNS_10error_infoINS_15throw_function_EPKcEE:
LFB10829:
	lwz r0,0(r4)
	stw r0,8(r3)
	blr
LFE10829:
	.align 2
	.p2align 4,,15
	.globl __ZN5boost16exception_detail8set_infoINS0_10clone_implINS0_14bad_exception_EEEEERKT_S7_RKNS_10error_infoINS_11throw_file_EPKcEE
	.weak_definition __ZN5boost16exception_detail8set_infoINS0_10clone_implINS0_14bad_exception_EEEEERKT_S7_RKNS_10error_infoINS_11throw_file_EPKcEE
	.private_extern __ZN5boost16exception_detail8set_infoINS0_10clone_implINS0_14bad_exception_EEEEERKT_S7_RKNS_10error_infoINS_11throw_file_EPKcEE
__ZN5boost16exception_detail8set_infoINS0_10clone_implINS0_14bad_exception_EEEEERKT_S7_RKNS_10error_infoINS_11throw_file_EPKcEE:
LFB10830:
	lwz r0,0(r4)
	stw r0,12(r3)
	blr
LFE10830:
	.align 2
	.p2align 4,,15
	.globl __ZN5boost16exception_detail8set_infoINS0_10clone_implINS0_14bad_exception_EEEEERKT_S7_RKNS_10error_infoINS_11throw_line_EiEE
	.weak_definition __ZN5boost16exception_detail8set_infoINS0_10clone_implINS0_14bad_exception_EEEEERKT_S7_RKNS_10error_infoINS_11throw_line_EiEE
	.private_extern __ZN5boost16exception_detail8set_infoINS0_10clone_implINS0_14bad_exception_EEEEERKT_S7_RKNS_10error_infoINS_11throw_line_EiEE
__ZN5boost16exception_detail8set_infoINS0_10clone_implINS0_14bad_exception_EEEEERKT_S7_RKNS_10error_infoINS_11throw_line_EiEE:
LFB10831:
	lwz r0,0(r4)
	stw r0,16(r3)
	blr
LFE10831:
	.align 2
	.p2align 4,,15
	.globl __ZN5boost7polygon3getINS0_13interval_dataIfEEEENS0_24interval_coordinate_typeIT_E4typeERKS5_NS0_12direction_1dEPNS_9enable_ifINS0_6gtl_ifINS0_19is_interval_conceptINS0_16geometry_conceptIS5_E4typeEE4typeEE4typeEvE4typeE
	.weak_definition __ZN5boost7polygon3getINS0_13interval_dataIfEEEENS0_24interval_coordinate_typeIT_E4typeERKS5_NS0_12direction_1dEPNS_9enable_ifINS0_6gtl_ifINS0_19is_interval_conceptINS0_16geometry_conceptIS5_E4typeEE4typeEE4typeEvE4typeE
	.private_extern __ZN5boost7polygon3getINS0_13interval_dataIfEEEENS0_24interval_coordinate_typeIT_E4typeERKS5_NS0_12direction_1dEPNS_9enable_ifINS0_6gtl_ifINS0_19is_interval_conceptINS0_16geometry_conceptIS5_E4typeEE4typeEE4typeEvE4typeE
__ZN5boost7polygon3getINS0_13interval_dataIfEEEENS0_24interval_coordinate_typeIT_E4typeERKS5_NS0_12direction_1dEPNS_9enable_ifINS0_6gtl_ifINS0_19is_interval_conceptINS0_16geometry_conceptIS5_E4typeEE4typeEE4typeEvE4typeE:
LFB11012:
	lwz r0,0(r4)
	slwi r0,r0,2
	lfsx f1,r3,r0
	blr
LFE11012:
	.align 2
	.p2align 4,,15
	.globl __ZN5boost7polygon3lowINS0_13interval_dataIfEEEENS0_15interval_traitsIT_E15coordinate_typeERKS5_PNS_9enable_ifINS0_19is_interval_conceptINS0_16geometry_conceptIS5_E4typeEE4typeEvE4typeE
	.weak_definition __ZN5boost7polygon3lowINS0_13interval_dataIfEEEENS0_15interval_traitsIT_E15coordinate_typeERKS5_PNS_9enable_ifINS0_19is_interval_conceptINS0_16geometry_conceptIS5_E4typeEE4typeEvE4typeE
	.private_extern __ZN5boost7polygon3lowINS0_13interval_dataIfEEEENS0_15interval_traitsIT_E15coordinate_typeERKS5_PNS_9enable_ifINS0_19is_interval_conceptINS0_16geometry_conceptIS5_E4typeEE4typeEvE4typeE
__ZN5boost7polygon3lowINS0_13interval_dataIfEEEENS0_15interval_traitsIT_E15coordinate_typeERKS5_PNS_9enable_ifINS0_19is_interval_conceptINS0_16geometry_conceptIS5_E4typeEE4typeEvE4typeE:
LFB10538:
	mflr r0
LCFI0:
	li r5,0
	stw r0,8(r1)
LCFI1:
	stwu r1,-96(r1)
LCFI2:
	li r0,0
	addi r4,r1,56
	stw r0,56(r1)
	bl L__ZN5boost7polygon3getINS0_13interval_dataIfEEEENS0_24interval_coordinate_typeIT_E4typeERKS5_NS0_12direction_1dEPNS_9enable_ifINS0_6gtl_ifINS0_19is_interval_conceptINS0_16geometry_conceptIS5_E4typeEE4typeEE4typeEvE4typeE$stub
	addi r1,r1,96
	lwz r0,8(r1)
	mtlr r0
	blr
LFE10538:
	.align 2
	.p2align 4,,15
	.globl __ZN5boost7polygon3getINS0_14rectangle_dataIfEEEENS_9enable_ifINS0_7gtl_andINS0_7y_r_getENS0_6gtl_ifINS0_20is_rectangle_conceptINS0_16geometry_conceptIT_E4typeEE4typeEE4typeEE4typeENS0_25rectangle_coordinate_typeISA_E4typeEE4typeERKSA_NS0_14orientation_2dENS0_12direction_1dE
	.weak_definition __ZN5boost7polygon3getINS0_14rectangle_dataIfEEEENS_9enable_ifINS0_7gtl_andINS0_7y_r_getENS0_6gtl_ifINS0_20is_rectangle_conceptINS0_16geometry_conceptIT_E4typeEE4typeEE4typeEE4typeENS0_25rectangle_coordinate_typeISA_E4typeEE4typeERKSA_NS0_14orientation_2dENS0_12direction_1dE
	.private_extern __ZN5boost7polygon3getINS0_14rectangle_dataIfEEEENS_9enable_ifINS0_7gtl_andINS0_7y_r_getENS0_6gtl_ifINS0_20is_rectangle_conceptINS0_16geometry_conceptIT_E4typeEE4typeEE4typeEE4typeENS0_25rectangle_coordinate_typeISA_E4typeEE4typeERKSA_NS0_14orientation_2dENS0_12direction_1dE
__ZN5boost7polygon3getINS0_14rectangle_dataIfEEEENS_9enable_ifINS0_7gtl_andINS0_7y_r_getENS0_6gtl_ifINS0_20is_rectangle_conceptINS0_16geometry_conceptIT_E4typeEE4typeEE4typeEE4typeENS0_25rectangle_coordinate_typeISA_E4typeEE4typeERKSA_NS0_14orientation_2dENS0_12direction_1dE:
LFB10167:
	mflr r0
LCFI3:
	mr r9,r3
	stw r0,8(r1)
LCFI4:
	stwu r1,-96(r1)
LCFI5:
	nop
	nop
	lwz r0,0(r4)
	addi r3,r1,60
	addi r4,r1,56
	slwi r0,r0,3
	add r2,r0,r9
	lfsx f0,r9,r0
	lfs f13,4(r2)
	stfs f0,60(r1)
	stfs f13,64(r1)
	lwz r0,0(r5)
	li r5,0
	stw r0,56(r1)
	bl L__ZN5boost7polygon3getINS0_13interval_dataIfEEEENS0_24interval_coordinate_typeIT_E4typeERKS5_NS0_12direction_1dEPNS_9enable_ifINS0_6gtl_ifINS0_19is_interval_conceptINS0_16geometry_conceptIS5_E4typeEE4typeEE4typeEvE4typeE$stub
	addi r1,r1,96
	lwz r0,8(r1)
	mtlr r0
	blr
LFE10167:
	.align 2
	.p2align 4,,15
	.globl __ZN5boost7polygon2ylINS0_14rectangle_dataIfEEEENS_9enable_ifINS0_7gtl_andINS0_6y_r_ylENS0_6gtl_ifINS0_20is_rectangle_conceptINS0_16geometry_conceptIT_E4typeEE4typeEE4typeEE4typeENS0_25rectangle_coordinate_typeISA_E4typeEE4typeERKSA_
	.weak_definition __ZN5boost7polygon2ylINS0_14rectangle_dataIfEEEENS_9enable_ifINS0_7gtl_andINS0_6y_r_ylENS0_6gtl_ifINS0_20is_rectangle_conceptINS0_16geometry_conceptIT_E4typeEE4typeEE4typeEE4typeENS0_25rectangle_coordinate_typeISA_E4typeEE4typeERKSA_
	.private_extern __ZN5boost7polygon2ylINS0_14rectangle_dataIfEEEENS_9enable_ifINS0_7gtl_andINS0_6y_r_ylENS0_6gtl_ifINS0_20is_rectangle_conceptINS0_16geometry_conceptIT_E4typeEE4typeEE4typeEE4typeENS0_25rectangle_coordinate_typeISA_E4typeEE4typeERKSA_
__ZN5boost7polygon2ylINS0_14rectangle_dataIfEEEENS_9enable_ifINS0_7gtl_andINS0_6y_r_ylENS0_6gtl_ifINS0_20is_rectangle_conceptINS0_16geometry_conceptIT_E4typeEE4typeEE4typeEE4typeENS0_25rectangle_coordinate_typeISA_E4typeEE4typeERKSA_:
LFB9280:
	mflr r0
LCFI6:
	li r2,0
	stw r0,8(r1)
LCFI7:
	stwu r1,-96(r1)
LCFI8:
	li r0,1
	addi r4,r1,56
	addi r5,r1,60
	stw r0,56(r1)
	stw r2,60(r1)
	bl L__ZN5boost7polygon3getINS0_14rectangle_dataIfEEEENS_9enable_ifINS0_7gtl_andINS0_7y_r_getENS0_6gtl_ifINS0_20is_rectangle_conceptINS0_16geometry_conceptIT_E4typeEE4typeEE4typeEE4typeENS0_25rectangle_coordinate_typeISA_E4typeEE4typeERKSA_NS0_14orientation_2dENS0_12direction_1dE$stub
	addi r1,r1,96
	lwz r0,8(r1)
	mtlr r0
	blr
LFE9280:
	.align 2
	.p2align 4,,15
	.globl __ZN5boost7polygon2xlINS0_14rectangle_dataIfEEEENS_9enable_ifINS0_7gtl_andINS0_6y_r_xlENS0_6gtl_ifINS0_20is_rectangle_conceptINS0_16geometry_conceptIT_E4typeEE4typeEE4typeEE4typeENS0_25rectangle_coordinate_typeISA_E4typeEE4typeERKSA_
	.weak_definition __ZN5boost7polygon2xlINS0_14rectangle_dataIfEEEENS_9enable_ifINS0_7gtl_andINS0_6y_r_xlENS0_6gtl_ifINS0_20is_rectangle_conceptINS0_16geometry_conceptIT_E4typeEE4typeEE4typeEE4typeENS0_25rectangle_coordinate_typeISA_E4typeEE4typeERKSA_
	.private_extern __ZN5boost7polygon2xlINS0_14rectangle_dataIfEEEENS_9enable_ifINS0_7gtl_andINS0_6y_r_xlENS0_6gtl_ifINS0_20is_rectangle_conceptINS0_16geometry_conceptIT_E4typeEE4typeEE4typeEE4typeENS0_25rectangle_coordinate_typeISA_E4typeEE4typeERKSA_
__ZN5boost7polygon2xlINS0_14rectangle_dataIfEEEENS_9enable_ifINS0_7gtl_andINS0_6y_r_xlENS0_6gtl_ifINS0_20is_rectangle_conceptINS0_16geometry_conceptIT_E4typeEE4typeEE4typeEE4typeENS0_25rectangle_coordinate_typeISA_E4typeEE4typeERKSA_:
LFB9279:
	mflr r0
LCFI9:
	stw r0,8(r1)
LCFI10:
	stwu r1,-96(r1)
LCFI11:
	li r0,0
	addi r4,r1,56
	addi r5,r1,60
	stw r0,60(r1)
	stw r0,56(r1)
	bl L__ZN5boost7polygon3getINS0_14rectangle_dataIfEEEENS_9enable_ifINS0_7gtl_andINS0_7y_r_getENS0_6gtl_ifINS0_20is_rectangle_conceptINS0_16geometry_conceptIT_E4typeEE4typeEE4typeEE4typeENS0_25rectangle_coordinate_typeISA_E4typeEE4typeERKSA_NS0_14orientation_2dENS0_12direction_1dE$stub
	addi r1,r1,96
	lwz r0,8(r1)
	mtlr r0
	blr
LFE9279:
	.align 2
	.p2align 4,,15
	.globl __ZN5boost7polygon4highINS0_13interval_dataIfEEEENS0_15interval_traitsIT_E15coordinate_typeERKS5_PNS_9enable_ifINS0_19is_interval_conceptINS0_16geometry_conceptIS5_E4typeEE4typeEvE4typeE
	.weak_definition __ZN5boost7polygon4highINS0_13interval_dataIfEEEENS0_15interval_traitsIT_E15coordinate_typeERKS5_PNS_9enable_ifINS0_19is_interval_conceptINS0_16geometry_conceptIS5_E4typeEE4typeEvE4typeE
	.private_extern __ZN5boost7polygon4highINS0_13interval_dataIfEEEENS0_15interval_traitsIT_E15coordinate_typeERKS5_PNS_9enable_ifINS0_19is_interval_conceptINS0_16geometry_conceptIS5_E4typeEE4typeEvE4typeE
__ZN5boost7polygon4highINS0_13interval_dataIfEEEENS0_15interval_traitsIT_E15coordinate_typeERKS5_PNS_9enable_ifINS0_19is_interval_conceptINS0_16geometry_conceptIS5_E4typeEE4typeEvE4typeE:
LFB11013:
	mflr r0
LCFI12:
	li r5,0
	stw r0,8(r1)
LCFI13:
	stwu r1,-96(r1)
LCFI14:
	li r0,1
	addi r4,r1,56
	stw r0,56(r1)
	bl L__ZN5boost7polygon3getINS0_13interval_dataIfEEEENS0_24interval_coordinate_typeIT_E4typeERKS5_NS0_12direction_1dEPNS_9enable_ifINS0_6gtl_ifINS0_19is_interval_conceptINS0_16geometry_conceptIS5_E4typeEE4typeEE4typeEvE4typeE$stub
	addi r1,r1,96
	lwz r0,8(r1)
	mtlr r0
	blr
LFE11013:
	.align 2
	.p2align 4,,15
	.globl __ZN5boost7polygon8containsINS0_13interval_dataIfEEEENS_9enable_ifINS0_7gtl_andINS0_12y_i_containsENS0_19is_interval_conceptINS0_16geometry_conceptIT_E4typeEE4typeEE4typeEbE4typeERKS9_NS0_15interval_traitsIS9_E15coordinate_typeEb
	.weak_definition __ZN5boost7polygon8containsINS0_13interval_dataIfEEEENS_9enable_ifINS0_7gtl_andINS0_12y_i_containsENS0_19is_interval_conceptINS0_16geometry_conceptIT_E4typeEE4typeEE4typeEbE4typeERKS9_NS0_15interval_traitsIS9_E15coordinate_typeEb
	.private_extern __ZN5boost7polygon8containsINS0_13interval_dataIfEEEENS_9enable_ifINS0_7gtl_andINS0_12y_i_containsENS0_19is_interval_conceptINS0_16geometry_conceptIT_E4typeEE4typeEE4typeEbE4typeERKS9_NS0_15interval_traitsIS9_E15coordinate_typeEb
__ZN5boost7polygon8containsINS0_13interval_dataIfEEEENS_9enable_ifINS0_7gtl_andINS0_12y_i_containsENS0_19is_interval_conceptINS0_16geometry_conceptIT_E4typeEE4typeEE4typeEbE4typeERKS9_NS0_15interval_traitsIS9_E15coordinate_typeEb:
LFB10231:
	mflr r0
LCFI15:
	cmpwi cr7,r5,0
	stfd f31,-8(r1)
LCFI16:
	fmr f31,f1
	stmw r30,-16(r1)
LCFI17:
	mr r30,r3
	stw r0,8(r1)
LCFI18:
	stwu r1,-80(r1)
LCFI19:
	beq cr7,L71
	li r4,0
	bl L__ZN5boost7polygon4highINS0_13interval_dataIfEEEENS0_15interval_traitsIT_E15coordinate_typeERKS5_PNS_9enable_ifINS0_19is_interval_conceptINS0_16geometry_conceptIS5_E4typeEE4typeEvE4typeE$stub
	li r3,0
	fcmpu cr7,f1,f31
	cror 30,31,28
	beq cr7,L76
	mr r3,r30
	li r4,0
	bl L__ZN5boost7polygon3lowINS0_13interval_dataIfEEEENS0_15interval_traitsIT_E15coordinate_typeERKS5_PNS_9enable_ifINS0_19is_interval_conceptINS0_16geometry_conceptIS5_E4typeEE4typeEvE4typeE$stub
	fcmpu cr7,f1,f31
	cror 30,28,30
	mfcr r3
	rlwinm r3,r3,31,1
	b L76
	.p2align 4,,15
L71:
	li r4,0
	bl L__ZN5boost7polygon4highINS0_13interval_dataIfEEEENS0_15interval_traitsIT_E15coordinate_typeERKS5_PNS_9enable_ifINS0_19is_interval_conceptINS0_16geometry_conceptIS5_E4typeEE4typeEvE4typeE$stub
	li r3,0
	fcmpu cr7,f1,f31
	bng cr7,L76
	mr r3,r30
	li r4,0
	bl L__ZN5boost7polygon3lowINS0_13interval_dataIfEEEENS0_15interval_traitsIT_E15coordinate_typeERKS5_PNS_9enable_ifINS0_19is_interval_conceptINS0_16geometry_conceptIS5_E4typeEE4typeEvE4typeE$stub
	fcmpu cr7,f1,f31
	mfcr r3
	rlwinm r3,r3,29,1
	.p2align 4,,15
L76:
	addi r1,r1,80
	lwz r0,8(r1)
	lfd f31,-8(r1)
	lmw r30,-16(r1)
	mtlr r0
	blr
LFE10231:
	.align 2
	.p2align 4,,15
	.globl __ZN5boost7polygon5deltaINS0_13interval_dataIfEEEENS0_24interval_difference_typeIT_E4typeERKS5_PNS_9enable_ifINS0_19is_interval_conceptINS0_16geometry_conceptIS5_E4typeEE4typeEvE4typeE
	.weak_definition __ZN5boost7polygon5deltaINS0_13interval_dataIfEEEENS0_24interval_difference_typeIT_E4typeERKS5_PNS_9enable_ifINS0_19is_interval_conceptINS0_16geometry_conceptIS5_E4typeEE4typeEvE4typeE
	.private_extern __ZN5boost7polygon5deltaINS0_13interval_dataIfEEEENS0_24interval_difference_typeIT_E4typeERKS5_PNS_9enable_ifINS0_19is_interval_conceptINS0_16geometry_conceptIS5_E4typeEE4typeEvE4typeE
__ZN5boost7polygon5deltaINS0_13interval_dataIfEEEENS0_24interval_difference_typeIT_E4typeERKS5_PNS_9enable_ifINS0_19is_interval_conceptINS0_16geometry_conceptIS5_E4typeEE4typeEvE4typeE:
LFB10168:
	mflr r0
LCFI20:
	stfd f31,-8(r1)
LCFI21:
	li r4,0
	stmw r29,-20(r1)
LCFI22:
	mr r29,r3
	stw r0,8(r1)
LCFI23:
	stwu r1,-96(r1)
LCFI24:
	bl L__ZN5boost7polygon4highINS0_13interval_dataIfEEEENS0_15interval_traitsIT_E15coordinate_typeERKS5_PNS_9enable_ifINS0_19is_interval_conceptINS0_16geometry_conceptIS5_E4typeEE4typeEvE4typeE$stub
	mr r3,r29
	li r4,0
	fmr f31,f1
	bl L__ZN5boost7polygon3lowINS0_13interval_dataIfEEEENS0_15interval_traitsIT_E15coordinate_typeERKS5_PNS_9enable_ifINS0_19is_interval_conceptINS0_16geometry_conceptIS5_E4typeEE4typeEvE4typeE$stub
	addi r1,r1,96
	lwz r0,8(r1)
	lmw r29,-20(r1)
	fsubs f1,f31,f1
	lfd f31,-8(r1)
	mtlr r0
	blr
LFE10168:
	.align 2
	.p2align 4,,15
	.globl __ZN5boost7polygon5deltaINS0_14rectangle_dataIfEEEENS_9enable_ifINS0_7gtl_andINS0_9y_r_deltaENS0_6gtl_ifINS0_20is_rectangle_conceptINS0_16geometry_conceptIT_E4typeEE4typeEE4typeEE4typeENS0_25rectangle_difference_typeISA_E4typeEE4typeERKSA_NS0_14orientation_2dE
	.weak_definition __ZN5boost7polygon5deltaINS0_14rectangle_dataIfEEEENS_9enable_ifINS0_7gtl_andINS0_9y_r_deltaENS0_6gtl_ifINS0_20is_rectangle_conceptINS0_16geometry_conceptIT_E4typeEE4typeEE4typeEE4typeENS0_25rectangle_difference_typeISA_E4typeEE4typeERKSA_NS0_14orientation_2dE
	.private_extern __ZN5boost7polygon5deltaINS0_14rectangle_dataIfEEEENS_9enable_ifINS0_7gtl_andINS0_9y_r_deltaENS0_6gtl_ifINS0_20is_rectangle_conceptINS0_16geometry_conceptIT_E4typeEE4typeEE4typeEE4typeENS0_25rectangle_difference_typeISA_E4typeEE4typeERKSA_NS0_14orientation_2dE
__ZN5boost7polygon5deltaINS0_14rectangle_dataIfEEEENS_9enable_ifINS0_7gtl_andINS0_9y_r_deltaENS0_6gtl_ifINS0_20is_rectangle_conceptINS0_16geometry_conceptIT_E4typeEE4typeEE4typeEE4typeENS0_25rectangle_difference_typeISA_E4typeEE4typeERKSA_NS0_14orientation_2dE:
LFB9281:
	mflr r0
LCFI25:
	li r6,0
	stmw r29,-12(r1)
LCFI26:
	stw r0,8(r1)
LCFI27:
	stwu r1,-96(r1)
LCFI28:
	nop
	lwz r0,0(r4)
	addi r29,r1,60
	mr r4,r3
	addi r5,r1,56
	mr r3,r29
	stw r0,56(r1)
	bl L__ZN5boost7polygon3getINS0_14rectangle_dataIfEEEENS0_23rectangle_interval_typeIT_E4typeERKS5_NS0_14orientation_2dEPNS_9enable_ifINS0_6gtl_ifINS0_20is_rectangle_conceptINS0_16geometry_conceptIS5_E4typeEE4typeEE4typeEvE4typeE$stub
	mr r3,r29
	li r4,0
	bl L__ZN5boost7polygon5deltaINS0_13interval_dataIfEEEENS0_24interval_difference_typeIT_E4typeERKS5_PNS_9enable_ifINS0_19is_interval_conceptINS0_16geometry_conceptIS5_E4typeEE4typeEvE4typeE$stub
	addi r1,r1,96
	lwz r0,8(r1)
	lmw r29,-12(r1)
	mtlr r0
	blr
LFE9281:
	.align 2
	.p2align 4,,15
	.globl __ZN5boost7polygon3getINS0_10point_dataIfEEEENS0_21point_coordinate_typeIT_E4typeERKS5_NS0_14orientation_2dEPNS_9enable_ifINS0_6gtl_ifINS0_16is_point_conceptINS0_16geometry_conceptIS5_E4typeEE4typeEE4typeEvE4typeE
	.weak_definition __ZN5boost7polygon3getINS0_10point_dataIfEEEENS0_21point_coordinate_typeIT_E4typeERKS5_NS0_14orientation_2dEPNS_9enable_ifINS0_6gtl_ifINS0_16is_point_conceptINS0_16geometry_conceptIS5_E4typeEE4typeEE4typeEvE4typeE
	.private_extern __ZN5boost7polygon3getINS0_10point_dataIfEEEENS0_21point_coordinate_typeIT_E4typeERKS5_NS0_14orientation_2dEPNS_9enable_ifINS0_6gtl_ifINS0_16is_point_conceptINS0_16geometry_conceptIS5_E4typeEE4typeEE4typeEvE4typeE
__ZN5boost7polygon3getINS0_10point_dataIfEEEENS0_21point_coordinate_typeIT_E4typeERKS5_NS0_14orientation_2dEPNS_9enable_ifINS0_6gtl_ifINS0_16is_point_conceptINS0_16geometry_conceptIS5_E4typeEE4typeEE4typeEvE4typeE:
LFB11054:
	lwz r0,0(r4)
	slwi r0,r0,2
	lfsx f1,r3,r0
	blr
LFE11054:
	.align 2
	.p2align 4,,15
	.globl __ZN5boost7polygon1xINS0_10point_dataIfEEEENS_9enable_ifINS0_7gtl_andINS0_5y_p_xENS0_16is_point_conceptINS0_16geometry_conceptIT_E4typeEE4typeEE4typeENS0_12point_traitsIS9_E15coordinate_typeEE4typeERKS9_
	.weak_definition __ZN5boost7polygon1xINS0_10point_dataIfEEEENS_9enable_ifINS0_7gtl_andINS0_5y_p_xENS0_16is_point_conceptINS0_16geometry_conceptIT_E4typeEE4typeEE4typeENS0_12point_traitsIS9_E15coordinate_typeEE4typeERKS9_
	.private_extern __ZN5boost7polygon1xINS0_10point_dataIfEEEENS_9enable_ifINS0_7gtl_andINS0_5y_p_xENS0_16is_point_conceptINS0_16geometry_conceptIT_E4typeEE4typeEE4typeENS0_12point_traitsIS9_E15coordinate_typeEE4typeERKS9_
__ZN5boost7polygon1xINS0_10point_dataIfEEEENS_9enable_ifINS0_7gtl_andINS0_5y_p_xENS0_16is_point_conceptINS0_16geometry_conceptIT_E4typeEE4typeEE4typeENS0_12point_traitsIS9_E15coordinate_typeEE4typeERKS9_:
LFB10233:
	mflr r0
LCFI29:
	li r5,0
	stw r0,8(r1)
LCFI30:
	stwu r1,-96(r1)
LCFI31:
	li r0,0
	addi r4,r1,56
	stw r0,56(r1)
	bl L__ZN5boost7polygon3getINS0_10point_dataIfEEEENS0_21point_coordinate_typeIT_E4typeERKS5_NS0_14orientation_2dEPNS_9enable_ifINS0_6gtl_ifINS0_16is_point_conceptINS0_16geometry_conceptIS5_E4typeEE4typeEE4typeEvE4typeE$stub
	addi r1,r1,96
	lwz r0,8(r1)
	mtlr r0
	blr
LFE10233:
	.align 2
	.p2align 4,,15
	.globl __ZN5boost7polygon1yINS0_10point_dataIfEEEENS_9enable_ifINS0_7gtl_andINS0_5y_p_yENS0_16is_point_conceptINS0_16geometry_conceptIT_E4typeEE4typeEE4typeENS0_12point_traitsIS9_E15coordinate_typeEE4typeERKS9_
	.weak_definition __ZN5boost7polygon1yINS0_10point_dataIfEEEENS_9enable_ifINS0_7gtl_andINS0_5y_p_yENS0_16is_point_conceptINS0_16geometry_conceptIT_E4typeEE4typeEE4typeENS0_12point_traitsIS9_E15coordinate_typeEE4typeERKS9_
	.private_extern __ZN5boost7polygon1yINS0_10point_dataIfEEEENS_9enable_ifINS0_7gtl_andINS0_5y_p_yENS0_16is_point_conceptINS0_16geometry_conceptIT_E4typeEE4typeEE4typeENS0_12point_traitsIS9_E15coordinate_typeEE4typeERKS9_
__ZN5boost7polygon1yINS0_10point_dataIfEEEENS_9enable_ifINS0_7gtl_andINS0_5y_p_yENS0_16is_point_conceptINS0_16geometry_conceptIT_E4typeEE4typeEE4typeENS0_12point_traitsIS9_E15coordinate_typeEE4typeERKS9_:
LFB10230:
	mflr r0
LCFI32:
	li r5,0
	stw r0,8(r1)
LCFI33:
	stwu r1,-96(r1)
LCFI34:
	li r0,1
	addi r4,r1,56
	stw r0,56(r1)
	bl L__ZN5boost7polygon3getINS0_10point_dataIfEEEENS0_21point_coordinate_typeIT_E4typeERKS5_NS0_14orientation_2dEPNS_9enable_ifINS0_6gtl_ifINS0_16is_point_conceptINS0_16geometry_conceptIS5_E4typeEE4typeEE4typeEvE4typeE$stub
	addi r1,r1,96
	lwz r0,8(r1)
	mtlr r0
	blr
LFE10230:
	.align 2
	.p2align 4,,15
	.globl __ZN5boost7polygon8containsINS0_14rectangle_dataIfEENS0_10point_dataIfEEEENS_9enable_ifINS0_9gtl_and_3INS0_13y_r_contains2ENS0_20is_rectangle_conceptINS0_16geometry_conceptIT_E4typeEE4typeENS0_16is_point_conceptINSA_IT0_E4typeEE4typeEE4typeEbE4typeERKSB_SH_b
	.weak_definition __ZN5boost7polygon8containsINS0_14rectangle_dataIfEENS0_10point_dataIfEEEENS_9enable_ifINS0_9gtl_and_3INS0_13y_r_contains2ENS0_20is_rectangle_conceptINS0_16geometry_conceptIT_E4typeEE4typeENS0_16is_point_conceptINSA_IT0_E4typeEE4typeEE4typeEbE4typeERKSB_SH_b
	.private_extern __ZN5boost7polygon8containsINS0_14rectangle_dataIfEENS0_10point_dataIfEEEENS_9enable_ifINS0_9gtl_and_3INS0_13y_r_contains2ENS0_20is_rectangle_conceptINS0_16geometry_conceptIT_E4typeEE4typeENS0_16is_point_conceptINSA_IT0_E4typeEE4typeEE4typeEbE4typeERKSB_SH_b
__ZN5boost7polygon8containsINS0_14rectangle_dataIfEENS0_10point_dataIfEEEENS_9enable_ifINS0_9gtl_and_3INS0_13y_r_contains2ENS0_20is_rectangle_conceptINS0_16geometry_conceptIT_E4typeEE4typeENS0_16is_point_conceptINSA_IT0_E4typeEE4typeEE4typeEbE4typeERKSB_SH_b:
LFB9328:
	mflr r0
LCFI35:
	stmw r27,-20(r1)
LCFI36:
	mr r30,r3
	stw r0,8(r1)
LCFI37:
	stwu r1,-112(r1)
LCFI38:
	mr r28,r4
	mr r4,r30
	mr r27,r5
	addi r29,r1,64
	mr r3,r29
	bl L__ZN5boost7polygon10horizontalINS0_14rectangle_dataIfEEEENS_9enable_ifINS0_7gtl_andINS0_5y_r_hENS0_6gtl_ifINS0_20is_rectangle_conceptINS0_16geometry_conceptIT_E4typeEE4typeEE4typeEE4typeENS0_16rectangle_traitsISA_NS0_7gtl_yesEE13interval_typeEE4typeERKSA_$stub
	mr r3,r28
	bl L__ZN5boost7polygon1xINS0_10point_dataIfEEEENS_9enable_ifINS0_7gtl_andINS0_5y_p_xENS0_16is_point_conceptINS0_16geometry_conceptIT_E4typeEE4typeEE4typeENS0_12point_traitsIS9_E15coordinate_typeEE4typeERKS9_$stub
	mr r3,r29
	mr r5,r27
	bl L__ZN5boost7polygon8containsINS0_13interval_dataIfEEEENS_9enable_ifINS0_7gtl_andINS0_12y_i_containsENS0_19is_interval_conceptINS0_16geometry_conceptIT_E4typeEE4typeEE4typeEbE4typeERKS9_NS0_15interval_traitsIS9_E15coordinate_typeEb$stub
	li r0,0
	cmpwi cr7,r3,0
	beq cr7,L94
	addi r29,r1,56
	mr r4,r30
	mr r3,r29
	bl L__ZN5boost7polygon8verticalINS0_14rectangle_dataIfEEEENS_9enable_ifINS0_7gtl_andINS0_5y_r_vENS0_6gtl_ifINS0_20is_rectangle_conceptINS0_16geometry_conceptIT_E4typeEE4typeEE4typeEE4typeENS0_16rectangle_traitsISA_NS0_7gtl_yesEE13interval_typeEE4typeERKSA_$stub
	mr r3,r28
	bl L__ZN5boost7polygon1yINS0_10point_dataIfEEEENS_9enable_ifINS0_7gtl_andINS0_5y_p_yENS0_16is_point_conceptINS0_16geometry_conceptIT_E4typeEE4typeEE4typeENS0_12point_traitsIS9_E15coordinate_typeEE4typeERKS9_$stub
	mr r3,r29
	mr r5,r27
	bl L__ZN5boost7polygon8containsINS0_13interval_dataIfEEEENS_9enable_ifINS0_7gtl_andINS0_12y_i_containsENS0_19is_interval_conceptINS0_16geometry_conceptIT_E4typeEE4typeEE4typeEbE4typeERKS9_NS0_15interval_traitsIS9_E15coordinate_typeEb$stub
	addic r2,r3,-1
	subfe r0,r2,r3
L94:
	addi r1,r1,112
	mr r3,r0
	lwz r0,8(r1)
	lmw r27,-20(r1)
	mtlr r0
	blr
LFE9328:
	.align 2
	.p2align 4,,15
	.globl __ZSt8_DestroyIN9__gnu_cxx17__normal_iteratorIPSt4pairIfS2_IfiEESt6vectorIS4_SaIS4_EEEES7_EvT_SA_T0_
	.weak_definition __ZSt8_DestroyIN9__gnu_cxx17__normal_iteratorIPSt4pairIfS2_IfiEESt6vectorIS4_SaIS4_EEEES7_EvT_SA_T0_
	.private_extern __ZSt8_DestroyIN9__gnu_cxx17__normal_iteratorIPSt4pairIfS2_IfiEESt6vectorIS4_SaIS4_EEEES7_EvT_SA_T0_
__ZSt8_DestroyIN9__gnu_cxx17__normal_iteratorIPSt4pairIfS2_IfiEESt6vectorIS4_SaIS4_EEEES7_EvT_SA_T0_:
LFB11070:
	blr
LFE11070:
	.align 2
	.p2align 4,,15
	.globl __ZSt8_DestroyIPSt4pairIN5boost7polygon13interval_dataIfEEiESaIS5_EEvT_S8_T0_
	.weak_definition __ZSt8_DestroyIPSt4pairIN5boost7polygon13interval_dataIfEEiESaIS5_EEvT_S8_T0_
	.private_extern __ZSt8_DestroyIPSt4pairIN5boost7polygon13interval_dataIfEEiESaIS5_EEvT_S8_T0_
__ZSt8_DestroyIPSt4pairIN5boost7polygon13interval_dataIfEEiESaIS5_EEvT_S8_T0_:
LFB11976:
	blr
LFE11976:
	.align 2
	.p2align 4,,15
	.globl __ZN5boost7polygon8containsINS0_13interval_dataIfEES3_EEbRKT_RKT0_bPNS_9enable_ifINS0_7gtl_andINS0_19is_interval_conceptINS0_16geometry_conceptIS4_E4typeEE4typeENSC_INSD_IS7_E4typeEE4typeEE4typeEvE4typeE
	.weak_definition __ZN5boost7polygon8containsINS0_13interval_dataIfEES3_EEbRKT_RKT0_bPNS_9enable_ifINS0_7gtl_andINS0_19is_interval_conceptINS0_16geometry_conceptIS4_E4typeEE4typeENSC_INSD_IS7_E4typeEE4typeEE4typeEvE4typeE
	.private_extern __ZN5boost7polygon8containsINS0_13interval_dataIfEES3_EEbRKT_RKT0_bPNS_9enable_ifINS0_7gtl_andINS0_19is_interval_conceptINS0_16geometry_conceptIS4_E4typeEE4typeENSC_INSD_IS7_E4typeEE4typeEE4typeEvE4typeE
__ZN5boost7polygon8containsINS0_13interval_dataIfEES3_EEbRKT_RKT0_bPNS_9enable_ifINS0_7gtl_andINS0_19is_interval_conceptINS0_16geometry_conceptIS4_E4typeEE4typeENSC_INSD_IS7_E4typeEE4typeEE4typeEvE4typeE:
LFB12210:
	mflr r0
LCFI39:
	stmw r28,-16(r1)
LCFI40:
	mr r30,r4
	stw r0,8(r1)
LCFI41:
	stwu r1,-96(r1)
LCFI42:
	li r0,0
	mr r29,r3
	mr r28,r5
	mr r3,r30
	li r5,0
	addi r4,r1,60
	stw r0,60(r1)
	bl L__ZN5boost7polygon3getINS0_13interval_dataIfEEEENS0_24interval_coordinate_typeIT_E4typeERKS5_NS0_12direction_1dEPNS_9enable_ifINS0_6gtl_ifINS0_19is_interval_conceptINS0_16geometry_conceptIS5_E4typeEE4typeEE4typeEvE4typeE$stub
	mr r3,r29
	mr r5,r28
	bl L__ZN5boost7polygon8containsINS0_13interval_dataIfEEEENS_9enable_ifINS0_7gtl_andINS0_12y_i_containsENS0_19is_interval_conceptINS0_16geometry_conceptIT_E4typeEE4typeEE4typeEbE4typeERKS9_NS0_15interval_traitsIS9_E15coordinate_typeEb$stub
	li r0,0
	cmpwi cr7,r3,0
	beq cr7,L103
	li r0,1
	mr r3,r30
	addi r4,r1,56
	li r5,0
	stw r0,56(r1)
	bl L__ZN5boost7polygon3getINS0_13interval_dataIfEEEENS0_24interval_coordinate_typeIT_E4typeERKS5_NS0_12direction_1dEPNS_9enable_ifINS0_6gtl_ifINS0_19is_interval_conceptINS0_16geometry_conceptIS5_E4typeEE4typeEE4typeEvE4typeE$stub
	mr r3,r29
	mr r5,r28
	bl L__ZN5boost7polygon8containsINS0_13interval_dataIfEEEENS_9enable_ifINS0_7gtl_andINS0_12y_i_containsENS0_19is_interval_conceptINS0_16geometry_conceptIT_E4typeEE4typeEE4typeEbE4typeERKS9_NS0_15interval_traitsIS9_E15coordinate_typeEb$stub
	addic r2,r3,-1
	subfe r0,r2,r3
L103:
	addi r1,r1,96
	mr r3,r0
	lwz r0,8(r1)
	lmw r28,-16(r1)
	mtlr r0
	blr
LFE12210:
	.align 2
	.p2align 4,,15
	.globl __ZSt8_DestroyIN9__gnu_cxx17__normal_iteratorIPSt4pairIN5boost7polygon13interval_dataIfEEiESt6vectorIS7_SaIS7_EEEESA_EvT_SD_T0_
	.weak_definition __ZSt8_DestroyIN9__gnu_cxx17__normal_iteratorIPSt4pairIN5boost7polygon13interval_dataIfEEiESt6vectorIS7_SaIS7_EEEESA_EvT_SD_T0_
	.private_extern __ZSt8_DestroyIN9__gnu_cxx17__normal_iteratorIPSt4pairIN5boost7polygon13interval_dataIfEEiESt6vectorIS7_SaIS7_EEEESA_EvT_SD_T0_
__ZSt8_DestroyIN9__gnu_cxx17__normal_iteratorIPSt4pairIN5boost7polygon13interval_dataIfEEiESt6vectorIS7_SaIS7_EEEESA_EvT_SD_T0_:
LFB12601:
	blr
LFE12601:
	.align 2
	.p2align 4,,15
	.globl __ZNSt6vectorI18tSimpleCallbackArgSaIS0_EE5eraseEN9__gnu_cxx17__normal_iteratorIPS0_S2_EES6_
	.weak_definition __ZNSt6vectorI18tSimpleCallbackArgSaIS0_EE5eraseEN9__gnu_cxx17__normal_iteratorIPS0_S2_EES6_
	.private_extern __ZNSt6vectorI18tSimpleCallbackArgSaIS0_EE5eraseEN9__gnu_cxx17__normal_iteratorIPS0_S2_EES6_
__ZNSt6vectorI18tSimpleCallbackArgSaIS0_EE5eraseEN9__gnu_cxx17__normal_iteratorIPS0_S2_EES6_:
LFB10250:
	mflr r0
LCFI43:
	stmw r27,-20(r1)
LCFI44:
	mr r28,r4
	stw r0,8(r1)
LCFI45:
	stwu r1,-112(r1)
LCFI46:
	mr r27,r3
	mr r29,r6
	mr r30,r5
	mr r3,r5
	lwz r4,4(r4)
	subf r0,r6,r4
	srawi. r10,r0,3
	ble cr0,L108
	mtctr r10
	mr r11,r5
	mr r9,r6
	.p2align 4,,15
L110:
	lwz r0,0(r9)
	lwz r2,4(r9)
	addi r9,r9,8
	stw r0,0(r11)
	stw r2,4(r11)
	addi r11,r11,8
	bdnz L110
	slwi r0,r10,3
	lwz r4,4(r28)
	add r3,r30,r0
L108:
	addi r5,r1,56
	bl L__ZSt8_DestroyIN9__gnu_cxx17__normal_iteratorIP18tSimpleCallbackArgSt6vectorIS2_SaIS2_EEEES5_EvT_S8_T0_$stub
	lwz r2,4(r28)
	subf r0,r30,r29
	addi r1,r1,112
	mr r3,r27
	rlwinm r0,r0,0,0,28
	subf r2,r0,r2
	stw r2,4(r28)
	stw r30,0(r27)
	lwz r0,8(r1)
	lmw r27,-20(r1)
	mtlr r0
	blr
LFE10250:
	.align 2
	.p2align 4,,15
	.globl __ZNSt8_Rb_treeIfSt4pairIKfiESt10_Select1stIS2_ESt4lessIfESaIS2_EE11lower_boundERS1_
	.weak_definition __ZNSt8_Rb_treeIfSt4pairIKfiESt10_Select1stIS2_ESt4lessIfESaIS2_EE11lower_boundERS1_
	.private_extern __ZNSt8_Rb_treeIfSt4pairIKfiESt10_Select1stIS2_ESt4lessIfESaIS2_EE11lower_boundERS1_
__ZNSt8_Rb_treeIfSt4pairIKfiESt10_Select1stIS2_ESt4lessIfESaIS2_EE11lower_boundERS1_:
LFB13066:
	lwz r0,8(r4)
	addi r4,r4,4
	cmpwi cr7,r0,0
	beq cr7,L116
	lfs f13,0(r5)
	mr r2,r0
	.p2align 4,,15
L118:
	lfs f0,16(r2)
	fcmpu cr7,f0,f13
	blt cr7,L119
	mr r4,r2
	lwz r2,8(r2)
	b L122
	.p2align 4,,15
L119:
	lwz r2,12(r2)
L122:
	cmpwi cr7,r2,0
	bne cr7,L118
L116:
	stw r4,0(r3)
	blr
LFE13066:
	.align 2
	.p2align 4,,15
	.globl __ZN5boost7polygon9constructINS0_13interval_dataIfEEffEET_T0_T1_PNS_9enable_ifINS0_27is_mutable_interval_conceptINS0_16geometry_conceptIS4_E4typeEE4typeEvE4typeE
	.weak_definition __ZN5boost7polygon9constructINS0_13interval_dataIfEEffEET_T0_T1_PNS_9enable_ifINS0_27is_mutable_interval_conceptINS0_16geometry_conceptIS4_E4typeEE4typeEvE4typeE
	.private_extern __ZN5boost7polygon9constructINS0_13interval_dataIfEEffEET_T0_T1_PNS_9enable_ifINS0_27is_mutable_interval_conceptINS0_16geometry_conceptIS4_E4typeEE4typeEvE4typeE
__ZN5boost7polygon9constructINS0_13interval_dataIfEEffEET_T0_T1_PNS_9enable_ifINS0_27is_mutable_interval_conceptINS0_16geometry_conceptIS4_E4typeEE4typeEvE4typeE:
LFB13160:
	fcmpu cr7,f1,f2
	mr r2,r3
	bng cr7,L126
	fmr f0,f2
	fmr f2,f1
	fmr f1,f0
L126:
	stfs f2,4(r2)
	stfs f1,0(r2)
	blr
LFE13160:
	.align 2
	.p2align 4,,15
	.globl __ZN5boost7polygon14copy_constructINS0_13interval_dataIfEES3_EET_RKT0_PNS_9enable_ifINS0_7gtl_andINS0_27is_mutable_interval_conceptINS0_16geometry_conceptIS4_E4typeEE4typeENS0_19is_interval_conceptINSB_IS5_E4typeEE4typeEE4typeEvE4typeE
	.weak_definition __ZN5boost7polygon14copy_constructINS0_13interval_dataIfEES3_EET_RKT0_PNS_9enable_ifINS0_7gtl_andINS0_27is_mutable_interval_conceptINS0_16geometry_conceptIS4_E4typeEE4typeENS0_19is_interval_conceptINSB_IS5_E4typeEE4typeEE4typeEvE4typeE
	.private_extern __ZN5boost7polygon14copy_constructINS0_13interval_dataIfEES3_EET_RKT0_PNS_9enable_ifINS0_7gtl_andINS0_27is_mutable_interval_conceptINS0_16geometry_conceptIS4_E4typeEE4typeENS0_19is_interval_conceptINSB_IS5_E4typeEE4typeEE4typeEvE4typeE
__ZN5boost7polygon14copy_constructINS0_13interval_dataIfEES3_EET_RKT0_PNS_9enable_ifINS0_7gtl_andINS0_27is_mutable_interval_conceptINS0_16geometry_conceptIS4_E4typeEE4typeENS0_19is_interval_conceptINSB_IS5_E4typeEE4typeEE4typeEvE4typeE:
LFB12694:
	mflr r0
LCFI47:
	stfd f31,-8(r1)
LCFI48:
	li r5,0
	stmw r28,-24(r1)
LCFI49:
	mr r29,r4
	stw r0,8(r1)
LCFI50:
	stwu r1,-112(r1)
LCFI51:
	mr r28,r3
	li r0,0
	mr r3,r29
	addi r4,r1,56
	stw r0,56(r1)
	bl L__ZN5boost7polygon3getINS0_13interval_dataIfEEEENS0_24interval_coordinate_typeIT_E4typeERKS5_NS0_12direction_1dEPNS_9enable_ifINS0_6gtl_ifINS0_19is_interval_conceptINS0_16geometry_conceptIS5_E4typeEE4typeEE4typeEvE4typeE$stub
	li r0,1
	mr r3,r29
	fmr f31,f1
	addi r4,r1,60
	li r5,0
	stw r0,60(r1)
	bl L__ZN5boost7polygon3getINS0_13interval_dataIfEEEENS0_24interval_coordinate_typeIT_E4typeERKS5_NS0_12direction_1dEPNS_9enable_ifINS0_6gtl_ifINS0_19is_interval_conceptINS0_16geometry_conceptIS5_E4typeEE4typeEE4typeEvE4typeE$stub
	mr r3,r28
	li r6,0
	fmr f2,f1
	fmr f1,f31
	bl L__ZN5boost7polygon9constructINS0_13interval_dataIfEEffEET_T0_T1_PNS_9enable_ifINS0_27is_mutable_interval_conceptINS0_16geometry_conceptIS4_E4typeEE4typeEvE4typeE$stub
	addi r1,r1,112
	mr r3,r28
	lwz r0,8(r1)
	lfd f31,-8(r1)
	lmw r28,-24(r1)
	mtlr r0
	blr
LFE12694:
	.align 2
	.p2align 4,,15
	.globl __ZN5boost7polygon6assignINS0_13interval_dataIfEES3_EERT_S5_RKT0_PNS_9enable_ifINS0_7gtl_andINS0_27is_mutable_interval_conceptINS0_16geometry_conceptIS4_E4typeEE4typeENS0_19is_interval_conceptINSC_IS6_E4typeEE4typeEE4typeEvE4typeE
	.weak_definition __ZN5boost7polygon6assignINS0_13interval_dataIfEES3_EERT_S5_RKT0_PNS_9enable_ifINS0_7gtl_andINS0_27is_mutable_interval_conceptINS0_16geometry_conceptIS4_E4typeEE4typeENS0_19is_interval_conceptINSC_IS6_E4typeEE4typeEE4typeEvE4typeE
	.private_extern __ZN5boost7polygon6assignINS0_13interval_dataIfEES3_EERT_S5_RKT0_PNS_9enable_ifINS0_7gtl_andINS0_27is_mutable_interval_conceptINS0_16geometry_conceptIS4_E4typeEE4typeENS0_19is_interval_conceptINSC_IS6_E4typeEE4typeEE4typeEvE4typeE
__ZN5boost7polygon6assignINS0_13interval_dataIfEES3_EERT_S5_RKT0_PNS_9enable_ifINS0_7gtl_andINS0_27is_mutable_interval_conceptINS0_16geometry_conceptIS4_E4typeEE4typeENS0_19is_interval_conceptINSC_IS6_E4typeEE4typeEE4typeEvE4typeE:
LFB12051:
	mflr r0
LCFI52:
	li r5,0
	stmw r29,-12(r1)
LCFI53:
	mr r29,r3
	stw r0,8(r1)
LCFI54:
	stwu r1,-96(r1)
LCFI55:
	addi r3,r1,56
	bl L__ZN5boost7polygon14copy_constructINS0_13interval_dataIfEES3_EET_RKT0_PNS_9enable_ifINS0_7gtl_andINS0_27is_mutable_interval_conceptINS0_16geometry_conceptIS4_E4typeEE4typeENS0_19is_interval_conceptINSB_IS5_E4typeEE4typeEE4typeEvE4typeE$stub
	lfs f13,60(r1)
	lfs f0,56(r1)
	addi r1,r1,96
	mr r3,r29
	stfs f0,0(r29)
	stfs f13,4(r29)
	lwz r0,8(r1)
	lmw r29,-12(r1)
	mtlr r0
	blr
LFE12051:
	.align 2
	.p2align 4,,15
	.globl __ZN5boost7polygon3setINS0_14rectangle_dataIfEENS0_13interval_dataIfEEEENS_9enable_ifINS0_9gtl_and_3INS0_8y_r_set2ENS0_28is_mutable_rectangle_conceptINS0_16geometry_conceptIT_E4typeEE4typeENS0_19is_interval_conceptINSA_IT0_E4typeEE4typeEE4typeEvE4typeERSB_NS0_14orientation_2dERKSH_
	.weak_definition __ZN5boost7polygon3setINS0_14rectangle_dataIfEENS0_13interval_dataIfEEEENS_9enable_ifINS0_9gtl_and_3INS0_8y_r_set2ENS0_28is_mutable_rectangle_conceptINS0_16geometry_conceptIT_E4typeEE4typeENS0_19is_interval_conceptINSA_IT0_E4typeEE4typeEE4typeEvE4typeERSB_NS0_14orientation_2dERKSH_
	.private_extern __ZN5boost7polygon3setINS0_14rectangle_dataIfEENS0_13interval_dataIfEEEENS_9enable_ifINS0_9gtl_and_3INS0_8y_r_set2ENS0_28is_mutable_rectangle_conceptINS0_16geometry_conceptIT_E4typeEE4typeENS0_19is_interval_conceptINSA_IT0_E4typeEE4typeEE4typeEvE4typeERSB_NS0_14orientation_2dERKSH_
__ZN5boost7polygon3setINS0_14rectangle_dataIfEENS0_13interval_dataIfEEEENS_9enable_ifINS0_9gtl_and_3INS0_8y_r_set2ENS0_28is_mutable_rectangle_conceptINS0_16geometry_conceptIT_E4typeEE4typeENS0_19is_interval_conceptINSA_IT0_E4typeEE4typeEE4typeEvE4typeERSB_NS0_14orientation_2dERKSH_:
LFB9497:
	lwz r0,0(r4)
	mr r4,r5
	li r5,0
	slwi r0,r0,3
	add r3,r3,r0
	b L__ZN5boost7polygon6assignINS0_13interval_dataIfEES3_EERT_S5_RKT0_PNS_9enable_ifINS0_7gtl_andINS0_27is_mutable_interval_conceptINS0_16geometry_conceptIS4_E4typeEE4typeENS0_19is_interval_conceptINSC_IS6_E4typeEE4typeEE4typeEvE4typeE$stub
LFE9497:
	.align 2
	.p2align 4,,15
	.globl __ZN5boost7polygon6assignINS0_14rectangle_dataIfEES3_EERNS_9enable_ifINS0_9gtl_and_3INS0_10y_r_assignENS0_28is_mutable_rectangle_conceptINS0_16geometry_conceptIT_E4typeEE4typeENS0_20is_rectangle_conceptINS8_IT0_E4typeEE4typeEE4typeES9_E4typeERS9_RKSF_
	.weak_definition __ZN5boost7polygon6assignINS0_14rectangle_dataIfEES3_EERNS_9enable_ifINS0_9gtl_and_3INS0_10y_r_assignENS0_28is_mutable_rectangle_conceptINS0_16geometry_conceptIT_E4typeEE4typeENS0_20is_rectangle_conceptINS8_IT0_E4typeEE4typeEE4typeES9_E4typeERS9_RKSF_
	.private_extern __ZN5boost7polygon6assignINS0_14rectangle_dataIfEES3_EERNS_9enable_ifINS0_9gtl_and_3INS0_10y_r_assignENS0_28is_mutable_rectangle_conceptINS0_16geometry_conceptIT_E4typeEE4typeENS0_20is_rectangle_conceptINS8_IT0_E4typeEE4typeEE4typeES9_E4typeERS9_RKSF_
__ZN5boost7polygon6assignINS0_14rectangle_dataIfEES3_EERNS_9enable_ifINS0_9gtl_and_3INS0_10y_r_assignENS0_28is_mutable_rectangle_conceptINS0_16geometry_conceptIT_E4typeEE4typeENS0_20is_rectangle_conceptINS8_IT0_E4typeEE4typeEE4typeES9_E4typeERS9_RKSF_:
LFB11598:
	mflr r0
LCFI56:
	li r6,0
	stmw r27,-20(r1)
LCFI57:
	mr r29,r3
	stw r0,8(r1)
LCFI58:
	stwu r1,-128(r1)
LCFI59:
	li r0,0
	mr r28,r4
	addi r27,r1,72
	addi r5,r1,56
	stw r0,56(r1)
	stw r0,60(r1)
	mr r3,r27
	bl L__ZN5boost7polygon3getINS0_14rectangle_dataIfEEEENS0_23rectangle_interval_typeIT_E4typeERKS5_NS0_14orientation_2dEPNS_9enable_ifINS0_6gtl_ifINS0_20is_rectangle_conceptINS0_16geometry_conceptIS5_E4typeEE4typeEE4typeEvE4typeE$stub
	mr r3,r29
	mr r5,r27
	addi r4,r1,60
	addi r27,r1,80
	bl L__ZN5boost7polygon3setINS0_14rectangle_dataIfEENS0_13interval_dataIfEEEENS_9enable_ifINS0_9gtl_and_3INS0_8y_r_set2ENS0_28is_mutable_rectangle_conceptINS0_16geometry_conceptIT_E4typeEE4typeENS0_19is_interval_conceptINSA_IT0_E4typeEE4typeEE4typeEvE4typeERSB_NS0_14orientation_2dERKSH_$stub
	li r0,1
	mr r4,r28
	addi r5,r1,64
	mr r3,r27
	li r6,0
	stw r0,64(r1)
	stw r0,68(r1)
	bl L__ZN5boost7polygon3getINS0_14rectangle_dataIfEEEENS0_23rectangle_interval_typeIT_E4typeERKS5_NS0_14orientation_2dEPNS_9enable_ifINS0_6gtl_ifINS0_20is_rectangle_conceptINS0_16geometry_conceptIS5_E4typeEE4typeEE4typeEvE4typeE$stub
	mr r3,r29
	mr r5,r27
	addi r4,r1,68
	bl L__ZN5boost7polygon3setINS0_14rectangle_dataIfEENS0_13interval_dataIfEEEENS_9enable_ifINS0_9gtl_and_3INS0_8y_r_set2ENS0_28is_mutable_rectangle_conceptINS0_16geometry_conceptIT_E4typeEE4typeENS0_19is_interval_conceptINSA_IT0_E4typeEE4typeEE4typeEvE4typeERSB_NS0_14orientation_2dERKSH_$stub
	addi r1,r1,128
	mr r3,r29
	lwz r0,8(r1)
	lmw r27,-20(r1)
	mtlr r0
	blr
LFE11598:
	.align 2
	.p2align 4,,15
	.globl __ZSt8_DestroyIN9__gnu_cxx17__normal_iteratorIPN5boost7polygon14rectangle_dataIfEESt6vectorIS5_SaIS5_EEEES8_EvT_SB_T0_
	.weak_definition __ZSt8_DestroyIN9__gnu_cxx17__normal_iteratorIPN5boost7polygon14rectangle_dataIfEESt6vectorIS5_SaIS5_EEEES8_EvT_SB_T0_
	.private_extern __ZSt8_DestroyIN9__gnu_cxx17__normal_iteratorIPN5boost7polygon14rectangle_dataIfEESt6vectorIS5_SaIS5_EEEES8_EvT_SB_T0_
__ZSt8_DestroyIN9__gnu_cxx17__normal_iteratorIPN5boost7polygon14rectangle_dataIfEESt6vectorIS5_SaIS5_EEEES8_EvT_SB_T0_:
LFB13223:
	blr
LFE13223:
	.align 2
	.p2align 4,,15
	.globl __ZSt21__unguarded_partitionIN9__gnu_cxx17__normal_iteratorIPSt4pairIfS2_IfiEESt6vectorIS4_SaIS4_EEEES4_ET_SA_SA_T0_
	.weak_definition __ZSt21__unguarded_partitionIN9__gnu_cxx17__normal_iteratorIPSt4pairIfS2_IfiEESt6vectorIS4_SaIS4_EEEES4_ET_SA_SA_T0_
	.private_extern __ZSt21__unguarded_partitionIN9__gnu_cxx17__normal_iteratorIPSt4pairIfS2_IfiEESt6vectorIS4_SaIS4_EEEES4_ET_SA_SA_T0_
__ZSt21__unguarded_partitionIN9__gnu_cxx17__normal_iteratorIPSt4pairIfS2_IfiEESt6vectorIS4_SaIS4_EEEES4_ET_SA_SA_T0_:
LFB13409:
	stw r6,36(r1)
	stw r7,40(r1)
	stw r8,44(r1)
	nop
	lfs f12,36(r1)
	lfs f11,40(r1)
L142:
	mr r7,r4
	b L143
	.p2align 4,,15
L144:
	addi r7,r7,12
L143:
	lfs f0,0(r7)
	fcmpu cr7,f0,f12
	blt cr7,L144
	bgt cr7,L146
	lfs f0,4(r7)
	fcmpu cr7,f0,f11
	blt cr7,L144
	bgt cr7,L146
	lwz r0,8(r7)
	cmpw cr7,r0,r8
	blt cr7,L144
L146:
	addi r10,r5,-12
	b L150
	.p2align 4,,15
L151:
	addi r10,r10,-12
L150:
	lfs f0,0(r10)
	mr r5,r10
	fcmpu cr7,f0,f12
	bgt cr7,L151
	blt cr7,L153
	lfs f0,4(r10)
	fcmpu cr7,f0,f11
	bgt cr7,L151
	blt cr7,L153
	lwz r0,8(r10)
	cmpw cr7,r0,r8
	bgt cr7,L151
L153:
	cmplw cr7,r10,r7
	ble cr7,L160
	lfs f13,4(r7)
	lfs f0,0(r7)
	addi r4,r7,12
	lwz r0,0(r10)
	lwz r2,4(r10)
	lwz r9,8(r10)
	lwz r11,8(r7)
	stw r0,0(r7)
	stw r2,4(r7)
	stw r9,8(r7)
	stfs f0,0(r10)
	stw r11,8(r10)
	stfs f13,4(r10)
	b L142
L160:
	stw r7,0(r3)
	blr
LFE13409:
	.align 2
	.p2align 4,,15
	.globl __ZSt25__unguarded_linear_insertIN9__gnu_cxx17__normal_iteratorIPSt4pairIfS2_IfiEESt6vectorIS4_SaIS4_EEEES4_EvT_T0_
	.weak_definition __ZSt25__unguarded_linear_insertIN9__gnu_cxx17__normal_iteratorIPSt4pairIfS2_IfiEESt6vectorIS4_SaIS4_EEEES4_EvT_T0_
	.private_extern __ZSt25__unguarded_linear_insertIN9__gnu_cxx17__normal_iteratorIPSt4pairIfS2_IfiEESt6vectorIS4_SaIS4_EEEES4_EvT_T0_
__ZSt25__unguarded_linear_insertIN9__gnu_cxx17__normal_iteratorIPSt4pairIfS2_IfiEESt6vectorIS4_SaIS4_EEEES4_EvT_T0_:
LFB13692:
	stw r4,28(r1)
	stw r5,32(r1)
	mr r8,r6
	addi r11,r3,-12
	stw r6,36(r1)
	lfs f13,28(r1)
	lfs f12,32(r1)
	b L162
	.p2align 4,,15
L163:
	lwz r0,0(r11)
	lwz r2,4(r11)
	lwz r9,8(r11)
	addi r11,r11,-12
	stw r0,0(r3)
	stw r2,4(r3)
	stw r9,8(r3)
	mr r3,r10
L162:
	lfs f0,0(r11)
	mr r10,r11
	fcmpu cr7,f0,f13
	bgt cr7,L163
	blt cr7,L165
	lfs f0,4(r11)
	fcmpu cr7,f0,f12
	bgt cr7,L163
	blt cr7,L165
	lwz r0,8(r11)
	cmpw cr7,r0,r8
	bgt cr7,L163
L165:
	stfs f13,0(r3)
	stw r8,8(r3)
	stfs f12,4(r3)
	blr
LFE13692:
	.align 2
	.p2align 4,,15
	.globl __ZNSt6vectorISt4pairIN5boost7polygon13interval_dataIfEEiESaIS5_EE5eraseEN9__gnu_cxx17__normal_iteratorIPS5_S7_EESB_
	.weak_definition __ZNSt6vectorISt4pairIN5boost7polygon13interval_dataIfEEiESaIS5_EE5eraseEN9__gnu_cxx17__normal_iteratorIPS5_S7_EESB_
	.private_extern __ZNSt6vectorISt4pairIN5boost7polygon13interval_dataIfEEiESaIS5_EE5eraseEN9__gnu_cxx17__normal_iteratorIPS5_S7_EESB_
__ZNSt6vectorISt4pairIN5boost7polygon13interval_dataIfEEiESaIS5_EE5eraseEN9__gnu_cxx17__normal_iteratorIPS5_S7_EESB_:
LFB11982:
	mflr r0
LCFI60:
	stmw r27,-20(r1)
LCFI61:
	mr r28,r4
	stw r0,8(r1)
LCFI62:
	stwu r1,-112(r1)
LCFI63:
	lis r0,0xaaaa
	ori r0,r0,43691
	mr r27,r3
	mr r29,r6
	mr r30,r5
	mr r3,r5
	lwz r4,4(r4)
	subf r2,r6,r4
	srawi r2,r2,2
	mullw. r2,r2,r0
	ble cr0,L171
	mtctr r2
	mr r11,r5
	mr r9,r6
	.p2align 4,,15
L173:
	lfs f0,0(r9)
	lwz r0,8(r9)
	stw r0,8(r11)
	stfs f0,0(r11)
	lfs f0,4(r9)
	addi r9,r9,12
	stfs f0,4(r11)
	addi r11,r11,12
	bdnz L173
	mulli r0,r2,12
	lwz r4,4(r28)
	add r3,r30,r0
L171:
	addi r5,r1,56
	bl L__ZSt8_DestroyIN9__gnu_cxx17__normal_iteratorIPSt4pairIN5boost7polygon13interval_dataIfEEiESt6vectorIS7_SaIS7_EEEESA_EvT_SD_T0_$stub
	lwz r2,4(r28)
	subf r0,r30,r29
	addi r1,r1,112
	mr r3,r27
	rlwinm r0,r0,0,0,29
	subf r2,r0,r2
	stw r2,4(r28)
	stw r30,0(r27)
	lwz r0,8(r1)
	lmw r27,-20(r1)
	mtlr r0
	blr
LFE11982:
	.align 2
	.p2align 4,,15
	.globl __ZSt16__insertion_sortIN9__gnu_cxx17__normal_iteratorIPSt4pairIfS2_IfiEESt6vectorIS4_SaIS4_EEEEEvT_SA_
	.weak_definition __ZSt16__insertion_sortIN9__gnu_cxx17__normal_iteratorIPSt4pairIfS2_IfiEESt6vectorIS4_SaIS4_EEEEEvT_SA_
	.private_extern __ZSt16__insertion_sortIN9__gnu_cxx17__normal_iteratorIPSt4pairIfS2_IfiEESt6vectorIS4_SaIS4_EEEEEvT_SA_
__ZSt16__insertion_sortIN9__gnu_cxx17__normal_iteratorIPSt4pairIfS2_IfiEESt6vectorIS4_SaIS4_EEEEEvT_SA_:
LFB13410:
	mflr r0
LCFI64:
	cmpw cr7,r4,r3
	stmw r26,-24(r1)
LCFI65:
	mr r26,r4
	stw r0,8(r1)
LCFI66:
	mr r30,r3
	stwu r1,-112(r1)
LCFI67:
	beq cr7,L194
	addi r2,r3,12
	cmpw cr7,r2,r4
	beq cr7,L194
	lis r27,0xaaaa
	addi r28,r3,24
	ori r27,r27,43691
	.p2align 4,,15
L182:
	lfs f13,0(r2)
	lfs f0,0(r30)
	mr r29,r28
	addi r3,r28,-12
	lwz r10,8(r2)
	lfs f12,4(r2)
	fcmpu cr7,f0,f13
	bgt cr7,L183
	blt cr7,L185
	lfs f0,4(r30)
	fcmpu cr7,f0,f12
	bgt cr7,L183
	blt cr7,L185
	lwz r0,8(r30)
	cmpw cr7,r0,r10
	ble cr7,L185
	.p2align 4,,15
L183:
	subf r0,r30,r3
	srawi r0,r0,2
	mullw. r2,r0,r27
	mtctr r2
	ble cr0,L189
	mr r11,r28
	.p2align 4,,15
L191:
	lwz r0,-12(r3)
	lwz r2,-8(r3)
	lwz r9,-4(r3)
	addi r3,r3,-12
	stw r0,-12(r11)
	stw r2,-8(r11)
	stw r9,-4(r11)
	addi r11,r11,-12
	bdnz L191
L189:
	stw r10,8(r30)
	stfs f12,4(r30)
	stfs f13,0(r30)
	b L192
L185:
	stfs f12,60(r1)
	stfs f13,56(r1)
	mr r6,r10
	stw r10,64(r1)
	lwz r5,60(r1)
	lwz r4,56(r1)
	bl L__ZSt25__unguarded_linear_insertIN9__gnu_cxx17__normal_iteratorIPSt4pairIfS2_IfiEESt6vectorIS4_SaIS4_EEEES4_EvT_T0_$stub
	.p2align 4,,15
L192:
	cmpw cr7,r26,r29
	addi r28,r28,12
	beq cr7,L194
	mr r2,r29
	b L182
L194:
	addi r1,r1,112
	lwz r0,8(r1)
	lmw r26,-24(r1)
	mtlr r0
	blr
LFE13410:
	.align 2
	.p2align 4,,15
	.globl __ZSt22__final_insertion_sortIN9__gnu_cxx17__normal_iteratorIPSt4pairIfS2_IfiEESt6vectorIS4_SaIS4_EEEEEvT_SA_
	.weak_definition __ZSt22__final_insertion_sortIN9__gnu_cxx17__normal_iteratorIPSt4pairIfS2_IfiEESt6vectorIS4_SaIS4_EEEEEvT_SA_
	.private_extern __ZSt22__final_insertion_sortIN9__gnu_cxx17__normal_iteratorIPSt4pairIfS2_IfiEESt6vectorIS4_SaIS4_EEEEEvT_SA_
__ZSt22__final_insertion_sortIN9__gnu_cxx17__normal_iteratorIPSt4pairIfS2_IfiEESt6vectorIS4_SaIS4_EEEEEvT_SA_:
LFB13035:
	mflr r0
LCFI68:
	subf r2,r3,r4
	stmw r29,-12(r1)
LCFI69:
	srawi r2,r2,2
	stw r0,8(r1)
LCFI70:
	lis r0,0xaaaa
	stwu r1,-96(r1)
LCFI71:
	ori r0,r0,43691
	mr r29,r4
	mullw r2,r2,r0
	cmpwi cr7,r2,16
	ble cr7,L197
	addi r4,r3,192
	mr r30,r4
	bl L__ZSt16__insertion_sortIN9__gnu_cxx17__normal_iteratorIPSt4pairIfS2_IfiEESt6vectorIS4_SaIS4_EEEEEvT_SA_$stub
	cmpw cr7,r29,r30
	beq cr7,L201
	.p2align 4,,15
L202:
	lwz r0,0(r30)
	lwz r2,4(r30)
	mr r3,r30
	lwz r9,8(r30)
	addi r30,r30,12
	mr r4,r0
	mr r5,r2
	stw r0,56(r1)
	stw r2,60(r1)
	stw r9,64(r1)
	mr r6,r9
	bl L__ZSt25__unguarded_linear_insertIN9__gnu_cxx17__normal_iteratorIPSt4pairIfS2_IfiEESt6vectorIS4_SaIS4_EEEES4_EvT_T0_$stub
	cmpw cr7,r30,r29
	bne cr7,L202
	b L201
L197:
	addi r1,r1,96
	lwz r0,8(r1)
	lmw r29,-12(r1)
	mtlr r0
	b L__ZSt16__insertion_sortIN9__gnu_cxx17__normal_iteratorIPSt4pairIfS2_IfiEESt6vectorIS4_SaIS4_EEEEEvT_SA_$stub
L201:
	addi r1,r1,96
	lwz r0,8(r1)
	lmw r29,-12(r1)
	mtlr r0
	blr
LFE13035:
	.align 2
	.p2align 4,,15
	.globl __ZSt11__push_heapIN9__gnu_cxx17__normal_iteratorIPSt4pairIfS2_IfiEESt6vectorIS4_SaIS4_EEEEiS4_EvT_T0_SB_T1_
	.weak_definition __ZSt11__push_heapIN9__gnu_cxx17__normal_iteratorIPSt4pairIfS2_IfiEESt6vectorIS4_SaIS4_EEEEiS4_EvT_T0_SB_T1_
	.private_extern __ZSt11__push_heapIN9__gnu_cxx17__normal_iteratorIPSt4pairIfS2_IfiEESt6vectorIS4_SaIS4_EEEEiS4_EvT_T0_SB_T1_
__ZSt11__push_heapIN9__gnu_cxx17__normal_iteratorIPSt4pairIfS2_IfiEESt6vectorIS4_SaIS4_EEEEiS4_EvT_T0_SB_T1_:
LFB14013:
	stw r6,36(r1)
	stw r7,40(r1)
	cmpw cr7,r4,r5
	mr r9,r4
	stw r8,44(r1)
	lfs f13,36(r1)
	lfs f12,40(r1)
	ble cr7,L221
	addi r0,r4,-1
	srawi r7,r0,1
	addze r7,r7
	b L207
	.p2align 4,,15
L209:
	mulli r9,r9,12
	cmpw cr7,r5,r7
	lwz r0,0(r4)
	lwz r11,4(r4)
	lwz r10,8(r4)
	add r2,r9,r3
	stwx r0,r9,r3
	stw r11,4(r2)
	stw r10,8(r2)
	bge cr7,L208
	addi r0,r7,-1
	mr r9,r7
	srawi r7,r0,1
	addze r7,r7
L207:
	mulli r2,r7,12
	lfsx f0,r2,r3
	add r4,r2,r3
	fcmpu cr7,f13,f0
	bgt cr7,L209
	blt cr7,L221
	lfs f0,4(r4)
	fcmpu cr7,f0,f12
	blt cr7,L209
	bgt cr7,L221
	lwz r0,8(r4)
	cmpw cr7,r0,r8
	blt cr7,L209
L221:
	mulli r0,r9,12
	add r4,r0,r3
L208:
	stfs f13,0(r4)
	stw r8,8(r4)
	stfs f12,4(r4)
	blr
LFE14013:
	.align 2
	.p2align 4,,15
	.globl __ZSt13__adjust_heapIN9__gnu_cxx17__normal_iteratorIPSt4pairIfS2_IfiEESt6vectorIS4_SaIS4_EEEEiS4_EvT_T0_SB_T1_
	.weak_definition __ZSt13__adjust_heapIN9__gnu_cxx17__normal_iteratorIPSt4pairIfS2_IfiEESt6vectorIS4_SaIS4_EEEEiS4_EvT_T0_SB_T1_
	.private_extern __ZSt13__adjust_heapIN9__gnu_cxx17__normal_iteratorIPSt4pairIfS2_IfiEESt6vectorIS4_SaIS4_EEEEiS4_EvT_T0_SB_T1_
__ZSt13__adjust_heapIN9__gnu_cxx17__normal_iteratorIPSt4pairIfS2_IfiEESt6vectorIS4_SaIS4_EEEEiS4_EvT_T0_SB_T1_:
LFB13878:
	addi r0,r4,1
	stw r6,36(r1)
	mr r12,r4
	stw r7,40(r1)
	stw r8,44(r1)
	slwi r6,r0,1
	cmpw cr7,r6,r5
	bge cr7,L225
	mr r8,r4
	.p2align 4,,15
L243:
	addi r11,r6,-1
	mulli r9,r6,12
	mr r4,r6
	mulli r2,r11,12
	lfsx f13,r9,r3
	add r9,r9,r3
	lfsx f0,r2,r3
	add r7,r2,r3
	fcmpu cr7,f13,f0
	blt cr7,L227
	bgt cr7,L245
	lfs f13,4(r9)
	lfs f0,4(r7)
	fcmpu cr7,f13,f0
	blt cr7,L227
	bgt cr7,L245
	lwz r0,8(r9)
	lwz r2,8(r7)
	cmpw cr7,r0,r2
	blt cr7,L227
	.p2align 4,,15
L245:
	mr r7,r9
	b L232
	.p2align 4,,15
L227:
	mr r4,r11
L232:
	addi r0,r4,1
	mulli r11,r8,12
	lwz r10,8(r7)
	lwz r9,4(r7)
	mr r8,r4
	slwi r6,r0,1
	lwz r0,0(r7)
	cmpw cr7,r5,r6
	add r2,r11,r3
	stwx r0,r11,r3
	stw r10,8(r2)
	stw r9,4(r2)
	bgt cr7,L243
	cmpw cr7,r6,r5
L225:
	bne cr7,L240
	addi r0,r6,-1
	mulli r8,r4,12
	mulli r9,r0,12
	mr r4,r0
	add r10,r8,r3
	add r2,r9,r3
	lwzx r0,r9,r3
	lwz r11,8(r2)
	lwz r9,4(r2)
	stwx r0,r8,r3
	stw r11,8(r10)
	stw r9,4(r10)
L240:
	lwz r6,36(r1)
	lwz r7,40(r1)
	mr r5,r12
	lwz r8,44(r1)
	b L__ZSt11__push_heapIN9__gnu_cxx17__normal_iteratorIPSt4pairIfS2_IfiEESt6vectorIS4_SaIS4_EEEEiS4_EvT_T0_SB_T1_$stub
LFE13878:
	.align 2
	.p2align 4,,15
	.globl __ZSt9make_heapIN9__gnu_cxx17__normal_iteratorIPSt4pairIfS2_IfiEESt6vectorIS4_SaIS4_EEEEEvT_SA_
	.weak_definition __ZSt9make_heapIN9__gnu_cxx17__normal_iteratorIPSt4pairIfS2_IfiEESt6vectorIS4_SaIS4_EEEEEvT_SA_
	.private_extern __ZSt9make_heapIN9__gnu_cxx17__normal_iteratorIPSt4pairIfS2_IfiEESt6vectorIS4_SaIS4_EEEEEvT_SA_
__ZSt9make_heapIN9__gnu_cxx17__normal_iteratorIPSt4pairIfS2_IfiEESt6vectorIS4_SaIS4_EEEEEvT_SA_:
LFB13684:
	mflr r0
LCFI72:
	subf r4,r3,r4
	stmw r27,-20(r1)
LCFI73:
	srawi r4,r4,2
	stw r0,8(r1)
LCFI74:
	lis r0,0xaaaa
	stwu r1,-112(r1)
LCFI75:
	ori r0,r0,43691
	mr r27,r3
	mullw r28,r4,r0
	cmpwi cr7,r28,1
	ble cr7,L251
	addi r0,r28,-2
	srawi r29,r0,1
	addze r29,r29
	mulli r2,r29,12
	add r30,r3,r2
	.p2align 4,,15
L249:
	lwz r0,0(r30)
	lwz r2,4(r30)
	mr r3,r27
	mr r4,r29
	lwz r9,8(r30)
	mr r5,r28
	addi r30,r30,-12
	mr r6,r0
	mr r7,r2
	stw r0,56(r1)
	stw r2,60(r1)
	stw r9,64(r1)
	mr r8,r9
	bl L__ZSt13__adjust_heapIN9__gnu_cxx17__normal_iteratorIPSt4pairIfS2_IfiEESt6vectorIS4_SaIS4_EEEEiS4_EvT_T0_SB_T1_$stub
	cmpwi cr7,r29,0
	beq cr7,L251
	addi r29,r29,-1
	b L249
	.p2align 4,,15
L251:
	addi r1,r1,112
	lwz r0,8(r1)
	lmw r27,-20(r1)
	mtlr r0
	blr
LFE13684:
	.align 2
	.p2align 4,,15
	.globl __ZN5boost6detail17sp_counted_impl_pINS_16exception_detail10clone_implINS2_14bad_exception_EEEE11get_deleterERKSt9type_info
	.weak_definition __ZN5boost6detail17sp_counted_impl_pINS_16exception_detail10clone_implINS2_14bad_exception_EEEE11get_deleterERKSt9type_info
	.private_extern __ZN5boost6detail17sp_counted_impl_pINS_16exception_detail10clone_implINS2_14bad_exception_EEEE11get_deleterERKSt9type_info
__ZN5boost6detail17sp_counted_impl_pINS_16exception_detail10clone_implINS2_14bad_exception_EEEE11get_deleterERKSt9type_info:
LFB14180:
	li r3,0
	blr
LFE14180:
	.align 2
	.p2align 4,,15
	.globl __ZN5boost6detail17sp_counted_impl_pINS_16exception_detail10clone_implINS2_10bad_alloc_EEEE11get_deleterERKSt9type_info
	.weak_definition __ZN5boost6detail17sp_counted_impl_pINS_16exception_detail10clone_implINS2_10bad_alloc_EEEE11get_deleterERKSt9type_info
	.private_extern __ZN5boost6detail17sp_counted_impl_pINS_16exception_detail10clone_implINS2_10bad_alloc_EEEE11get_deleterERKSt9type_info
__ZN5boost6detail17sp_counted_impl_pINS_16exception_detail10clone_implINS2_10bad_alloc_EEEE11get_deleterERKSt9type_info:
LFB14182:
	li r3,0
	blr
LFE14182:
	.align 2
	.p2align 4,,15
	.globl __ZNSt8_Rb_treeIfSt4pairIKfiESt10_Select1stIS2_ESt4lessIfESaIS2_EE8_M_eraseEPSt13_Rb_tree_nodeIS2_E
	.weak_definition __ZNSt8_Rb_treeIfSt4pairIKfiESt10_Select1stIS2_ESt4lessIfESaIS2_EE8_M_eraseEPSt13_Rb_tree_nodeIS2_E
	.private_extern __ZNSt8_Rb_treeIfSt4pairIKfiESt10_Select1stIS2_ESt4lessIfESaIS2_EE8_M_eraseEPSt13_Rb_tree_nodeIS2_E
__ZNSt8_Rb_treeIfSt4pairIKfiESt10_Select1stIS2_ESt4lessIfESaIS2_EE8_M_eraseEPSt13_Rb_tree_nodeIS2_E:
LFB11955:
	mflr r0
LCFI76:
	stmw r28,-16(r1)
LCFI77:
	mr r28,r3
	mr. r30,r4
	stw r0,8(r1)
LCFI78:
	stwu r1,-80(r1)
LCFI79:
	beq cr0,L259
	.p2align 4,,15
L260:
	lwz r4,12(r30)
	mr r3,r28
	bl L__ZNSt8_Rb_treeIfSt4pairIKfiESt10_Select1stIS2_ESt4lessIfESaIS2_EE8_M_eraseEPSt13_Rb_tree_nodeIS2_E$stub
	lwz r29,8(r30)
	mr r3,r30
	bl L__ZdlPv$stub
	cmpwi cr7,r29,0
	mr r30,r29
	bne cr7,L260
L259:
	addi r1,r1,80
	lwz r0,8(r1)
	lmw r28,-16(r1)
	mtlr r0
	blr
LFE11955:
	.align 2
	.p2align 4,,15
	.globl __ZNSt8_Rb_treeIN5boost7polygon14rectangle_dataIfEES3_St9_IdentityIS3_ENS1_22less_rectangle_conceptIS3_S3_EESaIS3_EE8_M_eraseEPSt13_Rb_tree_nodeIS3_E
	.weak_definition __ZNSt8_Rb_treeIN5boost7polygon14rectangle_dataIfEES3_St9_IdentityIS3_ENS1_22less_rectangle_conceptIS3_S3_EESaIS3_EE8_M_eraseEPSt13_Rb_tree_nodeIS3_E
	.private_extern __ZNSt8_Rb_treeIN5boost7polygon14rectangle_dataIfEES3_St9_IdentityIS3_ENS1_22less_rectangle_conceptIS3_S3_EESaIS3_EE8_M_eraseEPSt13_Rb_tree_nodeIS3_E
__ZNSt8_Rb_treeIN5boost7polygon14rectangle_dataIfEES3_St9_IdentityIS3_ENS1_22less_rectangle_conceptIS3_S3_EESaIS3_EE8_M_eraseEPSt13_Rb_tree_nodeIS3_E:
LFB11602:
	mflr r0
LCFI80:
	stmw r28,-16(r1)
LCFI81:
	mr r28,r3
	mr. r30,r4
	stw r0,8(r1)
LCFI82:
	stwu r1,-80(r1)
LCFI83:
	beq cr0,L265
	.p2align 4,,15
L266:
	lwz r4,12(r30)
	mr r3,r28
	bl L__ZNSt8_Rb_treeIN5boost7polygon14rectangle_dataIfEES3_St9_IdentityIS3_ENS1_22less_rectangle_conceptIS3_S3_EESaIS3_EE8_M_eraseEPSt13_Rb_tree_nodeIS3_E$stub
	lwz r29,8(r30)
	mr r3,r30
	bl L__ZdlPv$stub
	cmpwi cr7,r29,0
	mr r30,r29
	bne cr7,L266
L265:
	addi r1,r1,80
	lwz r0,8(r1)
	lmw r28,-16(r1)
	mtlr r0
	blr
LFE11602:
	.text
	.align 2
	.p2align 4,,15
	.globl __ZN18CocoaViewInterfaceD0Ev
	.private_extern __ZN18CocoaViewInterfaceD0Ev
__ZN18CocoaViewInterfaceD0Ev:
LFB8434:
	mflr r0
	bcl 20,31,"L00000000003$pb"
"L00000000003$pb":
	mflr r10
	mtlr r0
	addis r2,r10,ha16(__ZTV18CocoaViewInterface-"L00000000003$pb")
	la r2,lo16(__ZTV18CocoaViewInterface-"L00000000003$pb")(r2)
	addi r2,r2,8
	stw r2,0(r3)
	b L__ZdlPv$stub
LFE8434:
	.align 2
	.p2align 4,,15
	.globl __ZN18CocoaViewInterfaceD2Ev
	.private_extern __ZN18CocoaViewInterfaceD2Ev
__ZN18CocoaViewInterfaceD2Ev:
LFB8432:
	mflr r0
	bcl 20,31,"L00000000004$pb"
"L00000000004$pb":
	mflr r10
	mtlr r0
	addis r2,r10,ha16(__ZTV18CocoaViewInterface-"L00000000004$pb")
	la r2,lo16(__ZTV18CocoaViewInterface-"L00000000004$pb")(r2)
	addi r2,r2,8
	stw r2,0(r3)
	blr
LFE8432:
	.align 2
	.p2align 4,,15
	.globl __ZN18CocoaViewInterfaceD1Ev
	.private_extern __ZN18CocoaViewInterfaceD1Ev
__ZN18CocoaViewInterfaceD1Ev:
LFB8433:
	b __ZN18CocoaViewInterfaceD2Ev
LFE8433:
	.section __TEXT,__textcoal_nt,coalesced,pure_instructions
	.align 2
	.p2align 4,,15
	.globl __ZN5boost6detail15sp_counted_baseD0Ev
	.weak_definition __ZN5boost6detail15sp_counted_baseD0Ev
	.private_extern __ZN5boost6detail15sp_counted_baseD0Ev
__ZN5boost6detail15sp_counted_baseD0Ev:
LFB4483:
	mflr r0
	bcl 20,31,"L00000000005$pb"
"L00000000005$pb":
	mflr r10
	mtlr r0
	addis r2,r10,ha16(__ZTVN5boost6detail15sp_counted_baseE-"L00000000005$pb")
	la r2,lo16(__ZTVN5boost6detail15sp_counted_baseE-"L00000000005$pb")(r2)
	addi r2,r2,8
	stw r2,0(r3)
	b L__ZdlPv$stub
LFE4483:
	.align 2
	.p2align 4,,15
	.globl __ZN5boost6detail17sp_counted_impl_pINS_16exception_detail10clone_implINS2_14bad_exception_EEEED1Ev
	.weak_definition __ZN5boost6detail17sp_counted_impl_pINS_16exception_detail10clone_implINS2_14bad_exception_EEEED1Ev
	.private_extern __ZN5boost6detail17sp_counted_impl_pINS_16exception_detail10clone_implINS2_14bad_exception_EEEED1Ev
__ZN5boost6detail17sp_counted_impl_pINS_16exception_detail10clone_implINS2_14bad_exception_EEEED1Ev:
LFB14143:
	mflr r0
	bcl 20,31,"L00000000006$pb"
"L00000000006$pb":
	mflr r10
	mtlr r0
	addis r2,r10,ha16(__ZTVN5boost6detail15sp_counted_baseE-"L00000000006$pb")
	la r2,lo16(__ZTVN5boost6detail15sp_counted_baseE-"L00000000006$pb")(r2)
	addi r2,r2,8
	stw r2,0(r3)
	blr
LFE14143:
	.align 2
	.p2align 4,,15
	.globl __ZN5boost16exception_detail10clone_baseD0Ev
	.weak_definition __ZN5boost16exception_detail10clone_baseD0Ev
	.private_extern __ZN5boost16exception_detail10clone_baseD0Ev
__ZN5boost16exception_detail10clone_baseD0Ev:
LFB4462:
	mflr r0
	bcl 20,31,"L00000000007$pb"
"L00000000007$pb":
	mflr r10
	mtlr r0
	addis r2,r10,ha16(__ZTVN5boost16exception_detail10clone_baseE-"L00000000007$pb")
	la r2,lo16(__ZTVN5boost16exception_detail10clone_baseE-"L00000000007$pb")(r2)
	addi r2,r2,8
	stw r2,0(r3)
	b L__ZdlPv$stub
LFE4462:
	.align 2
	.p2align 4,,15
	.globl __ZN5boost16exception_detail10clone_baseD1Ev
	.weak_definition __ZN5boost16exception_detail10clone_baseD1Ev
	.private_extern __ZN5boost16exception_detail10clone_baseD1Ev
__ZN5boost16exception_detail10clone_baseD1Ev:
LFB4461:
	mflr r0
	bcl 20,31,"L00000000008$pb"
"L00000000008$pb":
	mflr r10
	mtlr r0
	addis r2,r10,ha16(__ZTVN5boost16exception_detail10clone_baseE-"L00000000008$pb")
	la r2,lo16(__ZTVN5boost16exception_detail10clone_baseE-"L00000000008$pb")(r2)
	addi r2,r2,8
	stw r2,0(r3)
	blr
LFE4461:
	.text
	.align 2
	.p2align 4,,15
___tcf_2:
LFB14134:
	mflr r0
	bcl 20,31,"L00000000009$pb"
"L00000000009$pb":
	mflr r10
	mtlr r0
	addis r3,r10,ha16(__ZStL8__ioinit-"L00000000009$pb")
	la r3,lo16(__ZStL8__ioinit-"L00000000009$pb")(r3)
	b L__ZNSt8ios_base4InitD1Ev$stub
LFE14134:
	.align 2
	.p2align 4,,15
	.globl __ZN8Fielding13HostViewCocoa12setModifiersERNS_4ViewEj
	.private_extern __ZN8Fielding13HostViewCocoa12setModifiersERNS_4ViewEj
__ZN8Fielding13HostViewCocoa12setModifiersERNS_4ViewEj:
LFB8481:
	b L__ZN8Fielding8HostView12setModifiersERNS_4ViewEj$stub
LFE8481:
	.align 2
	.p2align 4,,15
	.globl __ZN8Fielding13HostViewCocoa14GetNSViewFrameEP6NSView
	.private_extern __ZN8Fielding13HostViewCocoa14GetNSViewFrameEP6NSView
__ZN8Fielding13HostViewCocoa14GetNSViewFrameEP6NSView:
LFB8480:
	mflr r0
LCFI84:
	stmw r30,-8(r1)
LCFI85:
	bcl 20,31,"L00000000010$pb"
"L00000000010$pb":
	stw r0,8(r1)
LCFI86:
	stwu r1,-96(r1)
LCFI87:
	mr r30,r3
	mflr r31
	addis r5,r31,ha16(L_ZL27_OBJC_SELECTOR_REFERENCES_0-"L00000000010$pb")
	lwz r5,lo16(L_ZL27_OBJC_SELECTOR_REFERENCES_0-"L00000000010$pb")(r5)
	addi r3,r1,56
	bl L_objc_msgSend_stret$stub
	lfs f12,56(r1)
	lfs f0,64(r1)
	li r0,0
	lfs f11,60(r1)
	lfs f13,68(r1)
	stw r0,12(r30)
	stw r0,0(r30)
	stw r0,4(r30)
	stw r0,8(r30)
	fadds f0,f12,f0
	fadds f13,f11,f13
	fcmpu cr7,f12,f0
	fmr f10,f0
	bgt cr7,L296
	fmr f10,f12
	fmr f12,f0
L296:
	fcmpu cr7,f11,f13
	fmr f0,f13
	bgt cr7,L300
	fmr f0,f11
	fmr f11,f13
	.p2align 4,,15
L300:
	stfs f10,0(r30)
	stfs f12,4(r30)
	addi r1,r1,96
	mr r3,r30
	stfs f0,8(r30)
	stfs f11,12(r30)
	lwz r0,8(r1)
	lmw r30,-8(r1)
	mtlr r0
	blr
LFE8480:
	.section __TEXT,__textcoal_nt,coalesced,pure_instructions
	.align 2
	.p2align 4,,15
	.globl __ZNSt8_Rb_treeIfSt4pairIKfiESt10_Select1stIS2_ESt4lessIfESaIS2_EE9_M_insertEPSt18_Rb_tree_node_baseSA_RKS2_
	.weak_definition __ZNSt8_Rb_treeIfSt4pairIKfiESt10_Select1stIS2_ESt4lessIfESaIS2_EE9_M_insertEPSt18_Rb_tree_node_baseSA_RKS2_
	.private_extern __ZNSt8_Rb_treeIfSt4pairIKfiESt10_Select1stIS2_ESt4lessIfESaIS2_EE9_M_insertEPSt18_Rb_tree_node_baseSA_RKS2_
__ZNSt8_Rb_treeIfSt4pairIKfiESt10_Select1stIS2_ESt4lessIfESaIS2_EE9_M_insertEPSt18_Rb_tree_node_baseSA_RKS2_:
LFB13431:
	mflr r0
LCFI88:
	stmw r25,-28(r1)
LCFI89:
	mr r25,r3
	stw r0,8(r1)
LCFI90:
	stwu r1,-96(r1)
LCFI91:
	li r3,24
	mr r28,r4
	mr r26,r5
	mr r27,r6
	mr r29,r7
	bl L__Znwm$stub
	cmpwi cr7,r3,-16
	mr r30,r3
	beq cr7,L303
	lwz r0,0(r29)
	lwz r2,4(r29)
	stw r0,16(r3)
	stw r2,20(r3)
L303:
	cmpwi cr7,r26,0
	addi r6,r28,4
	bne cr7,L305
	cmpw cr7,r6,r27
	beq cr7,L305
	lfs f0,0(r29)
	lfs f13,16(r27)
	fcmpu cr7,f0,f13
	mfcr r3
	rlwinm r3,r3,29,1
	b L308
	.p2align 4,,15
L305:
	li r3,1
L308:
	mr r5,r27
	mr r4,r30
	bl L__ZSt29_Rb_tree_insert_and_rebalancebPSt18_Rb_tree_node_baseS0_RS_$stub
	lwz r2,20(r28)
	addi r1,r1,96
	mr r3,r25
	addi r2,r2,1
	stw r2,20(r28)
	stw r30,0(r25)
	lwz r0,8(r1)
	lmw r25,-28(r1)
	mtlr r0
	blr
LFE13431:
	.align 2
	.p2align 4,,15
	.globl __ZN5boost16thread_exceptionD0Ev
	.weak_definition __ZN5boost16thread_exceptionD0Ev
	.private_extern __ZN5boost16thread_exceptionD0Ev
__ZN5boost16thread_exceptionD0Ev:
LFB4362:
	mflr r0
LCFI92:
	bcl 20,31,"L00000000011$pb"
"L00000000011$pb":
	stmw r29,-12(r1)
LCFI93:
	mflr r31
	stw r0,8(r1)
LCFI94:
	stwu r1,-80(r1)
LCFI95:
	mr r29,r3
	addis r2,r31,ha16(__ZTVN5boost16thread_exceptionE-"L00000000011$pb")
	la r2,lo16(__ZTVN5boost16thread_exceptionE-"L00000000011$pb")(r2)
	addi r2,r2,8
	stw r2,0(r3)
	bl L__ZNSt9exceptionD2Ev$stub
	addi r1,r1,80
	mr r3,r29
	lwz r0,8(r1)
	lmw r29,-12(r1)
	mtlr r0
	b L__ZdlPv$stub
LFE4362:
	.align 2
	.p2align 4,,15
	.globl __ZN5boost16thread_exceptionD1Ev
	.weak_definition __ZN5boost16thread_exceptionD1Ev
	.private_extern __ZN5boost16thread_exceptionD1Ev
__ZN5boost16thread_exceptionD1Ev:
LFB4361:
	mflr r0
	bcl 20,31,"L00000000012$pb"
"L00000000012$pb":
	mflr r10
	mtlr r0
	addis r2,r10,ha16(__ZTVN5boost16thread_exceptionE-"L00000000012$pb")
	la r2,lo16(__ZTVN5boost16thread_exceptionE-"L00000000012$pb")(r2)
	addi r2,r2,8
	stw r2,0(r3)
	b L__ZNSt9exceptionD2Ev$stub
LFE4361:
	.text
	.align 2
	.p2align 4,,15
	.globl __ZN8Fielding13HostViewCocoaD0Ev
	.private_extern __ZN8Fielding13HostViewCocoaD0Ev
__ZN8Fielding13HostViewCocoaD0Ev:
LFB8472:
	mflr r0
LCFI96:
	stmw r29,-12(r1)
LCFI97:
	bcl 20,31,"L00000000013$pb"
"L00000000013$pb":
	stw r0,8(r1)
LCFI98:
	stwu r1,-80(r1)
LCFI99:
	mr r30,r3
	mflr r31
	addis r2,r31,ha16(__ZTVN8Fielding13HostViewCocoaE-"L00000000013$pb")
	la r2,lo16(__ZTVN8Fielding13HostViewCocoaE-"L00000000013$pb")(r2)
	addi r2,r2,8
	stw r2,0(r30)
	lwz r3,96(r3)
	cmpwi cr7,r3,0
	beq cr7,L318
	lwz r2,0(r3)
	lwz r0,4(r2)
	mtctr r0
	mr r12,r0
LEHB0:
	bctrl
LEHE0:
	li r0,0
	stw r0,96(r30)
	b L318
L324:
L321:
	mr r29,r3
	mr r3,r30
	bl L__ZN8Fielding8HostViewD2Ev$stub
	mr r3,r29
LEHB1:
	bl L__Unwind_Resume$stub
	.p2align 4,,15
L318:
	mr r3,r30
	bl L__ZN8Fielding8HostViewD2Ev$stub
LEHE1:
	addi r1,r1,80
	mr r3,r30
	lwz r0,8(r1)
	lmw r29,-12(r1)
	mtlr r0
	b L__ZdlPv$stub
LFE8472:
	.section __DATA,__gcc_except_tab
GCC_except_table0:
LLSDA8472:
	.byte	0xff
	.byte	0xff
	.byte	0x3
	.byte	0x1a
	.set L$set$0,LEHB0-LFB8472
	.long L$set$0
	.set L$set$1,LEHE0-LEHB0
	.long L$set$1
	.set L$set$2,L324-LFB8472
	.long L$set$2
	.byte	0x0
	.set L$set$3,LEHB1-LFB8472
	.long L$set$3
	.set L$set$4,LEHE1-LEHB1
	.long L$set$4
	.long	0x0
	.byte	0x0
	.text
	.align 2
	.p2align 4,,15
	.globl __ZN8Fielding13HostViewCocoaD2Ev
	.private_extern __ZN8Fielding13HostViewCocoaD2Ev
__ZN8Fielding13HostViewCocoaD2Ev:
LFB8470:
	mflr r0
LCFI100:
	stmw r29,-12(r1)
LCFI101:
	bcl 20,31,"L00000000014$pb"
"L00000000014$pb":
	stw r0,8(r1)
LCFI102:
	stwu r1,-80(r1)
LCFI103:
	mr r30,r3
	mflr r31
	addis r2,r31,ha16(__ZTVN8Fielding13HostViewCocoaE-"L00000000014$pb")
	la r2,lo16(__ZTVN8Fielding13HostViewCocoaE-"L00000000014$pb")(r2)
	addi r2,r2,8
	stw r2,0(r30)
	lwz r3,96(r3)
	cmpwi cr7,r3,0
	beq cr7,L326
	lwz r2,0(r3)
	lwz r0,4(r2)
	mtctr r0
	mr r12,r0
LEHB2:
	bctrl
LEHE2:
	li r0,0
	stw r0,96(r30)
	b L326
L332:
L329:
	mr r29,r3
	mr r3,r30
	bl L__ZN8Fielding8HostViewD2Ev$stub
	mr r3,r29
LEHB3:
	bl L__Unwind_Resume$stub
	.p2align 4,,15
L326:
	addi r1,r1,80
	mr r3,r30
	lwz r0,8(r1)
	lmw r29,-12(r1)
	mtlr r0
	b L__ZN8Fielding8HostViewD2Ev$stub
LEHE3:
LFE8470:
	.section __DATA,__gcc_except_tab
GCC_except_table1:
LLSDA8470:
	.byte	0xff
	.byte	0xff
	.byte	0x3
	.byte	0x1a
	.set L$set$5,LEHB2-LFB8470
	.long L$set$5
	.set L$set$6,LEHE2-LEHB2
	.long L$set$6
	.set L$set$7,L332-LFB8470
	.long L$set$7
	.byte	0x0
	.set L$set$8,LEHB3-LFB8470
	.long L$set$8
	.set L$set$9,LEHE3-LEHB3
	.long L$set$9
	.long	0x0
	.byte	0x0
	.text
	.align 2
	.p2align 4,,15
	.globl __ZN8Fielding13HostViewCocoaD1Ev
	.private_extern __ZN8Fielding13HostViewCocoaD1Ev
__ZN8Fielding13HostViewCocoaD1Ev:
LFB8471:
	b __ZN8Fielding13HostViewCocoaD2Ev
LFE8471:
	.align 2
	.p2align 4,,15
	.globl __ZN8Fielding13HostViewCocoaC2EP6NSView
	.private_extern __ZN8Fielding13HostViewCocoaC2EP6NSView
__ZN8Fielding13HostViewCocoaC2EP6NSView:
LFB8467:
	mflr r0
LCFI104:
	stmw r27,-20(r1)
LCFI105:
	bcl 20,31,"L00000000015$pb"
"L00000000015$pb":
	stw r0,8(r1)
LCFI106:
	stwu r1,-112(r1)
LCFI107:
	mr r29,r3
	mflr r31
	mr r27,r4
	addi r28,r1,56
	mr r3,r28
	bl __ZN8Fielding13HostViewCocoa14GetNSViewFrameEP6NSView
	mr r3,r29
	mr r4,r28
	bl L__ZN8Fielding8HostViewC2ERKN5boost7polygon14rectangle_dataIfEE$stub
	addis r2,r31,ha16(__ZTVN8Fielding13HostViewCocoaE-"L00000000015$pb")
	addis r9,r31,ha16(LC2-"L00000000015$pb")
	stw r27,100(r29)
	li r0,0
	la r2,lo16(__ZTVN8Fielding13HostViewCocoaE-"L00000000015$pb")(r2)
	lfd f0,lo16(LC2-"L00000000015$pb")(r9)
	addi r1,r1,112
	stw r0,104(r29)
	stw r0,96(r29)
	addi r2,r2,8
	stfd f0,108(r29)
	stw r2,0(r29)
	lwz r0,8(r1)
	lmw r27,-20(r1)
	mtlr r0
	blr
LFE8467:
	.align 2
	.p2align 4,,15
	.globl __ZN8Fielding13HostViewCocoaC1EP6NSView
	.private_extern __ZN8Fielding13HostViewCocoaC1EP6NSView
__ZN8Fielding13HostViewCocoaC1EP6NSView:
LFB8468:
	b __ZN8Fielding13HostViewCocoaC2EP6NSView
LFE8468:
	.section __TEXT,__textcoal_nt,coalesced,pure_instructions
	.align 2
	.p2align 4,,15
	.globl __ZN17CocoaViewInstance7hitTestER8_NSPoint
	.weak_definition __ZN17CocoaViewInstance7hitTestER8_NSPoint
	.private_extern __ZN17CocoaViewInstance7hitTestER8_NSPoint
__ZN17CocoaViewInstance7hitTestER8_NSPoint:
LFB8449:
	mflr r0
LCFI108:
	stmw r27,-20(r1)
LCFI109:
	bcl 20,31,"L00000000016$pb"
"L00000000016$pb":
	stw r0,8(r1)
LCFI110:
	stwu r1,-144(r1)
LCFI111:
	mr r28,r4
	mflr r31
	mr r30,r3
	addis r29,r31,ha16(L_ZL27_OBJC_SELECTOR_REFERENCES_8-"L00000000016$pb")
	lwz r29,lo16(L_ZL27_OBJC_SELECTOR_REFERENCES_8-"L00000000016$pb")(r29)
	lwz r2,0(r4)
	lwz r27,12(r3)
	addis r4,r31,ha16(L_ZL27_OBJC_SELECTOR_REFERENCES_7-"L00000000016$pb")
	lwz r0,4(r28)
	lwz r4,lo16(L_ZL27_OBJC_SELECTOR_REFERENCES_7-"L00000000016$pb")(r4)
	mr r3,r27
	stw r2,60(r1)
	stw r0,64(r1)
	bla 0xfffeff00
	lwz r6,60(r1)
	lwz r7,64(r1)
	mr r5,r29
	mr r4,r27
	mr r8,r3
	addi r3,r1,96
	bl L_objc_msgSend_stret$stub
	lwz r2,100(r1)
	lwz r0,96(r1)
	addi r3,r30,16
	addi r4,r1,56
	stw r0,0(r28)
	stw r2,4(r28)
	li r0,1
	stw r0,56(r1)
	bl L__ZN5boost7polygon5deltaINS0_14rectangle_dataIfEEEENS_9enable_ifINS0_7gtl_andINS0_9y_r_deltaENS0_6gtl_ifINS0_20is_rectangle_conceptINS0_16geometry_conceptIT_E4typeEE4typeEE4typeEE4typeENS0_25rectangle_difference_typeISA_E4typeEE4typeERKSA_NS0_14orientation_2dE$stub
	lfs f0,4(r28)
	lfs f13,0(r28)
	addi r4,r1,68
	fsubs f1,f1,f0
	stfs f1,4(r28)
	lwz r3,8(r30)
	lwz r2,0(r3)
	lwz r0,20(r2)
	stfs f13,68(r1)
	stfs f1,72(r1)
	mtctr r0
	mr r12,r0
	bctrl
	li r0,0
	cmpwi cr7,r3,0
	beq cr7,L342
	lwz r0,12(r30)
L342:
	addi r1,r1,144
	mr r3,r0
	lwz r0,8(r1)
	lmw r27,-20(r1)
	mtlr r0
	blr
LFE8449:
	.align 2
	.p2align 4,,15
	.globl __ZN17CocoaViewInstance9mouseDownEP7NSEvent
	.weak_definition __ZN17CocoaViewInstance9mouseDownEP7NSEvent
	.private_extern __ZN17CocoaViewInstance9mouseDownEP7NSEvent
__ZN17CocoaViewInstance9mouseDownEP7NSEvent:
LFB8452:
	mflr r0
LCFI112:
	stfd f30,-16(r1)
LCFI113:
	stfd f31,-8(r1)
LCFI114:
	stmw r27,-36(r1)
LCFI115:
	bcl 20,31,"L00000000017$pb"
"L00000000017$pb":
	stw r0,8(r1)
LCFI116:
	stwu r1,-176(r1)
LCFI117:
	mr r30,r3
	mflr r31
	mr r27,r4
	addi r29,r30,16
	addis r5,r31,ha16(L_ZL27_OBJC_SELECTOR_REFERENCES_9-"L00000000017$pb")
	lwz r5,lo16(L_ZL27_OBJC_SELECTOR_REFERENCES_9-"L00000000017$pb")(r5)
	addi r3,r1,60
	bl L_objc_msgSend_stret$stub
	lfs f0,64(r1)
	lfs f13,60(r1)
	addis r5,r31,ha16(L_ZL27_OBJC_SELECTOR_REFERENCES_8-"L00000000017$pb")
	li r8,0
	lwz r4,12(r30)
	addi r3,r1,76
	lwz r5,lo16(L_ZL27_OBJC_SELECTOR_REFERENCES_8-"L00000000017$pb")(r5)
	stfs f0,72(r1)
	stfs f13,68(r1)
	lwz r7,72(r1)
	nop
	nop
	lwz r6,68(r1)
	bl L_objc_msgSend_stret$stub
	lfs f31,80(r1)
	li r0,1
	mr r3,r29
	addi r4,r1,56
	lfs f30,76(r1)
	stw r0,56(r1)
	bl L__ZN5boost7polygon5deltaINS0_14rectangle_dataIfEEEENS_9enable_ifINS0_7gtl_andINS0_9y_r_deltaENS0_6gtl_ifINS0_20is_rectangle_conceptINS0_16geometry_conceptIT_E4typeEE4typeEE4typeEE4typeENS0_25rectangle_difference_typeISA_E4typeEE4typeERKSA_NS0_14orientation_2dE$stub
	mr r3,r29
	addi r4,r1,84
	li r5,1
	fsubs f31,f1,f31
	stfs f30,84(r1)
	stfs f31,88(r1)
	bl L__ZN5boost7polygon8containsINS0_14rectangle_dataIfEENS0_10point_dataIfEEEENS_9enable_ifINS0_9gtl_and_3INS0_13y_r_contains2ENS0_20is_rectangle_conceptINS0_16geometry_conceptIT_E4typeEE4typeENS0_16is_point_conceptINSA_IT0_E4typeEE4typeEE4typeEbE4typeERKSB_SH_b$stub
	cmpwi cr7,r3,0
	bne cr7,L345
	lwz r0,64(r30)
	cmpwi cr7,r0,0
	beq cr7,L359
L345:
	addis r4,r31,ha16(L_ZL28_OBJC_SELECTOR_REFERENCES_10-"L00000000017$pb")
	mr r3,r27
	lwz r28,4(r30)
	lwz r29,8(r30)
	lwz r4,lo16(L_ZL28_OBJC_SELECTOR_REFERENCES_10-"L00000000017$pb")(r4)
	bla 0xfffeff00
	mr r4,r29
	srwi r5,r3,18
	rlwinm r2,r3,18,28,28
	rlwinm r0,r3,14,30,30
	mr r3,r28
	andi. r5,r5,5
	or r5,r5,r2
	or r5,r5,r0
	bl __ZN8Fielding13HostViewCocoa12setModifiersERNS_4ViewEj
	addis r4,r31,ha16(L_ZL28_OBJC_SELECTOR_REFERENCES_11-"L00000000017$pb")
	mr r3,r27
	lwz r4,lo16(L_ZL28_OBJC_SELECTOR_REFERENCES_11-"L00000000017$pb")(r4)
	bla 0xfffeff00
	cmpwi cr7,r3,2
	bne cr7,L357
	lwz r3,8(r30)
	addi r4,r1,92
	lwz r2,0(r3)
	lwz r0,40(r2)
	stfs f30,92(r1)
	stfs f31,96(r1)
	mtctr r0
	mr r12,r0
	bctrl
	b L359
	.p2align 4,,15
L357:
	lwz r3,8(r30)
	addi r4,r1,100
	lwz r2,0(r3)
	lwz r0,28(r2)
	stfs f30,100(r1)
	stfs f31,104(r1)
	mtctr r0
	mr r12,r0
	bctrl
L359:
	addi r1,r1,176
	lwz r0,8(r1)
	lfd f30,-16(r1)
	lmw r27,-36(r1)
	lfd f31,-8(r1)
	mtlr r0
	blr
LFE8452:
	.align 2
	.p2align 4,,15
	.globl __ZN17CocoaViewInstance11scrollWheelEP7NSEvent
	.weak_definition __ZN17CocoaViewInstance11scrollWheelEP7NSEvent
	.private_extern __ZN17CocoaViewInstance11scrollWheelEP7NSEvent
__ZN17CocoaViewInstance11scrollWheelEP7NSEvent:
LFB8455:
	mflr r0
LCFI118:
	stfd f30,-16(r1)
LCFI119:
	stfd f31,-8(r1)
LCFI120:
	bcl 20,31,"L00000000018$pb"
"L00000000018$pb":
	stmw r26,-40(r1)
LCFI121:
	mflr r31
	stw r0,8(r1)
LCFI122:
	stwu r1,-160(r1)
LCFI123:
	mr r27,r4
	addis r2,r31,ha16(L_ZL28_OBJC_SELECTOR_REFERENCES_12-"L00000000018$pb")
	mr r30,r3
	mr r3,r4
	lwz r26,lo16(L_ZL28_OBJC_SELECTOR_REFERENCES_12-"L00000000018$pb")(r2)
	mr r4,r26
	bla 0xfffeff00
	addis r2,r31,ha16(LC3-"L00000000018$pb")
	lfs f0,lo16(LC3-"L00000000018$pb")(r2)
	fcmpu cr7,f1,f0
	beq cr7,L375
	addis r5,r31,ha16(L_ZL27_OBJC_SELECTOR_REFERENCES_9-"L00000000018$pb")
	addi r3,r1,60
	mr r4,r27
	addi r29,r30,16
	lwz r5,lo16(L_ZL27_OBJC_SELECTOR_REFERENCES_9-"L00000000018$pb")(r5)
	bl L_objc_msgSend_stret$stub
	lfs f0,64(r1)
	lfs f13,60(r1)
	addis r5,r31,ha16(L_ZL27_OBJC_SELECTOR_REFERENCES_8-"L00000000018$pb")
	li r8,0
	lwz r4,12(r30)
	addi r3,r1,76
	lwz r5,lo16(L_ZL27_OBJC_SELECTOR_REFERENCES_8-"L00000000018$pb")(r5)
	stfs f0,72(r1)
	stfs f13,68(r1)
	lwz r7,72(r1)
	nop
	nop
	lwz r6,68(r1)
	bl L_objc_msgSend_stret$stub
	lfs f31,80(r1)
	li r0,1
	mr r3,r29
	addi r4,r1,56
	lfs f30,76(r1)
	stw r0,56(r1)
	bl L__ZN5boost7polygon5deltaINS0_14rectangle_dataIfEEEENS_9enable_ifINS0_7gtl_andINS0_9y_r_deltaENS0_6gtl_ifINS0_20is_rectangle_conceptINS0_16geometry_conceptIT_E4typeEE4typeEE4typeEE4typeENS0_25rectangle_difference_typeISA_E4typeEE4typeERKSA_NS0_14orientation_2dE$stub
	mr r3,r29
	addi r4,r1,84
	li r5,1
	fsubs f31,f1,f31
	stfs f30,84(r1)
	stfs f31,88(r1)
	bl L__ZN5boost7polygon8containsINS0_14rectangle_dataIfEENS0_10point_dataIfEEEENS_9enable_ifINS0_9gtl_and_3INS0_13y_r_contains2ENS0_20is_rectangle_conceptINS0_16geometry_conceptIT_E4typeEE4typeENS0_16is_point_conceptINSA_IT0_E4typeEE4typeEE4typeEbE4typeERKSB_SH_b$stub
	cmpwi cr7,r3,0
	bne cr7,L364
	lwz r0,64(r30)
	cmpwi cr7,r0,0
	beq cr7,L375
L364:
	addis r4,r31,ha16(L_ZL28_OBJC_SELECTOR_REFERENCES_10-"L00000000018$pb")
	mr r3,r27
	lwz r28,4(r30)
	lwz r29,8(r30)
	lwz r4,lo16(L_ZL28_OBJC_SELECTOR_REFERENCES_10-"L00000000018$pb")(r4)
	bla 0xfffeff00
	mr r4,r29
	srwi r5,r3,18
	rlwinm r2,r3,18,28,28
	rlwinm r0,r3,14,30,30
	mr r3,r28
	andi. r5,r5,5
	or r5,r5,r2
	or r5,r5,r0
	bl __ZN8Fielding13HostViewCocoa12setModifiersERNS_4ViewEj
	lwz r28,8(r30)
	mr r4,r26
	mr r3,r27
	lwz r2,0(r28)
	lwz r29,24(r2)
	stfs f30,92(r1)
	stfs f31,96(r1)
	bla 0xfffeff00
	mr r3,r28
	addi r4,r1,92
	mtctr r29
	mr r12,r29
	bctrl
L375:
	addi r1,r1,160
	lwz r0,8(r1)
	lfd f30,-16(r1)
	lmw r26,-40(r1)
	lfd f31,-8(r1)
	mtlr r0
	blr
LFE8455:
	.align 2
	.p2align 4,,15
	.globl __ZN17CocoaViewInstance12mouseDraggedEP7NSEvent
	.weak_definition __ZN17CocoaViewInstance12mouseDraggedEP7NSEvent
	.private_extern __ZN17CocoaViewInstance12mouseDraggedEP7NSEvent
__ZN17CocoaViewInstance12mouseDraggedEP7NSEvent:
LFB8454:
	mflr r0
LCFI124:
	stfd f29,-24(r1)
LCFI125:
	stfd f30,-16(r1)
LCFI126:
	stmw r28,-40(r1)
LCFI127:
	stfd f31,-8(r1)
LCFI128:
	bcl 20,31,"L00000000019$pb"
"L00000000019$pb":
	stw r0,8(r1)
LCFI129:
	stwu r1,-160(r1)
LCFI130:
	mr r30,r3
	mflr r31
	mr r29,r4
	lwz r0,64(r3)
	cmpwi cr7,r0,0
	beq cr7,L388
	addis r5,r31,ha16(L_ZL27_OBJC_SELECTOR_REFERENCES_9-"L00000000019$pb")
	addi r3,r1,60
	lwz r5,lo16(L_ZL27_OBJC_SELECTOR_REFERENCES_9-"L00000000019$pb")(r5)
	bl L_objc_msgSend_stret$stub
	lfs f0,64(r1)
	lfs f13,60(r1)
	addis r5,r31,ha16(L_ZL27_OBJC_SELECTOR_REFERENCES_8-"L00000000019$pb")
	li r8,0
	lwz r4,12(r30)
	addi r3,r1,76
	lwz r5,lo16(L_ZL27_OBJC_SELECTOR_REFERENCES_8-"L00000000019$pb")(r5)
	stfs f0,72(r1)
	stfs f13,68(r1)
	lwz r7,72(r1)
	nop
	nop
	lwz r6,68(r1)
	bl L_objc_msgSend_stret$stub
	li r0,1
	addi r3,r30,16
	lfs f29,76(r1)
	lfs f30,80(r1)
	addi r4,r1,56
	stw r0,56(r1)
	bl L__ZN5boost7polygon5deltaINS0_14rectangle_dataIfEEEENS_9enable_ifINS0_7gtl_andINS0_9y_r_deltaENS0_6gtl_ifINS0_20is_rectangle_conceptINS0_16geometry_conceptIT_E4typeEE4typeEE4typeEE4typeENS0_25rectangle_difference_typeISA_E4typeEE4typeERKSA_NS0_14orientation_2dE$stub
	addis r4,r31,ha16(L_ZL28_OBJC_SELECTOR_REFERENCES_10-"L00000000019$pb")
	mr r3,r29
	lwz r28,4(r30)
	lwz r29,8(r30)
	fmr f31,f1
	lwz r4,lo16(L_ZL28_OBJC_SELECTOR_REFERENCES_10-"L00000000019$pb")(r4)
	bla 0xfffeff00
	mr r4,r29
	fsubs f31,f31,f30
	srwi r5,r3,18
	rlwinm r2,r3,18,28,28
	rlwinm r0,r3,14,30,30
	mr r3,r28
	andi. r5,r5,5
	or r5,r5,r2
	or r5,r5,r0
	bl __ZN8Fielding13HostViewCocoa12setModifiersERNS_4ViewEj
	lwz r3,8(r30)
	addi r4,r1,84
	lwz r2,0(r3)
	lwz r0,36(r2)
	stfs f29,84(r1)
	stfs f31,88(r1)
	mtctr r0
	mr r12,r0
	bctrl
L388:
	addi r1,r1,160
	lwz r0,8(r1)
	lfd f29,-24(r1)
	lmw r28,-40(r1)
	lfd f30,-16(r1)
	lfd f31,-8(r1)
	mtlr r0
	blr
LFE8454:
	.align 2
	.p2align 4,,15
	.globl __ZN17CocoaViewInstance7mouseUpEP7NSEvent
	.weak_definition __ZN17CocoaViewInstance7mouseUpEP7NSEvent
	.private_extern __ZN17CocoaViewInstance7mouseUpEP7NSEvent
__ZN17CocoaViewInstance7mouseUpEP7NSEvent:
LFB8453:
	mflr r0
LCFI131:
	stfd f30,-16(r1)
LCFI132:
	stfd f31,-8(r1)
LCFI133:
	stmw r28,-32(r1)
LCFI134:
	bcl 20,31,"L00000000020$pb"
"L00000000020$pb":
	stw r0,8(r1)
LCFI135:
	stwu r1,-144(r1)
LCFI136:
	mr r30,r3
	mflr r31
	mr r28,r4
	addi r29,r30,16
	addis r5,r31,ha16(L_ZL27_OBJC_SELECTOR_REFERENCES_9-"L00000000020$pb")
	lwz r5,lo16(L_ZL27_OBJC_SELECTOR_REFERENCES_9-"L00000000020$pb")(r5)
	addi r3,r1,60
	bl L_objc_msgSend_stret$stub
	lfs f0,64(r1)
	lfs f13,60(r1)
	addis r5,r31,ha16(L_ZL27_OBJC_SELECTOR_REFERENCES_8-"L00000000020$pb")
	li r8,0
	lwz r4,12(r30)
	addi r3,r1,76
	lwz r5,lo16(L_ZL27_OBJC_SELECTOR_REFERENCES_8-"L00000000020$pb")(r5)
	stfs f0,72(r1)
	stfs f13,68(r1)
	lwz r7,72(r1)
	nop
	nop
	lwz r6,68(r1)
	bl L_objc_msgSend_stret$stub
	lfs f31,80(r1)
	li r0,1
	mr r3,r29
	addi r4,r1,56
	lfs f30,76(r1)
	stw r0,56(r1)
	bl L__ZN5boost7polygon5deltaINS0_14rectangle_dataIfEEEENS_9enable_ifINS0_7gtl_andINS0_9y_r_deltaENS0_6gtl_ifINS0_20is_rectangle_conceptINS0_16geometry_conceptIT_E4typeEE4typeEE4typeEE4typeENS0_25rectangle_difference_typeISA_E4typeEE4typeERKSA_NS0_14orientation_2dE$stub
	mr r3,r29
	addi r4,r1,84
	li r5,1
	fsubs f31,f1,f31
	stfs f30,84(r1)
	stfs f31,88(r1)
	bl L__ZN5boost7polygon8containsINS0_14rectangle_dataIfEENS0_10point_dataIfEEEENS_9enable_ifINS0_9gtl_and_3INS0_13y_r_contains2ENS0_20is_rectangle_conceptINS0_16geometry_conceptIT_E4typeEE4typeENS0_16is_point_conceptINSA_IT0_E4typeEE4typeEE4typeEbE4typeERKSB_SH_b$stub
	cmpwi cr7,r3,0
	bne cr7,L390
	lwz r0,64(r30)
	cmpwi cr7,r0,0
	beq cr7,L402
L390:
	addis r4,r31,ha16(L_ZL28_OBJC_SELECTOR_REFERENCES_10-"L00000000020$pb")
	mr r3,r28
	lwz r29,8(r30)
	lwz r28,4(r30)
	lwz r4,lo16(L_ZL28_OBJC_SELECTOR_REFERENCES_10-"L00000000020$pb")(r4)
	bla 0xfffeff00
	mr r4,r29
	srwi r5,r3,18
	rlwinm r2,r3,18,28,28
	rlwinm r0,r3,14,30,30
	mr r3,r28
	andi. r5,r5,5
	or r5,r5,r2
	or r5,r5,r0
	bl __ZN8Fielding13HostViewCocoa12setModifiersERNS_4ViewEj
	lwz r3,8(r30)
	addi r4,r1,92
	lwz r2,0(r3)
	lwz r0,32(r2)
	stfs f30,92(r1)
	stfs f31,96(r1)
	mtctr r0
	mr r12,r0
	bctrl
L402:
	addi r1,r1,144
	lwz r0,8(r1)
	lfd f30,-16(r1)
	lmw r28,-32(r1)
	lfd f31,-8(r1)
	mtlr r0
	blr
LFE8453:
	.align 2
	.p2align 4,,15
	.globl __ZNSt6vectorISt4pairIfS0_IfiEESaIS2_EE5eraseEN9__gnu_cxx17__normal_iteratorIPS2_S4_EES8_
	.weak_definition __ZNSt6vectorISt4pairIfS0_IfiEESaIS2_EE5eraseEN9__gnu_cxx17__normal_iteratorIPS2_S4_EES8_
	.private_extern __ZNSt6vectorISt4pairIfS0_IfiEESaIS2_EE5eraseEN9__gnu_cxx17__normal_iteratorIPS2_S4_EES8_
__ZNSt6vectorISt4pairIfS0_IfiEESaIS2_EE5eraseEN9__gnu_cxx17__normal_iteratorIPS2_S4_EES8_:
LFB12004:
	mflr r0
LCFI137:
	stmw r27,-20(r1)
LCFI138:
	mr r28,r4
	stw r0,8(r1)
LCFI139:
	stwu r1,-112(r1)
LCFI140:
	lis r0,0xaaaa
	ori r0,r0,43691
	mr r27,r3
	mr r29,r6
	mr r30,r5
	mr r3,r5
	lwz r4,4(r4)
	subf r2,r6,r4
	srawi r2,r2,2
	mullw. r8,r2,r0
	ble cr0,L404
	mtctr r8
	mr r10,r5
	mr r11,r6
	.p2align 4,,15
L406:
	lwz r0,0(r11)
	lwz r2,4(r11)
	lwz r9,8(r11)
	addi r11,r11,12
	stw r0,0(r10)
	stw r2,4(r10)
	stw r9,8(r10)
	addi r10,r10,12
	bdnz L406
	mulli r0,r8,12
	lwz r4,4(r28)
	add r3,r30,r0
L404:
	addi r5,r1,56
	bl L__ZSt8_DestroyIN9__gnu_cxx17__normal_iteratorIPSt4pairIfS2_IfiEESt6vectorIS4_SaIS4_EEEES7_EvT_SA_T0_$stub
	lwz r2,4(r28)
	subf r0,r30,r29
	addi r1,r1,112
	mr r3,r27
	rlwinm r0,r0,0,0,29
	subf r2,r0,r2
	stw r2,4(r28)
	stw r30,0(r27)
	lwz r0,8(r1)
	lmw r27,-20(r1)
	mtlr r0
	blr
LFE12004:
	.text
	.align 2
	.p2align 4,,15
___tcf_3:
LFB14135:
	mflr r0
LCFI141:
	stmw r30,-8(r1)
LCFI142:
	bcl 20,31,"L00000000021$pb"
"L00000000021$pb":
	stw r0,8(r1)
LCFI143:
	stwu r1,-80(r1)
LCFI144:
	mflr r31
	addis r2,r31,ha16(__ZN5boost16exception_detail37exception_ptr_static_exception_objectINS0_10bad_alloc_EE1eE-"L00000000021$pb")
	la r2,lo16(__ZN5boost16exception_detail37exception_ptr_static_exception_objectINS0_10bad_alloc_EE1eE-"L00000000021$pb")(r2)
	lwz r30,4(r2)
	cmpwi cr7,r30,0
	beq cr7,L416
	addi r2,r30,4
	sync
	0:
	lwarx r9, 0, r2
	addi r9, r9, -1
	stwcx. r9, 0, r2
	bne- 0b
	isync
	cmpwi cr7,r9,0
	bne cr7,L416
	lwz r2,0(r30)
	mr r3,r30
	lwz r0,8(r2)
	mtctr r0
	mr r12,r0
	bctrl
	addi r2,r30,8
	sync
	0:
	lwarx r9, 0, r2
	addi r9, r9, -1
	stwcx. r9, 0, r2
	bne- 0b
	isync
	cmpwi cr7,r9,0
	bne cr7,L416
	lwz r2,0(r30)
	addi r1,r1,80
	mr r3,r30
	lmw r30,-8(r1)
	lwz r0,12(r2)
	mtctr r0
	mr r12,r0
	lwz r0,8(r1)
	mtlr r0
	bctr
	.p2align 4,,15
L416:
	addi r1,r1,80
	lwz r0,8(r1)
	lmw r30,-8(r1)
	mtlr r0
	blr
LFE14135:
	.section __TEXT,__textcoal_nt,coalesced,pure_instructions
	.align 2
	.p2align 4,,15
	.globl __ZN5boost6detail17sp_counted_impl_pINS_16exception_detail10clone_implINS2_14bad_exception_EEEE7disposeEv
	.weak_definition __ZN5boost6detail17sp_counted_impl_pINS_16exception_detail10clone_implINS2_14bad_exception_EEEE7disposeEv
	.private_extern __ZN5boost6detail17sp_counted_impl_pINS_16exception_detail10clone_implINS2_14bad_exception_EEEE7disposeEv
__ZN5boost6detail17sp_counted_impl_pINS_16exception_detail10clone_implINS2_14bad_exception_EEEE7disposeEv:
LFB14179:
	lwz r3,12(r3)
	cmpwi cr7,r3,0
	beq cr7,L420
	lwz r2,0(r3)
	lwz r0,4(r2)
	mtctr r0
	mr r12,r0
	bctr
	.p2align 4,,15
L420:
	blr
LFE14179:
	.align 2
	.p2align 4,,15
	.globl __ZN5boost6detail17sp_counted_impl_pINS_16exception_detail10clone_implINS2_10bad_alloc_EEEE7disposeEv
	.weak_definition __ZN5boost6detail17sp_counted_impl_pINS_16exception_detail10clone_implINS2_10bad_alloc_EEEE7disposeEv
	.private_extern __ZN5boost6detail17sp_counted_impl_pINS_16exception_detail10clone_implINS2_10bad_alloc_EEEE7disposeEv
__ZN5boost6detail17sp_counted_impl_pINS_16exception_detail10clone_implINS2_10bad_alloc_EEEE7disposeEv:
LFB14181:
	lwz r3,12(r3)
	cmpwi cr7,r3,0
	beqlr cr7
	lwz r2,0(r3)
	lwz r0,4(r2)
	mtctr r0
	mr r12,r0
	bctr
LFE14181:
	.align 2
	.p2align 4,,15
	.globl __ZThn24_NK5boost16exception_detail10clone_implINS0_14bad_exception_EE5cloneEv
	.weak_definition __ZThn24_NK5boost16exception_detail10clone_implINS0_14bad_exception_EE5cloneEv
	.private_extern __ZThn24_NK5boost16exception_detail10clone_implINS0_14bad_exception_EE5cloneEv
__ZThn24_NK5boost16exception_detail10clone_implINS0_14bad_exception_EE5cloneEv:
LFB14262:
	addi r3,r3,-24
	b L__ZNK5boost16exception_detail10clone_implINS0_14bad_exception_EE5cloneEv$stub
LFE14262:
	.align 2
	.p2align 4,,15
	.globl __ZNK5boost16exception_detail10clone_implINS0_14bad_exception_EE5cloneEv
	.weak_definition __ZNK5boost16exception_detail10clone_implINS0_14bad_exception_EE5cloneEv
	.private_extern __ZNK5boost16exception_detail10clone_implINS0_14bad_exception_EE5cloneEv
__ZNK5boost16exception_detail10clone_implINS0_14bad_exception_EE5cloneEv:
LFB14223:
	mflr r0
LCFI145:
	stmw r29,-12(r1)
LCFI146:
	bcl 20,31,"L00000000022$pb"
"L00000000022$pb":
	stw r0,8(r1)
LCFI147:
	stwu r1,-80(r1)
LCFI148:
	mr r29,r3
	mflr r31
	li r3,28
LEHB4:
	bl L__Znwm$stub
LEHE4:
	addis r2,r31,ha16(L__ZTVN5boost9exceptionE$non_lazy_ptr-"L00000000022$pb")
	mr r30,r3
	lwz r3,4(r29)
	lwz r2,lo16(L__ZTVN5boost9exceptionE$non_lazy_ptr-"L00000000022$pb")(r2)
	cmpwi cr7,r3,0
	stw r3,4(r30)
	addi r2,r2,8
	stw r2,0(r30)
	beq cr7,L426
	lwz r2,0(r3)
	lwz r0,12(r2)
	mtctr r0
	mr r12,r0
LEHB5:
	bctrl
LEHE5:
	b L426
L430:
L428:
	mr r29,r3
	mr r3,r30
	bl L__ZdlPv$stub
	mr r3,r29
LEHB6:
	bl L__Unwind_Resume$stub
LEHE6:
	.p2align 4,,15
L426:
	addis r2,r31,ha16(__ZTVN5boost16exception_detail10clone_implINS0_14bad_exception_EEE-"L00000000022$pb")
	lwz r0,8(r29)
	lwz r8,16(r29)
	lwz r9,12(r29)
	addi r1,r1,80
	addi r3,r30,24
	la r2,lo16(__ZTVN5boost16exception_detail10clone_implINS0_14bad_exception_EEE-"L00000000022$pb")(r2)
	addi r10,r2,52
	addi r11,r2,8
	stw r0,8(r30)
	stw r8,16(r30)
	stw r9,12(r30)
	addi r2,r2,32
	stw r11,0(r30)
	stw r10,24(r30)
	stw r2,20(r30)
	lwz r0,8(r1)
	lmw r29,-12(r1)
	mtlr r0
	blr
LFE14223:
	.section __DATA,__gcc_except_tab
GCC_except_table2:
LLSDA14223:
	.byte	0xff
	.byte	0xff
	.byte	0x3
	.byte	0x27
	.set L$set$10,LEHB4-LFB14223
	.long L$set$10
	.set L$set$11,LEHE4-LEHB4
	.long L$set$11
	.long	0x0
	.byte	0x0
	.set L$set$12,LEHB5-LFB14223
	.long L$set$12
	.set L$set$13,LEHE5-LEHB5
	.long L$set$13
	.set L$set$14,L430-LFB14223
	.long L$set$14
	.byte	0x0
	.set L$set$15,LEHB6-LFB14223
	.long L$set$15
	.set L$set$16,LEHE6-LEHB6
	.long L$set$16
	.long	0x0
	.byte	0x0
	.section __TEXT,__textcoal_nt,coalesced,pure_instructions
	.align 2
	.p2align 4,,15
	.globl __ZNSt8_Rb_treeIfSt4pairIKfiESt10_Select1stIS2_ESt4lessIfESaIS2_EE13insert_uniqueERKS2_
	.weak_definition __ZNSt8_Rb_treeIfSt4pairIKfiESt10_Select1stIS2_ESt4lessIfESaIS2_EE13insert_uniqueERKS2_
	.private_extern __ZNSt8_Rb_treeIfSt4pairIKfiESt10_Select1stIS2_ESt4lessIfESaIS2_EE13insert_uniqueERKS2_
__ZNSt8_Rb_treeIfSt4pairIKfiESt10_Select1stIS2_ESt4lessIfESaIS2_EE13insert_uniqueERKS2_:
LFB13432:
	mflr r0
LCFI149:
	stmw r27,-20(r1)
LCFI150:
	mr r29,r4
	stw r0,8(r1)
LCFI151:
	stwu r1,-96(r1)
LCFI152:
	mr r28,r3
	mr r27,r5
	addi r30,r4,4
	lwz r0,8(r4)
	cmpwi cr7,r0,0
	beq cr7,L432
	lfs f13,0(r5)
	.p2align 4,,15
L449:
	mr r3,r0
	lfs f0,16(r3)
	fcmpu cr7,f0,f13
	mfcr r0
	rlwinm r0,r0,30,1
	cmpwi cr6,r0,0
	beq cr6,L435
	lwz r0,8(r3)
	b L437
	.p2align 4,,15
L435:
	lwz r0,12(r3)
L437:
	cmpwi cr7,r0,0
	bne cr7,L449
	mr r30,r3
	beq cr6,L441
L432:
	lwz r0,12(r29)
	cmpw cr7,r30,r0
	beq cr7,L450
	mr r3,r30
	bl L__ZSt18_Rb_tree_decrementPSt18_Rb_tree_node_base$stub
	lfs f13,0(r27)
L441:
	lfs f0,16(r3)
	fcmpu cr7,f0,f13
	bnl cr7,L445
L450:
	mr r4,r29
	mr r6,r30
	mr r7,r27
	addi r3,r1,56
	li r5,0
	bl L__ZNSt8_Rb_treeIfSt4pairIKfiESt10_Select1stIS2_ESt4lessIfESaIS2_EE9_M_insertEPSt18_Rb_tree_node_baseSA_RKS2_$stub
	lwz r2,56(r1)
	li r0,1
	stw r0,4(r28)
	stw r2,0(r28)
	b L431
L445:
	li r0,0
	stw r3,0(r28)
	stw r0,4(r28)
L431:
	addi r1,r1,96
	mr r3,r28
	lwz r0,8(r1)
	lmw r27,-20(r1)
	mtlr r0
	blr
LFE13432:
	.align 2
	.p2align 4,,15
	.globl __ZNSt8_Rb_treeIfSt4pairIKfiESt10_Select1stIS2_ESt4lessIfESaIS2_EE13insert_uniqueESt17_Rb_tree_iteratorIS2_ERKS2_
	.weak_definition __ZNSt8_Rb_treeIfSt4pairIKfiESt10_Select1stIS2_ESt4lessIfESaIS2_EE13insert_uniqueESt17_Rb_tree_iteratorIS2_ERKS2_
	.private_extern __ZNSt8_Rb_treeIfSt4pairIKfiESt10_Select1stIS2_ESt4lessIfESaIS2_EE13insert_uniqueESt17_Rb_tree_iteratorIS2_ERKS2_
__ZNSt8_Rb_treeIfSt4pairIKfiESt10_Select1stIS2_ESt4lessIfESaIS2_EE13insert_uniqueESt17_Rb_tree_iteratorIS2_ERKS2_:
LFB13067:
	mflr r0
LCFI153:
	stmw r27,-20(r1)
LCFI154:
	mr r30,r4
	stw r0,8(r1)
LCFI155:
	addi r0,r4,4
	stwu r1,-112(r1)
LCFI156:
	cmpw cr7,r0,r5
	mr r29,r5
	mr r28,r6
	mr r27,r3
	beq cr7,L452
	lwz r0,16(r4)
	cmpw cr7,r0,r5
	bne cr7,L454
L452:
	lwz r0,20(r30)
	cmpwi cr7,r0,0
	beq cr7,L455
	lwz r6,16(r30)
	lfs f0,0(r28)
	lfs f13,16(r6)
	fcmpu cr7,f13,f0
	bnl cr7,L455
	mr r7,r28
	li r5,0
	bl L__ZNSt8_Rb_treeIfSt4pairIKfiESt10_Select1stIS2_ESt4lessIfESaIS2_EE9_M_insertEPSt18_Rb_tree_node_baseSA_RKS2_$stub
	b L451
	.p2align 4,,15
L465:
	lfs f0,16(r3)
	fcmpu cr7,f13,f0
	bnl cr7,L460
	lwz r0,12(r29)
	cmpwi cr7,r0,0
	bne cr7,L462
	mr r4,r30
	mr r6,r29
	mr r7,r28
	mr r3,r27
	li r5,0
	bl L__ZNSt8_Rb_treeIfSt4pairIKfiESt10_Select1stIS2_ESt4lessIfESaIS2_EE9_M_insertEPSt18_Rb_tree_node_baseSA_RKS2_$stub
	b L451
	.p2align 4,,15
L462:
	mr r5,r3
	mr r4,r30
	mr r7,r28
	mr r3,r27
	mr r6,r5
	bl L__ZNSt8_Rb_treeIfSt4pairIKfiESt10_Select1stIS2_ESt4lessIfESaIS2_EE9_M_insertEPSt18_Rb_tree_node_baseSA_RKS2_$stub
	b L451
	.p2align 4,,15
L454:
	mr r3,r5
	bl L__ZSt18_Rb_tree_incrementPSt18_Rb_tree_node_base$stub
	lfs f13,0(r28)
	lfs f0,16(r29)
	fcmpu cr7,f0,f13
	blt cr7,L465
	b L460
	.p2align 4,,15
L455:
	mr r4,r30
	mr r5,r28
	addi r3,r1,56
	bl L__ZNSt8_Rb_treeIfSt4pairIKfiESt10_Select1stIS2_ESt4lessIfESaIS2_EE13insert_uniqueERKS2_$stub
	lwz r0,56(r1)
	stw r0,0(r27)
	b L451
	.p2align 4,,15
L460:
	mr r4,r30
	mr r5,r28
	addi r3,r1,64
	bl L__ZNSt8_Rb_treeIfSt4pairIKfiESt10_Select1stIS2_ESt4lessIfESaIS2_EE13insert_uniqueERKS2_$stub
	lwz r0,64(r1)
	stw r0,0(r27)
L451:
	addi r1,r1,112
	mr r3,r27
	lwz r0,8(r1)
	lmw r27,-20(r1)
	mtlr r0
	blr
LFE13067:
	.cstring
	.align 2
LC4:
	.ascii "vector::_M_insert_aux\0"
	.section __TEXT,__textcoal_nt,coalesced,pure_instructions
	.align 2
	.p2align 4,,15
	.globl __ZNSt6vectorISt4pairIN5boost7polygon13interval_dataIfEEiESaIS5_EE13_M_insert_auxEN9__gnu_cxx17__normal_iteratorIPS5_S7_EERKS5_
	.weak_definition __ZNSt6vectorISt4pairIN5boost7polygon13interval_dataIfEEiESaIS5_EE13_M_insert_auxEN9__gnu_cxx17__normal_iteratorIPS5_S7_EERKS5_
	.private_extern __ZNSt6vectorISt4pairIN5boost7polygon13interval_dataIfEEiESaIS5_EE13_M_insert_auxEN9__gnu_cxx17__normal_iteratorIPS5_S7_EERKS5_
__ZNSt6vectorISt4pairIN5boost7polygon13interval_dataIfEEiESaIS5_EE13_M_insert_auxEN9__gnu_cxx17__normal_iteratorIPS5_S7_EERKS5_:
LFB13076:
	mflr r0
LCFI157:
	stmw r25,-28(r1)
LCFI158:
	mr r30,r4
	bcl 20,31,"L00000000023$pb"
"L00000000023$pb":
	stw r0,8(r1)
LCFI159:
	stwu r1,-112(r1)
LCFI160:
	mr r29,r3
	mflr r31
	mr r28,r5
	mr r26,r30
	lwz r4,4(r3)
	lwz r0,8(r3)
	cmpw cr7,r4,r0
	beq cr7,L467
	cmpwi cr7,r4,0
	bne cr7,L469
L470:
	mr r9,r4
	lis r0,0xaaaa
	addi r4,r4,12
	addi r11,r9,-12
	ori r0,r0,43691
	stw r4,4(r29)
	subf r2,r30,r11
	srawi r2,r2,2
	mullw. r10,r2,r0
	mtctr r10
	lfs f13,0(r28)
	lwz r10,8(r28)
	lfs f12,4(r28)
	ble cr0,L471
	mr r2,r11
	.p2align 4,,15
L473:
	lfs f0,-12(r2)
	lwz r0,-4(r2)
	stw r0,-4(r9)
	stfs f0,-12(r9)
	lfs f0,-8(r2)
	addi r2,r2,-12
	stfs f0,-8(r9)
	addi r9,r9,-12
	bdnz L473
L471:
	stw r10,8(r30)
	stfs f13,0(r30)
	stfs f12,4(r30)
	b L499
L467:
	lwz r0,0(r3)
	lis r2,0xaaaa
	lis r9,0x1555
	ori r2,r2,43691
	ori r9,r9,21845
	subf r0,r0,r4
	srawi r0,r0,2
	mullw r0,r0,r2
	cmpw cr7,r0,r9
	bne+ cr7,L475
	addis r3,r31,ha16(LC4-"L00000000023$pb")
	la r3,lo16(LC4-"L00000000023$pb")(r3)
	bl L__ZSt20__throw_length_errorPKc$stub
	.p2align 4,,15
L475:
	cmpwi cr7,r0,0
	li r2,1
	beq cr7,L500
	slwi r2,r0,1
	li r25,-4
	cmplw cr7,r2,r0
	blt cr7,L484
L500:
	lis r0,0x1555
	ori r0,r0,21845
	cmplw cr7,r2,r0
	bgt cr7,L482
	mulli r25,r2,12
	b L484
L482:
	bl L__ZSt17__throw_bad_allocv$stub
	.p2align 4,,15
L484:
	mr r3,r25
	bl L__Znwm$stub
	lwz r2,0(r29)
	mr r27,r3
	mr r9,r3
	cmpw cr7,r30,r2
	beq cr7,L485
	mr r11,r2
	li r10,0
	.p2align 4,,15
L487:
	cmpwi cr7,r9,0
	bne cr7,L488
	.p2align 4,,15
L489:
	addi r11,r11,12
	addi r9,r9,12
	cmpw cr7,r30,r11
	beq cr7,L485
	mr r2,r11
	b L487
L485:
	cmpwi cr7,r9,0
	bne cr7,L491
L492:
	lwz r4,4(r29)
	mr r2,r26
	addi r30,r9,12
	cmpw cr7,r26,r4
	beq cr7,L493
	li r9,0
	.p2align 4,,15
L501:
	cmpwi cr7,r30,0
	bne cr7,L495
	.p2align 4,,15
L496:
	addi r2,r2,12
	addi r30,r30,12
	cmpw cr7,r2,r4
	bne cr7,L501
	lwz r4,4(r29)
L493:
	lwz r3,0(r29)
	addi r5,r1,56
	bl L__ZSt8_DestroyIN9__gnu_cxx17__normal_iteratorIPSt4pairIN5boost7polygon13interval_dataIfEEiESt6vectorIS7_SaIS7_EEEESA_EvT_SD_T0_$stub
	lwz r3,0(r29)
	cmpwi cr7,r3,0
	beq cr7,L497
	bl L__ZdlPv$stub
L497:
	add r0,r27,r25
	stw r30,4(r29)
	stw r27,0(r29)
	stw r0,8(r29)
	b L499
L469:
	lfs f0,-12(r4)
	li r0,0
	addi r2,r4,-12
	stw r0,4(r4)
	lwz r0,8(r2)
	stfs f0,0(r4)
	stw r0,8(r4)
	lfs f0,4(r2)
	stfs f0,4(r4)
	lwz r4,4(r3)
	b L470
	.p2align 4,,15
L488:
	stw r10,0(r9)
	stw r10,4(r9)
	lwz r0,8(r2)
	stw r0,8(r9)
	lfs f0,0(r2)
	stfs f0,0(r9)
	lfs f13,4(r2)
	stfs f13,4(r9)
	b L489
L491:
	li r0,0
	lwz r2,8(r28)
	stw r0,4(r9)
	stw r0,0(r9)
	stw r2,8(r9)
	lfs f0,0(r28)
	stfs f0,0(r9)
	lfs f13,4(r28)
	stfs f13,4(r9)
	b L492
	.p2align 4,,15
L495:
	stw r9,0(r30)
	stw r9,4(r30)
	lwz r0,8(r2)
	stw r0,8(r30)
	lfs f0,0(r2)
	stfs f0,0(r30)
	lfs f13,4(r2)
	stfs f13,4(r30)
	b L496
	.p2align 4,,15
L499:
	addi r1,r1,112
	lwz r0,8(r1)
	lmw r25,-28(r1)
	mtlr r0
	blr
LFE13076:
	.align 2
	.p2align 4,,15
	.globl __ZNSt6vectorISt4pairIN5boost7polygon13interval_dataIfEEiESaIS5_EE6insertEN9__gnu_cxx17__normal_iteratorIPS5_S7_EERKS5_
	.weak_definition __ZNSt6vectorISt4pairIN5boost7polygon13interval_dataIfEEiESaIS5_EE6insertEN9__gnu_cxx17__normal_iteratorIPS5_S7_EERKS5_
	.private_extern __ZNSt6vectorISt4pairIN5boost7polygon13interval_dataIfEEiESaIS5_EE6insertEN9__gnu_cxx17__normal_iteratorIPS5_S7_EERKS5_
__ZNSt6vectorISt4pairIN5boost7polygon13interval_dataIfEEiESaIS5_EE6insertEN9__gnu_cxx17__normal_iteratorIPS5_S7_EERKS5_:
LFB12611:
	mflr r0
LCFI161:
	stmw r27,-20(r1)
LCFI162:
	mr r29,r5
	stw r0,8(r1)
LCFI163:
	stwu r1,-96(r1)
LCFI164:
	mr r30,r4
	mr r27,r3
	mr r5,r6
	lwz r2,4(r4)
	lwz r0,8(r4)
	lwz r9,0(r4)
	cmpw cr7,r2,r0
	mr r28,r9
	beq cr7,L506
	cmpw cr7,r2,r29
	bne cr7,L506
	cmpwi cr7,r29,0
	bne cr7,L509
	.p2align 4,,15
L510:
	addi r2,r2,12
	stw r2,4(r30)
	b L511
	.p2align 4,,15
L506:
	mr r3,r30
	mr r4,r29
	bl L__ZNSt6vectorISt4pairIN5boost7polygon13interval_dataIfEEiESaIS5_EE13_M_insert_auxEN9__gnu_cxx17__normal_iteratorIPS5_S7_EERKS5_$stub
	lwz r9,0(r30)
	b L511
	.p2align 4,,15
L509:
	li r0,0
	lwz r2,8(r6)
	stw r0,4(r29)
	stw r0,0(r29)
	stw r2,8(r29)
	lfs f0,0(r6)
	stfs f0,0(r29)
	lfs f13,4(r6)
	stfs f13,4(r29)
	lwz r9,0(r4)
	lwz r2,4(r4)
	b L510
	.p2align 4,,15
L511:
	subf r0,r28,r29
	addi r1,r1,96
	mr r3,r27
	rlwinm r0,r0,0,0,29
	add r0,r9,r0
	stw r0,0(r27)
	lwz r0,8(r1)
	lmw r27,-20(r1)
	mtlr r0
	blr
LFE12611:
	.align 2
	.p2align 4,,15
	.globl __ZNSt6vectorIN5boost7polygon14rectangle_dataIfEESaIS3_EE13_M_insert_auxEN9__gnu_cxx17__normal_iteratorIPS3_S5_EERKS3_
	.weak_definition __ZNSt6vectorIN5boost7polygon14rectangle_dataIfEESaIS3_EE13_M_insert_auxEN9__gnu_cxx17__normal_iteratorIPS3_S5_EERKS3_
	.private_extern __ZNSt6vectorIN5boost7polygon14rectangle_dataIfEESaIS3_EE13_M_insert_auxEN9__gnu_cxx17__normal_iteratorIPS3_S5_EERKS3_
__ZNSt6vectorIN5boost7polygon14rectangle_dataIfEESaIS3_EE13_M_insert_auxEN9__gnu_cxx17__normal_iteratorIPS3_S5_EERKS3_:
LFB12781:
	mflr r0
LCFI165:
	stmw r25,-28(r1)
LCFI166:
	mr r30,r4
	bcl 20,31,"L00000000024$pb"
"L00000000024$pb":
	stw r0,8(r1)
LCFI167:
	stwu r1,-128(r1)
LCFI168:
	mr r28,r3
	mflr r31
	mr r29,r5
	mr r27,r30
	lwz r4,4(r3)
	lwz r0,8(r3)
	cmpw cr7,r4,r0
	beq cr7,L514
	cmpwi cr7,r4,0
	beq cr7,L516
	lfs f0,-16(r4)
	li r0,0
	addi r2,r4,-16
	stw r0,12(r4)
	stw r0,4(r4)
	stw r0,8(r4)
	stfs f0,0(r4)
	lfs f0,4(r2)
	stfs f0,4(r4)
	lfs f13,8(r2)
	stfs f13,8(r4)
	lfs f0,12(r2)
	stfs f0,12(r4)
	lwz r4,4(r3)
L516:
	mr r11,r4
	addi r4,r4,16
	stw r4,4(r28)
	addi r2,r11,-16
	subf r0,r27,r2
	srawi. r9,r0,4
	mtctr r9
	lfs f0,12(r29)
	lfs f13,0(r29)
	lfs f12,4(r29)
	lfs f11,8(r29)
	stfs f0,72(r1)
	stfs f13,60(r1)
	stfs f12,64(r1)
	stfs f11,68(r1)
	ble cr0,L518
	mr r9,r2
	mr r2,r11
	.p2align 4,,15
L520:
	lfs f0,-16(r9)
	stfs f0,-16(r2)
	lfs f13,-12(r9)
	stfs f13,-12(r2)
	lfs f0,-8(r9)
	stfs f0,-8(r2)
	lfs f13,-4(r9)
	addi r9,r9,-16
	stfs f13,-4(r2)
	addi r2,r2,-16
	bdnz L520
L518:
	lfs f13,60(r1)
	lfs f0,64(r1)
	stfs f13,0(r30)
	stfs f0,4(r30)
	lfs f0,68(r1)
	stfs f0,8(r30)
	lfs f13,72(r1)
	stfs f13,12(r30)
	b L546
L514:
	lwz r0,0(r3)
	lis r2,0xfff
	ori r2,r2,65535
	subf r0,r0,r4
	srawi r0,r0,4
	cmpw cr7,r0,r2
	bne+ cr7,L522
	addis r3,r31,ha16(LC4-"L00000000024$pb")
	la r3,lo16(LC4-"L00000000024$pb")(r3)
	bl L__ZSt20__throw_length_errorPKc$stub
	.p2align 4,,15
L522:
	cmpwi cr7,r0,0
	li r2,1
	beq cr7,L548
	slwi r2,r0,1
	li r25,-16
	cmplw cr7,r2,r0
	blt cr7,L531
L548:
	lis r0,0xfff
	slwi r25,r2,4
	ori r0,r0,65535
	cmplw cr7,r2,r0
	ble cr7,L531
	bl L__ZSt17__throw_bad_allocv$stub
	.p2align 4,,15
L531:
	mr r3,r25
	bl L__Znwm$stub
	lwz r9,0(r28)
	mr r26,r3
	mr r2,r3
	cmpw cr7,r30,r9
	beq cr7,L532
	li r0,0
	.p2align 4,,15
L549:
	cmpwi cr7,r2,0
	beq cr7,L534
	stw r0,0(r2)
	stw r0,4(r2)
	stw r0,8(r2)
	stw r0,12(r2)
	lfs f0,0(r9)
	stfs f0,0(r2)
	lfs f13,4(r9)
	stfs f13,4(r2)
	lfs f0,8(r9)
	stfs f0,8(r2)
	lfs f13,12(r9)
	stfs f13,12(r2)
L534:
	addi r9,r9,16
	addi r2,r2,16
	cmpw cr7,r30,r9
	bne cr7,L549
L532:
	cmpwi cr7,r2,0
	beq cr7,L536
	li r0,0
	stw r0,12(r2)
	stw r0,0(r2)
	stw r0,4(r2)
	stw r0,8(r2)
	lfs f0,0(r29)
	stfs f0,0(r2)
	lfs f13,4(r29)
	stfs f13,4(r2)
	lfs f0,8(r29)
	stfs f0,8(r2)
	lfs f13,12(r29)
	stfs f13,12(r2)
L536:
	lwz r4,4(r28)
	mr r9,r27
	addi r30,r2,16
	cmpw cr7,r4,r27
	beq cr7,L538
	mr r2,r27
	li r0,0
	.p2align 4,,15
L540:
	cmpwi cr7,r30,0
	beq cr7,L541
	stw r0,0(r30)
	stw r0,4(r30)
	stw r0,8(r30)
	stw r0,12(r30)
	lfs f0,0(r9)
	stfs f0,0(r30)
	lfs f13,4(r9)
	stfs f13,4(r30)
	lfs f0,8(r9)
	stfs f0,8(r30)
	lfs f13,12(r9)
	stfs f13,12(r30)
L541:
	addi r2,r2,16
	addi r30,r30,16
	cmpw cr7,r4,r2
	beq cr7,L547
	mr r9,r2
	b L540
L547:
	lwz r4,4(r28)
L538:
	lwz r3,0(r28)
	addi r5,r1,56
	bl L__ZSt8_DestroyIN9__gnu_cxx17__normal_iteratorIPN5boost7polygon14rectangle_dataIfEESt6vectorIS5_SaIS5_EEEES8_EvT_SB_T0_$stub
	lwz r3,0(r28)
	cmpwi cr7,r3,0
	beq cr7,L544
	bl L__ZdlPv$stub
L544:
	add r0,r26,r25
	stw r30,4(r28)
	stw r26,0(r28)
	stw r0,8(r28)
	.p2align 4,,15
L546:
	addi r1,r1,128
	lwz r0,8(r1)
	lmw r25,-28(r1)
	mtlr r0
	blr
LFE12781:
	.align 2
	.p2align 4,,15
	.globl __ZNSt6vectorIN5boost7polygon14rectangle_dataIfEESaIS3_EE6insertEN9__gnu_cxx17__normal_iteratorIPS3_S5_EERKS3_
	.weak_definition __ZNSt6vectorIN5boost7polygon14rectangle_dataIfEESaIS3_EE6insertEN9__gnu_cxx17__normal_iteratorIPS3_S5_EERKS3_
	.private_extern __ZNSt6vectorIN5boost7polygon14rectangle_dataIfEESaIS3_EE6insertEN9__gnu_cxx17__normal_iteratorIPS3_S5_EERKS3_
__ZNSt6vectorIN5boost7polygon14rectangle_dataIfEESaIS3_EE6insertEN9__gnu_cxx17__normal_iteratorIPS3_S5_EERKS3_:
LFB12212:
	mflr r0
LCFI169:
	stmw r27,-20(r1)
LCFI170:
	mr r30,r5
	stw r0,8(r1)
LCFI171:
	stwu r1,-96(r1)
LCFI172:
	mr r29,r4
	mr r27,r3
	mr r5,r6
	lwz r2,4(r4)
	lwz r0,8(r4)
	lwz r9,0(r4)
	cmpw cr7,r2,r0
	mr r28,r9
	beq cr7,L553
	cmpw cr7,r2,r30
	bne cr7,L553
	cmpwi cr7,r30,0
	beq cr7,L556
	li r0,0
	stw r0,12(r30)
	stw r0,0(r30)
	stw r0,4(r30)
	stw r0,8(r30)
	lfs f0,0(r6)
	stfs f0,0(r30)
	lfs f13,4(r6)
	stfs f13,4(r30)
	lfs f0,8(r6)
	stfs f0,8(r30)
	lfs f13,12(r6)
	stfs f13,12(r30)
	lwz r9,0(r4)
	lwz r2,4(r4)
L556:
	addi r0,r2,16
	stw r0,4(r29)
	b L558
	.p2align 4,,15
L553:
	mr r3,r29
	mr r4,r30
	bl L__ZNSt6vectorIN5boost7polygon14rectangle_dataIfEESaIS3_EE13_M_insert_auxEN9__gnu_cxx17__normal_iteratorIPS3_S5_EERKS3_$stub
	lwz r9,0(r29)
L558:
	subf r0,r28,r30
	addi r1,r1,96
	mr r3,r27
	rlwinm r0,r0,0,0,27
	add r0,r9,r0
	stw r0,0(r27)
	lwz r0,8(r1)
	lmw r27,-20(r1)
	mtlr r0
	blr
LFE12212:
	.text
	.align 2
	.p2align 4,,15
___tcf_1:
LFB9037:
	mflr r0
LCFI173:
	stmw r30,-8(r1)
LCFI174:
	bcl 20,31,"L00000000025$pb"
"L00000000025$pb":
	stw r0,8(r1)
LCFI175:
	stwu r1,-80(r1)
LCFI176:
	mflr r31
	addis r2,r31,ha16(__ZZN5boost16exception_detail27get_static_exception_objectINS0_14bad_exception_EEENS_13exception_ptrEvE2ep-"L00000000025$pb")
	la r2,lo16(__ZZN5boost16exception_detail27get_static_exception_objectINS0_14bad_exception_EEENS_13exception_ptrEvE2ep-"L00000000025$pb")(r2)
	lwz r30,4(r2)
	cmpwi cr7,r30,0
	beq cr7,L565
	addi r2,r30,4
	sync
	0:
	lwarx r9, 0, r2
	addi r9, r9, -1
	stwcx. r9, 0, r2
	bne- 0b
	isync
	cmpwi cr7,r9,0
	bne cr7,L565
	lwz r2,0(r30)
	mr r3,r30
	lwz r0,8(r2)
	mtctr r0
	mr r12,r0
	bctrl
	addi r2,r30,8
	sync
	0:
	lwarx r9, 0, r2
	addi r9, r9, -1
	stwcx. r9, 0, r2
	bne- 0b
	isync
	cmpwi cr7,r9,0
	bne cr7,L565
	lwz r2,0(r30)
	addi r1,r1,80
	mr r3,r30
	lmw r30,-8(r1)
	lwz r0,12(r2)
	mtctr r0
	mr r12,r0
	lwz r0,8(r1)
	mtlr r0
	bctr
	.p2align 4,,15
L565:
	addi r1,r1,80
	lwz r0,8(r1)
	lmw r30,-8(r1)
	mtlr r0
	blr
LFE9037:
	.align 2
	.p2align 4,,15
___tcf_0:
LFB9023:
	mflr r0
LCFI177:
	stmw r30,-8(r1)
LCFI178:
	bcl 20,31,"L00000000026$pb"
"L00000000026$pb":
	stw r0,8(r1)
LCFI179:
	stwu r1,-80(r1)
LCFI180:
	mflr r31
	addis r2,r31,ha16(__ZZN5boost16exception_detail27get_static_exception_objectINS0_10bad_alloc_EEENS_13exception_ptrEvE2ep-"L00000000026$pb")
	la r2,lo16(__ZZN5boost16exception_detail27get_static_exception_objectINS0_10bad_alloc_EEENS_13exception_ptrEvE2ep-"L00000000026$pb")(r2)
	lwz r30,4(r2)
	cmpwi cr7,r30,0
	beq cr7,L571
	addi r2,r30,4
	sync
	0:
	lwarx r9, 0, r2
	addi r9, r9, -1
	stwcx. r9, 0, r2
	bne- 0b
	isync
	cmpwi cr7,r9,0
	bne cr7,L571
	lwz r2,0(r30)
	mr r3,r30
	lwz r0,8(r2)
	mtctr r0
	mr r12,r0
	bctrl
	addi r2,r30,8
	sync
	0:
	lwarx r9, 0, r2
	addi r9, r9, -1
	stwcx. r9, 0, r2
	bne- 0b
	isync
	cmpwi cr7,r9,0
	bne cr7,L571
	lwz r2,0(r30)
	addi r1,r1,80
	mr r3,r30
	lmw r30,-8(r1)
	lwz r0,12(r2)
	mtctr r0
	mr r12,r0
	lwz r0,8(r1)
	mtlr r0
	bctr
	.p2align 4,,15
L571:
	addi r1,r1,80
	lwz r0,8(r1)
	lmw r30,-8(r1)
	mtlr r0
	blr
LFE9023:
	.section __TEXT,__textcoal_nt,coalesced,pure_instructions
	.align 2
	.p2align 4,,15
	.globl __ZNSt6vectorI18tSimpleCallbackArgSaIS0_EE13_M_insert_auxEN9__gnu_cxx17__normal_iteratorIPS0_S2_EERKS0_
	.weak_definition __ZNSt6vectorI18tSimpleCallbackArgSaIS0_EE13_M_insert_auxEN9__gnu_cxx17__normal_iteratorIPS0_S2_EERKS0_
	.private_extern __ZNSt6vectorI18tSimpleCallbackArgSaIS0_EE13_M_insert_auxEN9__gnu_cxx17__normal_iteratorIPS0_S2_EERKS0_
__ZNSt6vectorI18tSimpleCallbackArgSaIS0_EE13_M_insert_auxEN9__gnu_cxx17__normal_iteratorIPS0_S2_EERKS0_:
LFB10190:
	mflr r0
LCFI181:
	stmw r25,-28(r1)
LCFI182:
	mr r30,r4
	bcl 20,31,"L00000000027$pb"
"L00000000027$pb":
	stw r0,8(r1)
LCFI183:
	stwu r1,-112(r1)
LCFI184:
	mr r29,r3
	mflr r31
	mr r28,r5
	mr r27,r30
	lwz r4,4(r3)
	lwz r0,8(r3)
	cmpw cr7,r4,r0
	beq cr7,L573
	cmpwi cr7,r4,0
	beq cr7,L575
	lwz r0,-8(r4)
	lwz r2,-4(r4)
	stw r0,0(r4)
	stw r2,4(r4)
	lwz r4,4(r3)
L575:
	mr r9,r4
	addi r4,r4,8
	stw r4,4(r29)
	addi r2,r9,-8
	subf r0,r27,r2
	srawi. r11,r0,3
	mtctr r11
	lwz r10,0(r28)
	lwz r5,4(r28)
	ble cr0,L577
	mr r11,r9
	mr r9,r2
	.p2align 4,,15
L579:
	lwz r0,-8(r9)
	lwz r2,-4(r9)
	addi r9,r9,-8
	stw r0,-8(r11)
	stw r2,-4(r11)
	addi r11,r11,-8
	bdnz L579
L577:
	stw r10,0(r30)
	stw r5,4(r30)
	b L605
L573:
	lwz r0,0(r3)
	lis r2,0x1fff
	ori r2,r2,65535
	subf r0,r0,r4
	srawi r0,r0,3
	cmpw cr7,r0,r2
	bne+ cr7,L581
	addis r3,r31,ha16(LC4-"L00000000027$pb")
	la r3,lo16(LC4-"L00000000027$pb")(r3)
	bl L__ZSt20__throw_length_errorPKc$stub
	.p2align 4,,15
L581:
	cmpwi cr7,r0,0
	li r2,1
	beq cr7,L607
	slwi r2,r0,1
	li r25,-8
	cmplw cr7,r2,r0
	blt cr7,L590
L607:
	lis r0,0x1fff
	slwi r25,r2,3
	ori r0,r0,65535
	cmplw cr7,r2,r0
	ble cr7,L590
	bl L__ZSt17__throw_bad_allocv$stub
	.p2align 4,,15
L590:
	mr r3,r25
	bl L__Znwm$stub
	lwz r11,0(r29)
	mr r26,r3
	mr r9,r3
	cmpw cr7,r30,r11
	beq cr7,L591
	.p2align 4,,15
L608:
	cmpwi cr7,r9,0
	beq cr7,L593
	lwz r0,0(r11)
	lwz r2,4(r11)
	stw r0,0(r9)
	stw r2,4(r9)
L593:
	addi r11,r11,8
	addi r9,r9,8
	cmpw cr7,r30,r11
	bne cr7,L608
L591:
	cmpwi cr7,r9,0
	beq cr7,L595
	lwz r0,4(r28)
	lwz r2,0(r28)
	stw r0,4(r9)
	stw r2,0(r9)
L595:
	lwz r4,4(r29)
	mr r2,r27
	addi r30,r9,8
	cmpw cr7,r4,r27
	beq cr7,L597
	mr r9,r27
	.p2align 4,,15
L599:
	cmpwi cr7,r30,0
	beq cr7,L600
	lwz r0,4(r2)
	lwz r2,0(r2)
	stw r0,4(r30)
	stw r2,0(r30)
L600:
	addi r9,r9,8
	addi r30,r30,8
	cmpw cr7,r4,r9
	beq cr7,L606
	mr r2,r9
	b L599
L606:
	lwz r4,4(r29)
L597:
	lwz r3,0(r29)
	addi r5,r1,56
	bl L__ZSt8_DestroyIN9__gnu_cxx17__normal_iteratorIP18tSimpleCallbackArgSt6vectorIS2_SaIS2_EEEES5_EvT_S8_T0_$stub
	lwz r3,0(r29)
	cmpwi cr7,r3,0
	beq cr7,L603
	bl L__ZdlPv$stub
L603:
	add r0,r26,r25
	stw r30,4(r29)
	stw r26,0(r29)
	stw r0,8(r29)
	.p2align 4,,15
L605:
	addi r1,r1,112
	lwz r0,8(r1)
	lmw r25,-28(r1)
	mtlr r0
	blr
LFE10190:
	.align 2
	.p2align 4,,15
	.globl __ZNSt6vectorI18tSimpleCallbackArgSaIS0_EEaSERKS2_
	.weak_definition __ZNSt6vectorI18tSimpleCallbackArgSaIS0_EEaSERKS2_
	.private_extern __ZNSt6vectorI18tSimpleCallbackArgSaIS0_EEaSERKS2_
__ZNSt6vectorI18tSimpleCallbackArgSaIS0_EEaSERKS2_:
LFB9332:
	mflr r0
LCFI185:
	cmpw cr7,r4,r3
	mr r6,r4
	stmw r26,-24(r1)
LCFI186:
	mr r28,r3
	stw r0,8(r1)
LCFI187:
	stwu r1,-112(r1)
LCFI188:
	beq cr7,L612
	lwz r8,0(r3)
	lwz r29,4(r4)
	lwz r30,0(r4)
	lwz r0,8(r3)
	mr r10,r8
	subf r2,r30,r29
	subf r0,r8,r0
	srawi r7,r2,3
	srawi r0,r0,3
	cmplw cr7,r7,r0
	ble cr7,L614
	lis r0,0x1fff
	ori r0,r0,65535
	cmplw cr7,r7,r0
	ble+ cr7,L616
	bl L__ZSt17__throw_bad_allocv$stub
	.p2align 4,,15
L616:
	slwi r26,r7,3
	mr r3,r26
	bl L__Znwm$stub
	cmpw cr7,r29,r30
	mr r11,r30
	mr r27,r3
	beq cr7,L618
	mr r2,r30
	mr r9,r3
	.p2align 4,,15
L620:
	cmpwi cr7,r9,0
	beq cr7,L621
	lwz r0,4(r2)
	lwz r2,0(r2)
	stw r0,4(r9)
	stw r2,0(r9)
L621:
	addi r2,r11,8
	cmpw cr7,r2,r29
	beq cr7,L618
	addi r9,r9,8
	mr r11,r2
	b L620
L618:
	lwz r3,0(r28)
	lwz r4,4(r28)
	addi r5,r1,56
	bl L__ZSt8_DestroyIP18tSimpleCallbackArgSaIS0_EEvT_S3_T0_$stub
	lwz r3,0(r28)
	cmpwi cr7,r3,0
	beq cr7,L624
	bl L__ZdlPv$stub
L624:
	add r0,r27,r26
	mr r8,r27
	stw r27,0(r28)
	mr r3,r26
	stw r0,8(r28)
	b L626
	.p2align 4,,15
L614:
	lwz r4,4(r3)
	subf r0,r8,r4
	mr r11,r4
	srawi r0,r0,3
	cmplw cr7,r7,r0
	bgt cr7,L627
	cmpwi cr7,r7,0
	mr r3,r8
	slwi r29,r7,3
	ble cr7,L629
	mtctr r7
	mr r11,r30
	mr r9,r8
	.p2align 4,,15
L631:
	lwz r0,0(r11)
	lwz r2,4(r11)
	addi r11,r11,8
	stw r0,0(r9)
	stw r2,4(r9)
	addi r9,r9,8
	bdnz L631
	slwi r29,r7,3
	lwz r4,4(r28)
	add r3,r29,r8
L629:
	addi r5,r1,57
	bl L__ZSt8_DestroyIN9__gnu_cxx17__normal_iteratorIP18tSimpleCallbackArgSt6vectorIS2_SaIS2_EEEES5_EvT_S8_T0_$stub
	lwz r8,0(r28)
	mr r3,r29
	b L626
L627:
	slwi r0,r0,3
	srawi. r2,r0,3
	add r0,r30,r0
	mtctr r2
	ble cr0,L633
	mr r9,r30
	.p2align 4,,15
L635:
	lwz r0,0(r9)
	lwz r2,4(r9)
	addi r9,r9,8
	stw r0,0(r10)
	stw r2,4(r10)
	addi r10,r10,8
	bdnz L635
	lwz r11,4(r28)
	lwz r8,0(r28)
	lwz r2,0(r6)
	lwz r29,4(r6)
	subf r0,r8,r11
	rlwinm r0,r0,0,0,28
	add r0,r0,r2
L633:
	cmpw cr7,r29,r0
	mr r9,r0
	slwi r3,r7,3
	beq cr7,L626
	.p2align 4,,15
L650:
	cmpwi cr7,r11,0
	beq cr7,L640
	lwz r0,0(r9)
	lwz r2,4(r9)
	stw r0,0(r11)
	stw r2,4(r11)
L640:
	addi r9,r9,8
	cmpw cr7,r29,r9
	beq cr7,L642
	addi r11,r11,8
	b L650
L642:
	lwz r8,0(r28)
	slwi r3,r7,3
	.p2align 4,,15
L626:
	add r0,r3,r8
	stw r0,4(r28)
L612:
	addi r1,r1,112
	mr r3,r28
	lwz r0,8(r1)
	lmw r26,-24(r1)
	mtlr r0
	blr
LFE9332:
	.align 2
	.p2align 4,,15
	.globl __ZN5boost6detail15sp_counted_baseD1Ev
	.weak_definition __ZN5boost6detail15sp_counted_baseD1Ev
	.private_extern __ZN5boost6detail15sp_counted_baseD1Ev
__ZN5boost6detail15sp_counted_baseD1Ev:
LFB4482:
	mflr r0
	bcl 20,31,"L00000000028$pb"
"L00000000028$pb":
	mflr r10
	mtlr r0
	addis r2,r10,ha16(__ZTVN5boost6detail15sp_counted_baseE-"L00000000028$pb")
	la r2,lo16(__ZTVN5boost6detail15sp_counted_baseE-"L00000000028$pb")(r2)
	addi r2,r2,8
	stw r2,0(r3)
	blr
LFE4482:
	.align 2
	.p2align 4,,15
	.globl __ZN5boost6detail17sp_counted_impl_pINS_16exception_detail10clone_implINS2_10bad_alloc_EEEED0Ev
	.weak_definition __ZN5boost6detail17sp_counted_impl_pINS_16exception_detail10clone_implINS2_10bad_alloc_EEEED0Ev
	.private_extern __ZN5boost6detail17sp_counted_impl_pINS_16exception_detail10clone_implINS2_10bad_alloc_EEEED0Ev
__ZN5boost6detail17sp_counted_impl_pINS_16exception_detail10clone_implINS2_10bad_alloc_EEEED0Ev:
LFB14148:
	mflr r0
	bcl 20,31,"L00000000029$pb"
"L00000000029$pb":
	mflr r10
	mtlr r0
	addis r2,r10,ha16(__ZTVN5boost6detail15sp_counted_baseE-"L00000000029$pb")
	la r2,lo16(__ZTVN5boost6detail15sp_counted_baseE-"L00000000029$pb")(r2)
	addi r2,r2,8
	stw r2,0(r3)
	b L__ZdlPv$stub
LFE14148:
	.align 2
	.p2align 4,,15
	.globl __ZN5boost6detail17sp_counted_impl_pINS_16exception_detail10clone_implINS2_10bad_alloc_EEEED1Ev
	.weak_definition __ZN5boost6detail17sp_counted_impl_pINS_16exception_detail10clone_implINS2_10bad_alloc_EEEED1Ev
	.private_extern __ZN5boost6detail17sp_counted_impl_pINS_16exception_detail10clone_implINS2_10bad_alloc_EEEED1Ev
__ZN5boost6detail17sp_counted_impl_pINS_16exception_detail10clone_implINS2_10bad_alloc_EEEED1Ev:
LFB14147:
	mflr r0
	bcl 20,31,"L00000000030$pb"
"L00000000030$pb":
	mflr r10
	mtlr r0
	addis r2,r10,ha16(__ZTVN5boost6detail15sp_counted_baseE-"L00000000030$pb")
	la r2,lo16(__ZTVN5boost6detail15sp_counted_baseE-"L00000000030$pb")(r2)
	addi r2,r2,8
	stw r2,0(r3)
	blr
LFE14147:
	.align 2
	.p2align 4,,15
	.globl __ZN5boost6detail17sp_counted_impl_pINS_16exception_detail10clone_implINS2_14bad_exception_EEEED0Ev
	.weak_definition __ZN5boost6detail17sp_counted_impl_pINS_16exception_detail10clone_implINS2_14bad_exception_EEEED0Ev
	.private_extern __ZN5boost6detail17sp_counted_impl_pINS_16exception_detail10clone_implINS2_14bad_exception_EEEED0Ev
__ZN5boost6detail17sp_counted_impl_pINS_16exception_detail10clone_implINS2_14bad_exception_EEEED0Ev:
LFB14144:
	mflr r0
	bcl 20,31,"L00000000031$pb"
"L00000000031$pb":
	mflr r10
	mtlr r0
	addis r2,r10,ha16(__ZTVN5boost6detail15sp_counted_baseE-"L00000000031$pb")
	la r2,lo16(__ZTVN5boost6detail15sp_counted_baseE-"L00000000031$pb")(r2)
	addi r2,r2,8
	stw r2,0(r3)
	b L__ZdlPv$stub
LFE14144:
	.align 2
	.p2align 4,,15
	.globl __ZThn24_NK5boost16exception_detail10clone_implINS0_10bad_alloc_EE5cloneEv
	.weak_definition __ZThn24_NK5boost16exception_detail10clone_implINS0_10bad_alloc_EE5cloneEv
	.private_extern __ZThn24_NK5boost16exception_detail10clone_implINS0_10bad_alloc_EE5cloneEv
__ZThn24_NK5boost16exception_detail10clone_implINS0_10bad_alloc_EE5cloneEv:
LFB14263:
	addi r3,r3,-24
	b L__ZNK5boost16exception_detail10clone_implINS0_10bad_alloc_EE5cloneEv$stub
LFE14263:
	.align 2
	.p2align 4,,15
	.globl __ZNK5boost16exception_detail10clone_implINS0_10bad_alloc_EE5cloneEv
	.weak_definition __ZNK5boost16exception_detail10clone_implINS0_10bad_alloc_EE5cloneEv
	.private_extern __ZNK5boost16exception_detail10clone_implINS0_10bad_alloc_EE5cloneEv
__ZNK5boost16exception_detail10clone_implINS0_10bad_alloc_EE5cloneEv:
LFB14225:
	mflr r0
LCFI189:
	stmw r29,-12(r1)
LCFI190:
	bcl 20,31,"L00000000032$pb"
"L00000000032$pb":
	stw r0,8(r1)
LCFI191:
	stwu r1,-80(r1)
LCFI192:
	mr r29,r3
	mflr r31
	li r3,28
LEHB7:
	bl L__Znwm$stub
LEHE7:
	addis r2,r31,ha16(L__ZTVN5boost9exceptionE$non_lazy_ptr-"L00000000032$pb")
	mr r30,r3
	lwz r3,4(r29)
	lwz r2,lo16(L__ZTVN5boost9exceptionE$non_lazy_ptr-"L00000000032$pb")(r2)
	cmpwi cr7,r3,0
	stw r3,4(r30)
	addi r2,r2,8
	stw r2,0(r30)
	beq cr7,L664
	lwz r2,0(r3)
	lwz r0,12(r2)
	mtctr r0
	mr r12,r0
LEHB8:
	bctrl
LEHE8:
	b L664
L668:
L666:
	mr r29,r3
	mr r3,r30
	bl L__ZdlPv$stub
	mr r3,r29
LEHB9:
	bl L__Unwind_Resume$stub
LEHE9:
	.p2align 4,,15
L664:
	addis r2,r31,ha16(__ZTVN5boost16exception_detail10clone_implINS0_10bad_alloc_EEE-"L00000000032$pb")
	lwz r0,8(r29)
	lwz r8,16(r29)
	lwz r9,12(r29)
	addi r1,r1,80
	addi r3,r30,24
	la r2,lo16(__ZTVN5boost16exception_detail10clone_implINS0_10bad_alloc_EEE-"L00000000032$pb")(r2)
	addi r10,r2,52
	addi r11,r2,8
	stw r0,8(r30)
	stw r8,16(r30)
	stw r9,12(r30)
	addi r2,r2,32
	stw r11,0(r30)
	stw r10,24(r30)
	stw r2,20(r30)
	lwz r0,8(r1)
	lmw r29,-12(r1)
	mtlr r0
	blr
LFE14225:
	.section __DATA,__gcc_except_tab
GCC_except_table3:
LLSDA14225:
	.byte	0xff
	.byte	0xff
	.byte	0x3
	.byte	0x27
	.set L$set$17,LEHB7-LFB14225
	.long L$set$17
	.set L$set$18,LEHE7-LEHB7
	.long L$set$18
	.long	0x0
	.byte	0x0
	.set L$set$19,LEHB8-LFB14225
	.long L$set$19
	.set L$set$20,LEHE8-LEHB8
	.long L$set$20
	.set L$set$21,L668-LFB14225
	.long L$set$21
	.byte	0x0
	.set L$set$22,LEHB9-LFB14225
	.long L$set$22
	.set L$set$23,LEHE9-LEHB9
	.long L$set$23
	.long	0x0
	.byte	0x0
	.section __TEXT,__textcoal_nt,coalesced,pure_instructions
	.align 2
	.p2align 4,,15
	.globl __ZSt9sort_heapIN9__gnu_cxx17__normal_iteratorIPSt4pairIfS2_IfiEESt6vectorIS4_SaIS4_EEEEEvT_SA_
	.weak_definition __ZSt9sort_heapIN9__gnu_cxx17__normal_iteratorIPSt4pairIfS2_IfiEESt6vectorIS4_SaIS4_EEEEEvT_SA_
	.private_extern __ZSt9sort_heapIN9__gnu_cxx17__normal_iteratorIPSt4pairIfS2_IfiEESt6vectorIS4_SaIS4_EEEEEvT_SA_
__ZSt9sort_heapIN9__gnu_cxx17__normal_iteratorIPSt4pairIfS2_IfiEESt6vectorIS4_SaIS4_EEEEEvT_SA_:
LFB13688:
	mflr r0
LCFI193:
	lis r2,0xaaaa
	stmw r27,-20(r1)
LCFI194:
	ori r2,r2,43691
	stw r0,8(r1)
LCFI195:
	subf r0,r3,r4
	stwu r1,-112(r1)
LCFI196:
	srawi r0,r0,2
	mr r29,r3
	mr r30,r4
	mullw r0,r0,r2
	cmpwi cr7,r0,1
	ble cr7,L673
	addi r0,r4,-12
	mr r27,r2
	subf r28,r3,r0
	.p2align 4,,15
L672:
	addi r30,r30,-12
	mr r3,r29
	li r4,0
	lfs f0,4(r30)
	lfs f13,0(r30)
	subf r5,r29,r30
	lwz r0,8(r30)
	srawi r5,r5,2
	mullw r5,r5,r27
	stw r0,64(r1)
	stfs f0,60(r1)
	stfs f13,56(r1)
	lwz r0,0(r29)
	lwz r2,4(r29)
	lwz r9,8(r29)
	stw r0,0(r30)
	stw r2,4(r30)
	stw r9,8(r30)
	lwz r6,56(r1)
	lwz r7,60(r1)
	lwz r8,64(r1)
	bl L__ZSt13__adjust_heapIN9__gnu_cxx17__normal_iteratorIPSt4pairIfS2_IfiEESt6vectorIS4_SaIS4_EEEEiS4_EvT_T0_SB_T1_$stub
	srawi r0,r28,2
	addi r28,r28,-12
	mullw r0,r0,r27
	cmpwi cr7,r0,1
	bgt cr7,L672
L673:
	addi r1,r1,112
	lwz r0,8(r1)
	lmw r27,-20(r1)
	mtlr r0
	blr
LFE13688:
	.align 2
	.p2align 4,,15
	.globl __ZSt12partial_sortIN9__gnu_cxx17__normal_iteratorIPSt4pairIfS2_IfiEESt6vectorIS4_SaIS4_EEEEEvT_SA_SA_
	.weak_definition __ZSt12partial_sortIN9__gnu_cxx17__normal_iteratorIPSt4pairIfS2_IfiEESt6vectorIS4_SaIS4_EEEEEvT_SA_SA_
	.private_extern __ZSt12partial_sortIN9__gnu_cxx17__normal_iteratorIPSt4pairIfS2_IfiEESt6vectorIS4_SaIS4_EEEEEvT_SA_SA_
__ZSt12partial_sortIN9__gnu_cxx17__normal_iteratorIPSt4pairIfS2_IfiEESt6vectorIS4_SaIS4_EEEEEvT_SA_SA_:
LFB13406:
	mflr r0
LCFI197:
	stmw r26,-24(r1)
LCFI198:
	mr r27,r5
	stw r0,8(r1)
LCFI199:
	stwu r1,-112(r1)
LCFI200:
	mr r28,r4
	mr r30,r3
	bl L__ZSt9make_heapIN9__gnu_cxx17__normal_iteratorIPSt4pairIfS2_IfiEESt6vectorIS4_SaIS4_EEEEEvT_SA_$stub
	cmplw cr7,r28,r27
	bge cr7,L676
	subf r2,r30,r28
	lis r0,0xaaaa
	mr r9,r28
	mr r29,r28
	srawi r2,r2,2
	ori r0,r0,43691
	mullw r26,r2,r0
	.p2align 4,,15
L678:
	lfs f12,0(r9)
	lfs f0,0(r30)
	fcmpu cr7,f12,f0
	blt cr7,L687
	bgt cr7,L681
	lfs f13,4(r9)
	lfs f0,4(r30)
	fcmpu cr7,f13,f0
	blt cr7,L688
	bgt cr7,L681
	lwz r2,8(r9)
	lwz r0,8(r30)
	cmpw cr7,r2,r0
	bge cr7,L681
	b L679
	.p2align 4,,15
L687:
	lfs f13,4(r9)
	lwz r2,8(r9)
	b L679
	.p2align 4,,15
L688:
	lwz r2,8(r9)
L679:
	stw r2,64(r1)
	stfs f13,60(r1)
	mr r3,r30
	li r4,0
	stfs f12,56(r1)
	mr r5,r26
	lwz r0,0(r30)
	lwz r2,4(r30)
	lwz r9,8(r30)
	stw r0,0(r29)
	stw r2,4(r29)
	stw r9,8(r29)
	lwz r6,56(r1)
	lwz r7,60(r1)
	lwz r8,64(r1)
	bl L__ZSt13__adjust_heapIN9__gnu_cxx17__normal_iteratorIPSt4pairIfS2_IfiEESt6vectorIS4_SaIS4_EEEEiS4_EvT_T0_SB_T1_$stub
L681:
	addi r9,r29,12
	cmplw cr7,r27,r9
	ble cr7,L676
	mr r29,r9
	b L678
L676:
	addi r1,r1,112
	mr r3,r30
	mr r4,r28
	lwz r0,8(r1)
	lmw r26,-24(r1)
	mtlr r0
	b L__ZSt9sort_heapIN9__gnu_cxx17__normal_iteratorIPSt4pairIfS2_IfiEESt6vectorIS4_SaIS4_EEEEEvT_SA_$stub
LFE13406:
	.align 2
	.p2align 4,,15
	.globl __ZSt16__introsort_loopIN9__gnu_cxx17__normal_iteratorIPSt4pairIfS2_IfiEESt6vectorIS4_SaIS4_EEEEiEvT_SA_T0_
	.weak_definition __ZSt16__introsort_loopIN9__gnu_cxx17__normal_iteratorIPSt4pairIfS2_IfiEESt6vectorIS4_SaIS4_EEEEiEvT_SA_T0_
	.private_extern __ZSt16__introsort_loopIN9__gnu_cxx17__normal_iteratorIPSt4pairIfS2_IfiEESt6vectorIS4_SaIS4_EEEEiEvT_SA_T0_
__ZSt16__introsort_loopIN9__gnu_cxx17__normal_iteratorIPSt4pairIfS2_IfiEESt6vectorIS4_SaIS4_EEEEiEvT_SA_T0_:
LFB13034:
	mflr r0
LCFI201:
	lis r2,0xaaaa
	stmw r25,-28(r1)
LCFI202:
	ori r2,r2,43691
	stw r0,8(r1)
LCFI203:
	subf r0,r3,r4
	stwu r1,-112(r1)
LCFI204:
	srawi r0,r0,2
	mr r30,r3
	mr r29,r4
	mullw r0,r0,r2
	mr r27,r3
	mr r28,r5
	cmpwi cr7,r0,16
	ble cr7,L722
	cmpwi cr7,r5,0
	beq cr7,L692
	mr r25,r2
	addi r26,r1,72
	b L693
	.p2align 4,,15
L694:
	cmpwi cr7,r28,0
	bne cr7,L693
L692:
	addi r1,r1,112
	mr r4,r29
	mr r3,r30
	mr r5,r29
	lwz r0,8(r1)
	lmw r25,-28(r1)
	mtlr r0
	b L__ZSt12partial_sortIN9__gnu_cxx17__normal_iteratorIPSt4pairIfS2_IfiEESt6vectorIS4_SaIS4_EEEEEvT_SA_SA_$stub
	.p2align 4,,15
L693:
	srawi r2,r0,1
	lfs f11,0(r30)
	addi r28,r28,-1
	mr r11,r30
	addi r9,r29,-12
	mulli r2,r2,12
	lfsx f12,r2,r30
	add r10,r2,r30
	fcmpu cr7,f11,f12
	blt cr7,L695
	bgt cr7,L697
	lfs f13,4(r30)
	lfs f0,4(r10)
	fcmpu cr7,f13,f0
	blt cr7,L695
	bgt cr7,L697
	lwz r0,8(r30)
	lwz r2,8(r10)
	cmpw cr7,r0,r2
	bge cr7,L697
	.p2align 4,,15
L695:
	lfs f10,0(r9)
	fcmpu cr7,f12,f10
	blt cr7,L701
	bgt cr7,L703
	lfs f13,4(r10)
	lfs f0,4(r9)
	fcmpu cr7,f13,f0
	blt cr7,L701
	bgt cr7,L703
	lwz r0,8(r10)
	lwz r2,8(r9)
	cmpw cr7,r0,r2
	blt cr7,L701
	.p2align 4,,15
L703:
	fcmpu cr7,f11,f10
	blt cr7,L707
	bgt cr7,L709
	lfs f13,4(r30)
	lfs f0,4(r9)
	fcmpu cr7,f13,f0
	blt cr7,L707
	bgt cr7,L709
	lwz r0,8(r30)
	lwz r2,8(r9)
	cmpw cr7,r0,r2
	blt cr7,L707
	b L709
	.p2align 4,,15
L697:
	lfs f10,0(r9)
	fcmpu cr7,f11,f10
	blt cr7,L709
	bgt cr7,L714
	lfs f13,4(r30)
	lfs f0,4(r9)
	fcmpu cr7,f13,f0
	blt cr7,L709
	bgt cr7,L714
	lwz r0,8(r30)
	lwz r2,8(r9)
	cmpw cr7,r0,r2
	blt cr7,L709
	.p2align 4,,15
L714:
	fcmpu cr7,f12,f10
	blt cr7,L707
	bgt cr7,L701
	lfs f13,4(r10)
	lfs f0,4(r9)
	fcmpu cr7,f13,f0
	blt cr7,L707
	bgt cr7,L701
	lwz r0,8(r10)
	lwz r2,8(r9)
	cmpw cr7,r0,r2
	blt cr7,L707
	.p2align 4,,15
L701:
	mr r11,r10
	b L709
	.p2align 4,,15
L707:
	mr r11,r9
	.p2align 4,,15
L709:
	lwz r0,0(r11)
	lwz r9,8(r11)
	mr r5,r29
	mr r3,r26
	lwz r2,4(r11)
	mr r4,r30
	mr r6,r0
	mr r8,r9
	stw r0,56(r1)
	stw r9,64(r1)
	stw r2,60(r1)
	mr r7,r2
	bl L__ZSt21__unguarded_partitionIN9__gnu_cxx17__normal_iteratorIPSt4pairIfS2_IfiEESt6vectorIS4_SaIS4_EEEES4_ET_SA_SA_T0_$stub
	lwz r3,72(r1)
	mr r4,r29
	mr r5,r28
	mr r29,r3
	bl L__ZSt16__introsort_loopIN9__gnu_cxx17__normal_iteratorIPSt4pairIfS2_IfiEESt6vectorIS4_SaIS4_EEEEiEvT_SA_T0_$stub
	subf r0,r27,r29
	srawi r0,r0,2
	mullw r0,r0,r25
	cmpwi cr7,r0,16
	bgt cr7,L694
L722:
	addi r1,r1,112
	lwz r0,8(r1)
	lmw r25,-28(r1)
	mtlr r0
	blr
LFE13034:
	.align 2
	.p2align 4,,15
	.globl __ZN5boost7polygon7gtlsortIN9__gnu_cxx17__normal_iteratorIPSt4pairIfS4_IfiEESt6vectorIS6_SaIS6_EEEEEEvT_SC_
	.weak_definition __ZN5boost7polygon7gtlsortIN9__gnu_cxx17__normal_iteratorIPSt4pairIfS4_IfiEESt6vectorIS6_SaIS6_EEEEEEvT_SC_
	.private_extern __ZN5boost7polygon7gtlsortIN9__gnu_cxx17__normal_iteratorIPSt4pairIfS4_IfiEESt6vectorIS6_SaIS6_EEEEEEvT_SC_
__ZN5boost7polygon7gtlsortIN9__gnu_cxx17__normal_iteratorIPSt4pairIfS4_IfiEESt6vectorIS6_SaIS6_EEEEEEvT_SC_:
LFB11298:
	mflr r0
LCFI205:
	cmpw cr7,r3,r4
	stmw r29,-12(r1)
LCFI206:
	mr r30,r3
	stw r0,8(r1)
LCFI207:
	mr r29,r4
	stwu r1,-80(r1)
LCFI208:
	beq cr7,L732
	subf r0,r3,r4
	lis r2,0xaaaa
	li r5,0
	srawi r0,r0,2
	ori r2,r2,43691
	mullw r0,r0,r2
	cmpwi cr7,r0,1
	beq cr7,L729
	.p2align 4,,15
L730:
	srawi r0,r0,1
	addi r5,r5,1
	cmpwi cr7,r0,1
	bne cr7,L730
	slwi r5,r5,1
L729:
	mr r3,r30
	mr r4,r29
	bl L__ZSt16__introsort_loopIN9__gnu_cxx17__normal_iteratorIPSt4pairIfS2_IfiEESt6vectorIS4_SaIS4_EEEEiEvT_SA_T0_$stub
	addi r1,r1,80
	mr r3,r30
	mr r4,r29
	lwz r0,8(r1)
	lmw r29,-12(r1)
	mtlr r0
	b L__ZSt22__final_insertion_sortIN9__gnu_cxx17__normal_iteratorIPSt4pairIfS2_IfiEESt6vectorIS4_SaIS4_EEEEEvT_SA_$stub
L732:
	addi r1,r1,80
	lwz r0,8(r1)
	lmw r29,-12(r1)
	mtlr r0
	blr
LFE11298:
	.align 2
	.p2align 4,,15
	.globl __ZNSt6vectorISt4pairIfS0_IfiEESaIS2_EEaSERKS4_
	.weak_definition __ZNSt6vectorISt4pairIfS0_IfiEESaIS2_EEaSERKS4_
	.private_extern __ZNSt6vectorISt4pairIfS0_IfiEESaIS2_EEaSERKS4_
__ZNSt6vectorISt4pairIfS0_IfiEESaIS2_EEaSERKS4_:
LFB10251:
	mflr r0
LCFI209:
	cmpw cr7,r4,r3
	mr r5,r4
	stmw r26,-24(r1)
LCFI210:
	mr r28,r3
	stw r0,8(r1)
LCFI211:
	stwu r1,-112(r1)
LCFI212:
	beq cr7,L736
	lwz r7,0(r3)
	lwz r0,8(r3)
	lis r9,0xaaaa
	lwz r29,4(r4)
	lwz r30,0(r4)
	ori r9,r9,43691
	subf r0,r7,r0
	mr r8,r7
	subf r2,r30,r29
	srawi r0,r0,2
	srawi r3,r2,2
	mullw r0,r0,r9
	mullw r6,r3,r9
	cmplw cr7,r6,r0
	ble cr7,L738
	lis r0,0x1555
	ori r0,r0,21845
	cmplw cr7,r6,r0
	ble+ cr7,L740
	bl L__ZSt17__throw_bad_allocv$stub
	.p2align 4,,15
L740:
	slwi r26,r3,2
	mr r3,r26
	bl L__Znwm$stub
	cmpw cr7,r29,r30
	mr r10,r30
	mr r27,r3
	beq cr7,L742
	mr r9,r30
	mr r11,r3
	.p2align 4,,15
L744:
	cmpwi cr7,r11,0
	beq cr7,L745
	lwz r0,8(r9)
	lwz r2,0(r9)
	lwz r9,4(r9)
	stw r0,8(r11)
	stw r2,0(r11)
	stw r9,4(r11)
L745:
	addi r9,r10,12
	cmpw cr7,r9,r29
	beq cr7,L742
	addi r11,r11,12
	mr r10,r9
	b L744
L742:
	lwz r3,0(r28)
	lwz r4,4(r28)
	addi r5,r1,56
	bl L__ZSt8_DestroyIPSt4pairIfS0_IfiEESaIS2_EEvT_S5_T0_$stub
	lwz r3,0(r28)
	cmpwi cr7,r3,0
	beq cr7,L748
	bl L__ZdlPv$stub
L748:
	add r0,r27,r26
	mr r7,r27
	stw r27,0(r28)
	mr r3,r26
	stw r0,8(r28)
	b L750
	.p2align 4,,15
L738:
	lwz r4,4(r28)
	subf r0,r7,r4
	mr r10,r4
	srawi r0,r0,2
	mullw r2,r0,r9
	cmplw cr7,r6,r2
	bgt cr7,L751
	cmpwi cr7,r6,0
	slwi r29,r3,2
	mr r3,r7
	ble cr7,L753
	mtctr r6
	mr r10,r30
	mr r11,r7
	.p2align 4,,15
L755:
	lwz r0,0(r10)
	lwz r2,4(r10)
	lwz r9,8(r10)
	addi r10,r10,12
	stw r0,0(r11)
	stw r2,4(r11)
	stw r9,8(r11)
	addi r11,r11,12
	bdnz L755
	mulli r29,r6,12
	lwz r4,4(r28)
	add r3,r29,r7
L753:
	addi r5,r1,57
	bl L__ZSt8_DestroyIN9__gnu_cxx17__normal_iteratorIPSt4pairIfS2_IfiEESt6vectorIS4_SaIS4_EEEES7_EvT_SA_T0_$stub
	lwz r7,0(r28)
	mr r3,r29
	b L750
L751:
	slwi r0,r0,2
	srawi r2,r0,2
	add r0,r30,r0
	mullw. r11,r2,r9
	mtctr r11
	ble cr0,L757
	mr r11,r30
	.p2align 4,,15
L759:
	lwz r0,0(r11)
	lwz r2,4(r11)
	lwz r9,8(r11)
	addi r11,r11,12
	stw r0,0(r8)
	stw r2,4(r8)
	stw r9,8(r8)
	addi r8,r8,12
	bdnz L759
	lwz r10,4(r28)
	lwz r7,0(r28)
	lwz r2,0(r5)
	lwz r29,4(r5)
	subf r0,r7,r10
	rlwinm r0,r0,0,0,29
	add r0,r0,r2
L757:
	cmpw cr7,r29,r0
	mr r11,r0
	bne cr7,L774
	mulli r3,r6,12
	b L750
	.p2align 4,,15
L774:
	cmpwi cr7,r10,0
	beq cr7,L764
	lwz r0,0(r11)
	lwz r2,4(r11)
	lwz r9,8(r11)
	stw r0,0(r10)
	stw r2,4(r10)
	stw r9,8(r10)
L764:
	addi r11,r11,12
	cmpw cr7,r29,r11
	beq cr7,L766
	addi r10,r10,12
	b L774
L766:
	mulli r3,r6,12
	lwz r7,0(r28)
	.p2align 4,,15
L750:
	add r0,r3,r7
	stw r0,4(r28)
L736:
	addi r1,r1,112
	mr r3,r28
	lwz r0,8(r1)
	lmw r26,-24(r1)
	mtlr r0
	blr
LFE10251:
	.cstring
	.align 2
LC5:
	.ascii "vector::reserve\0"
	.section __TEXT,__textcoal_nt,coalesced,pure_instructions
	.align 2
	.p2align 4,,15
	.globl __ZNSt6vectorISt4pairIfS0_IfiEESaIS2_EE7reserveEm
	.weak_definition __ZNSt6vectorISt4pairIfS0_IfiEESaIS2_EE7reserveEm
	.private_extern __ZNSt6vectorISt4pairIfS0_IfiEESaIS2_EE7reserveEm
__ZNSt6vectorISt4pairIfS0_IfiEESaIS2_EE7reserveEm:
LFB11323:
	mflr r0
LCFI213:
	bcl 20,31,"L00000000033$pb"
"L00000000033$pb":
	stmw r25,-28(r1)
LCFI214:
	mflr r31
	stw r0,8(r1)
LCFI215:
	stwu r1,-112(r1)
LCFI216:
	lis r0,0x1555
	mr r27,r3
	ori r0,r0,21845
	cmplw cr7,r4,r0
	ble+ cr7,L776
	addis r3,r31,ha16(LC5-"L00000000033$pb")
	la r3,lo16(LC5-"L00000000033$pb")(r3)
	bl L__ZSt20__throw_length_errorPKc$stub
	.p2align 4,,15
L776:
	lwz r28,0(r3)
	lwz r0,8(r3)
	lis r2,0xaaaa
	ori r2,r2,43691
	subf r0,r28,r0
	mr r30,r28
	srawi r0,r0,2
	mullw r0,r0,r2
	cmplw cr7,r4,r0
	ble cr7,L788
	mulli r25,r4,12
	lwz r29,4(r3)
	mr r3,r25
	bl L__Znwm$stub
	cmpw cr7,r28,r29
	mr r26,r3
	beq cr7,L780
	mr r11,r3
	.p2align 4,,15
L782:
	cmpwi cr7,r11,0
	beq cr7,L783
	lwz r0,0(r30)
	lwz r2,4(r30)
	lwz r9,8(r30)
	stw r0,0(r11)
	stw r2,4(r11)
	stw r9,8(r11)
L783:
	addi r30,r30,12
	cmpw cr7,r29,r30
	beq cr7,L780
	addi r11,r11,12
	b L782
L780:
	lwz r3,0(r27)
	lwz r4,4(r27)
	addi r5,r1,56
	bl L__ZSt8_DestroyIPSt4pairIfS0_IfiEESaIS2_EEvT_S5_T0_$stub
	lwz r3,0(r27)
	cmpwi cr7,r3,0
	beq cr7,L786
	bl L__ZdlPv$stub
L786:
	subf r0,r28,r29
	add r2,r26,r25
	stw r26,0(r27)
	rlwinm r0,r0,0,0,29
	stw r2,8(r27)
	add r0,r26,r0
	stw r0,4(r27)
L788:
	addi r1,r1,112
	lwz r0,8(r1)
	lmw r25,-28(r1)
	mtlr r0
	blr
LFE11323:
	.cstring
	.align 2
LC6:
	.ascii "vector::_M_range_insert\0"
	.section __TEXT,__textcoal_nt,coalesced,pure_instructions
	.align 2
	.p2align 4,,15
	.globl __ZNSt6vectorISt4pairIfS0_IfiEESaIS2_EE15_M_range_insertIN9__gnu_cxx17__normal_iteratorIPKS2_S4_EEEEvNS7_IPS2_S4_EET_SD_St20forward_iterator_tag
	.weak_definition __ZNSt6vectorISt4pairIfS0_IfiEESaIS2_EE15_M_range_insertIN9__gnu_cxx17__normal_iteratorIPKS2_S4_EEEEvNS7_IPS2_S4_EET_SD_St20forward_iterator_tag
	.private_extern __ZNSt6vectorISt4pairIfS0_IfiEESaIS2_EE15_M_range_insertIN9__gnu_cxx17__normal_iteratorIPKS2_S4_EEEEvNS7_IPS2_S4_EET_SD_St20forward_iterator_tag
__ZNSt6vectorISt4pairIfS0_IfiEESaIS2_EE15_M_range_insertIN9__gnu_cxx17__normal_iteratorIPKS2_S4_EEEEvNS7_IPS2_S4_EET_SD_St20forward_iterator_tag:
LFB12013:
	mflr r0
LCFI217:
	cmpw cr7,r5,r6
	bcl 20,31,"L00000000034$pb"
"L00000000034$pb":
	stmw r24,-32(r1)
LCFI218:
	mflr r31
	stw r0,8(r1)
LCFI219:
	stwu r1,-112(r1)
LCFI220:
	mr r26,r5
	mr r30,r6
	mr r29,r4
	mr r28,r3
	mr r25,r4
	beq cr7,L845
	lwz r4,4(r3)
	lwz r0,8(r3)
	subf r2,r5,r6
	lis r9,0xaaaa
	srawi r2,r2,2
	ori r9,r9,43691
	subf r0,r4,r0
	mullw r11,r2,r9
	mr r8,r4
	srawi r0,r0,2
	mullw r0,r0,r9
	stw r11,60(r1)
	cmplw cr7,r11,r0
	bgt cr7,L792
	subf r0,r29,r4
	srawi r0,r0,2
	mullw r7,r0,r9
	cmplw cr7,r11,r7
	bge cr7,L794
	slwi r0,r2,2
	subf r11,r0,r4
	cmpw cr7,r4,r11
	beq cr7,L796
	mr r10,r4
	.p2align 4,,15
L798:
	cmpwi cr7,r10,0
	beq cr7,L799
	lwz r0,0(r11)
	lwz r2,4(r11)
	lwz r9,8(r11)
	stw r0,0(r10)
	stw r2,4(r10)
	stw r9,8(r10)
L799:
	addi r11,r11,12
	cmpw cr7,r4,r11
	beq cr7,L846
	addi r10,r10,12
	b L798
L846:
	lwz r4,4(r28)
L796:
	lwz r0,60(r1)
	lis r9,0xaaaa
	ori r9,r9,43691
	mulli r0,r0,12
	subf r11,r0,r8
	add r4,r4,r0
	subf r2,r29,r11
	stw r4,4(r28)
	srawi r2,r2,2
	mullw. r0,r2,r9
	mtctr r0
	ble cr0,L802
	mr r10,r8
	.p2align 4,,15
L804:
	lwz r0,-12(r11)
	lwz r2,-8(r11)
	lwz r9,-4(r11)
	addi r11,r11,-12
	stw r0,-12(r10)
	stw r2,-8(r10)
	stw r9,-4(r10)
	addi r10,r10,-12
	bdnz L804
L802:
	subf r0,r26,r30
	lis r2,0xaaaa
	srawi r0,r0,2
	ori r2,r2,43691
	mullw. r9,r0,r2
	mtctr r9
	ble cr0,L845
	mr r11,r25
	mr r5,r26
	.p2align 4,,15
L806:
	lwz r0,0(r5)
	lwz r2,4(r5)
	lwz r9,8(r5)
	addi r5,r5,12
	stw r0,0(r11)
	stw r2,4(r11)
	stw r9,8(r11)
	addi r11,r11,12
	bdz L845
	b L806
L794:
	slwi r0,r0,2
	add r6,r0,r5
	cmpw cr7,r6,r30
	mr r9,r6
	beq cr7,L807
	mr r11,r6
	.p2align 4,,15
L809:
	cmpwi cr7,r4,0
	beq cr7,L810
	lwz r0,8(r9)
	lwz r2,0(r9)
	lwz r9,4(r9)
	stw r0,8(r4)
	stw r2,0(r4)
	stw r9,4(r4)
L810:
	addi r11,r11,12
	cmpw cr7,r30,r11
	beq cr7,L847
	addi r4,r4,12
	mr r9,r11
	b L809
L847:
	lwz r4,4(r28)
L807:
	lwz r0,60(r1)
	cmpw cr7,r8,r29
	mr r10,r29
	subf r0,r7,r0
	mulli r0,r0,12
	add r4,r0,r4
	stw r4,4(r28)
	mr r11,r4
	beq cr7,L813
	mr r4,r29
	.p2align 4,,15
L815:
	cmpwi cr7,r11,0
	beq cr7,L816
	lwz r0,8(r4)
	lwz r2,0(r4)
	lwz r9,4(r4)
	stw r0,8(r11)
	stw r2,0(r11)
	stw r9,4(r11)
L816:
	addi r10,r10,12
	cmpw cr7,r8,r10
	beq cr7,L848
	addi r11,r11,12
	mr r4,r10
	b L815
L848:
	lwz r4,4(r28)
L813:
	subf r2,r26,r6
	lis r0,0xaaaa
	mulli r9,r7,12
	srawi r2,r2,2
	ori r0,r0,43691
	mullw. r11,r2,r0
	add r4,r4,r9
	stw r4,4(r28)
	mtctr r11
	ble cr0,L845
	mr r11,r25
	mr r5,r26
	.p2align 4,,15
L820:
	lwz r0,0(r5)
	lwz r2,4(r5)
	lwz r9,8(r5)
	addi r5,r5,12
	stw r0,0(r11)
	stw r2,4(r11)
	stw r9,8(r11)
	addi r11,r11,12
	bdz L845
	b L820
	.p2align 4,,15
L792:
	lwz r0,0(r3)
	lis r2,0x1555
	ori r2,r2,21845
	subf r0,r0,r4
	srawi r0,r0,2
	mullw r4,r0,r9
	subf r2,r4,r2
	stw r4,64(r1)
	cmplw cr7,r11,r2
	ble+ cr7,L821
	addis r3,r31,ha16(LC6-"L00000000034$pb")
	la r3,lo16(LC6-"L00000000034$pb")(r3)
	bl L__ZSt20__throw_length_errorPKc$stub
	.p2align 4,,15
L821:
	cmplw cr7,r11,r4
	addi r2,r1,60
	bgt cr7,L825
	addi r2,r1,64
L825:
	lwz r0,0(r2)
	li r24,-4
	add r2,r4,r0
	cmplw cr7,r4,r2
	bgt cr7,L830
	lis r0,0x1555
	ori r0,r0,21845
	cmplw cr7,r2,r0
	bgt cr7,L828
	mulli r24,r2,12
	b L830
L828:
	bl L__ZSt17__throw_bad_allocv$stub
	.p2align 4,,15
L830:
	mr r3,r24
	bl L__Znwm$stub
	lwz r11,0(r28)
	mr r27,r3
	mr r10,r3
	cmpw cr7,r29,r11
	beq cr7,L831
	.p2align 4,,15
L849:
	cmpwi cr7,r10,0
	beq cr7,L833
	lwz r0,0(r11)
	lwz r2,4(r11)
	lwz r9,8(r11)
	stw r0,0(r10)
	stw r2,4(r10)
	stw r9,8(r10)
L833:
	addi r11,r11,12
	addi r10,r10,12
	cmpw cr7,r11,r29
	bne cr7,L849
L831:
	cmpw cr7,r30,r26
	mr r5,r26
	beq cr7,L835
	.p2align 4,,15
L850:
	cmpwi cr7,r10,0
	beq cr7,L837
	lwz r0,0(r5)
	lwz r2,4(r5)
	lwz r9,8(r5)
	stw r0,0(r10)
	stw r2,4(r10)
	stw r9,8(r10)
L837:
	addi r5,r5,12
	addi r10,r10,12
	cmpw cr7,r30,r5
	bne cr7,L850
L835:
	lwz r4,4(r28)
	mr r11,r25
	mr r30,r10
	cmpw cr7,r4,r25
	beq cr7,L839
	.p2align 4,,15
L851:
	cmpwi cr7,r30,0
	beq cr7,L841
	lwz r0,0(r11)
	lwz r2,4(r11)
	lwz r9,8(r11)
	stw r0,0(r30)
	stw r2,4(r30)
	stw r9,8(r30)
L841:
	addi r11,r11,12
	addi r30,r30,12
	cmpw cr7,r4,r11
	bne cr7,L851
	lwz r4,4(r28)
L839:
	lwz r3,0(r28)
	addi r5,r1,56
	bl L__ZSt8_DestroyIPSt4pairIfS0_IfiEESaIS2_EEvT_S5_T0_$stub
	lwz r3,0(r28)
	cmpwi cr7,r3,0
	beq cr7,L843
	bl L__ZdlPv$stub
L843:
	add r0,r27,r24
	stw r30,4(r28)
	stw r27,0(r28)
	stw r0,8(r28)
	.p2align 4,,15
L845:
	addi r1,r1,112
	lwz r0,8(r1)
	lmw r24,-32(r1)
	mtlr r0
	blr
LFE12013:
	.align 2
	.p2align 4,,15
	.globl __ZNSt6vectorISt4pairIfS0_IfiEESaIS2_EE13_M_insert_auxEN9__gnu_cxx17__normal_iteratorIPS2_S4_EERKS2_
	.weak_definition __ZNSt6vectorISt4pairIfS0_IfiEESaIS2_EE13_M_insert_auxEN9__gnu_cxx17__normal_iteratorIPS2_S4_EERKS2_
	.private_extern __ZNSt6vectorISt4pairIfS0_IfiEESaIS2_EE13_M_insert_auxEN9__gnu_cxx17__normal_iteratorIPS2_S4_EERKS2_
__ZNSt6vectorISt4pairIfS0_IfiEESaIS2_EE13_M_insert_auxEN9__gnu_cxx17__normal_iteratorIPS2_S4_EERKS2_:
LFB12003:
	mflr r0
LCFI221:
	stmw r25,-28(r1)
LCFI222:
	mr r30,r4
	bcl 20,31,"L00000000035$pb"
"L00000000035$pb":
	stw r0,8(r1)
LCFI223:
	stwu r1,-112(r1)
LCFI224:
	mr r29,r3
	mflr r31
	mr r28,r5
	mr r27,r30
	lwz r4,4(r3)
	lwz r0,8(r3)
	cmpw cr7,r4,r0
	beq cr7,L860
	cmpwi cr7,r4,0
	beq cr7,L862
	lwz r0,-12(r4)
	lwz r2,-8(r4)
	lwz r9,-4(r4)
	stw r0,0(r4)
	stw r2,4(r4)
	stw r9,8(r4)
	lwz r4,4(r3)
L862:
	mr r11,r4
	lis r0,0xaaaa
	addi r4,r4,12
	addi r9,r11,-12
	ori r0,r0,43691
	stw r4,4(r29)
	subf r2,r27,r9
	srawi r2,r2,2
	mullw. r10,r2,r0
	mtctr r10
	lfs f13,0(r28)
	lwz r8,8(r28)
	lfs f0,4(r28)
	ble cr0,L864
	mr r10,r11
	mr r11,r9
	.p2align 4,,15
L866:
	lwz r0,-12(r11)
	lwz r2,-8(r11)
	lwz r9,-4(r11)
	addi r11,r11,-12
	stw r0,-12(r10)
	stw r2,-8(r10)
	stw r9,-4(r10)
	addi r10,r10,-12
	bdnz L866
L864:
	stfs f13,0(r30)
	stw r8,8(r30)
	stfs f0,4(r30)
	b L892
L860:
	lwz r0,0(r3)
	lis r2,0xaaaa
	lis r9,0x1555
	ori r2,r2,43691
	ori r9,r9,21845
	subf r0,r0,r4
	srawi r0,r0,2
	mullw r0,r0,r2
	cmpw cr7,r0,r9
	bne+ cr7,L868
	addis r3,r31,ha16(LC4-"L00000000035$pb")
	la r3,lo16(LC4-"L00000000035$pb")(r3)
	bl L__ZSt20__throw_length_errorPKc$stub
	.p2align 4,,15
L868:
	cmpwi cr7,r0,0
	li r2,1
	beq cr7,L894
	slwi r2,r0,1
	li r25,-4
	cmplw cr7,r2,r0
	blt cr7,L877
L894:
	lis r0,0x1555
	ori r0,r0,21845
	cmplw cr7,r2,r0
	bgt cr7,L875
	mulli r25,r2,12
	b L877
L875:
	bl L__ZSt17__throw_bad_allocv$stub
	.p2align 4,,15
L877:
	mr r3,r25
	bl L__Znwm$stub
	lwz r11,0(r29)
	mr r26,r3
	mr r10,r3
	cmpw cr7,r30,r11
	beq cr7,L878
	.p2align 4,,15
L895:
	cmpwi cr7,r10,0
	beq cr7,L880
	lwz r0,0(r11)
	lwz r2,4(r11)
	lwz r9,8(r11)
	stw r0,0(r10)
	stw r2,4(r10)
	stw r9,8(r10)
L880:
	addi r11,r11,12
	addi r10,r10,12
	cmpw cr7,r30,r11
	bne cr7,L895
L878:
	cmpwi cr7,r10,0
	beq cr7,L882
	lwz r0,8(r28)
	lwz r2,0(r28)
	lwz r9,4(r28)
	stw r0,8(r10)
	stw r2,0(r10)
	stw r9,4(r10)
L882:
	lwz r4,4(r29)
	mr r9,r27
	addi r30,r10,12
	cmpw cr7,r4,r27
	beq cr7,L884
	mr r11,r27
	.p2align 4,,15
L886:
	cmpwi cr7,r30,0
	beq cr7,L887
	lwz r0,8(r9)
	lwz r2,0(r9)
	lwz r9,4(r9)
	stw r0,8(r30)
	stw r2,0(r30)
	stw r9,4(r30)
L887:
	addi r11,r11,12
	addi r30,r30,12
	cmpw cr7,r4,r11
	beq cr7,L893
	mr r9,r11
	b L886
L893:
	lwz r4,4(r29)
L884:
	lwz r3,0(r29)
	addi r5,r1,56
	bl L__ZSt8_DestroyIN9__gnu_cxx17__normal_iteratorIPSt4pairIfS2_IfiEESt6vectorIS4_SaIS4_EEEES7_EvT_SA_T0_$stub
	lwz r3,0(r29)
	cmpwi cr7,r3,0
	beq cr7,L890
	bl L__ZdlPv$stub
L890:
	add r0,r26,r25
	stw r30,4(r29)
	stw r26,0(r29)
	stw r0,8(r29)
	.p2align 4,,15
L892:
	addi r1,r1,112
	lwz r0,8(r1)
	lmw r25,-28(r1)
	mtlr r0
	blr
LFE12003:
	.align 2
	.p2align 4,,15
	.globl __ZN5boost7polygon9operatorspLIfNS0_19polygon_90_set_dataIfEEEERNS_9enable_ifINS0_7gtl_andINS1_9y_ps90_peENS0_22is_polygon_90_set_typeIT0_E4typeEE4typeENS3_IT_EEE4typeERSF_RKS9_
	.weak_definition __ZN5boost7polygon9operatorspLIfNS0_19polygon_90_set_dataIfEEEERNS_9enable_ifINS0_7gtl_andINS1_9y_ps90_peENS0_22is_polygon_90_set_typeIT0_E4typeEE4typeENS3_IT_EEE4typeERSF_RKS9_
	.private_extern __ZN5boost7polygon9operatorspLIfNS0_19polygon_90_set_dataIfEEEERNS_9enable_ifINS0_7gtl_andINS1_9y_ps90_peENS0_22is_polygon_90_set_typeIT0_E4typeEE4typeENS3_IT_EEE4typeERSF_RKS9_
__ZN5boost7polygon9operatorspLIfNS0_19polygon_90_set_dataIfEEEERNS_9enable_ifINS0_7gtl_andINS1_9y_ps90_peENS0_22is_polygon_90_set_typeIT0_E4typeEE4typeENS3_IT_EEE4typeERSF_RKS9_:
LFB8527:
	mflr r0
LCFI225:
	stmw r26,-24(r1)
LCFI226:
	mr r29,r3
	stw r0,8(r1)
LCFI227:
	stwu r1,-96(r1)
LCFI228:
	lwz r30,4(r4)
	lwz r28,8(r4)
	lwz r27,0(r4)
	cmpw cr7,r30,r28
	beq cr7,L899
	lwz r0,4(r3)
	lwz r4,8(r3)
	cmpw cr7,r0,r4
	beq cr7,L901
	cmpw cr7,r0,r30
	bne cr7,L901
	b L899
L915:
	mr r5,r30
	mr r6,r28
	addi r3,r29,4
	bl L__ZNSt6vectorISt4pairIfS0_IfiEESaIS2_EE15_M_range_insertIN9__gnu_cxx17__normal_iteratorIPKS2_S4_EEEEvNS7_IPS2_S4_EET_SD_St20forward_iterator_tag$stub
	b L899
	.p2align 4,,15
L913:
	lwz r4,8(r29)
L914:
	lwz r0,12(r29)
	cmpw cr7,r4,r0
	beq cr7,L905
	cmpwi cr7,r4,0
	beq cr7,L907
	lwz r0,0(r30)
	lwz r2,4(r30)
	lwz r9,8(r30)
	stw r0,0(r4)
	stw r2,4(r4)
	stw r9,8(r4)
	lwz r4,8(r29)
L907:
	addi r4,r4,12
	stw r4,8(r29)
	b L909
L905:
	mr r3,r26
	mr r5,r30
	bl L__ZNSt6vectorISt4pairIfS0_IfiEESaIS2_EE13_M_insert_auxEN9__gnu_cxx17__normal_iteratorIPS2_S4_EERKS2_$stub
	.p2align 4,,15
L909:
	lwz r0,0(r29)
	cmpw cr7,r27,r0
	beq cr7,L910
	lwz r2,8(r29)
	addi r9,r2,-12
	lfs f0,-12(r2)
	lfs f13,4(r9)
	stfs f0,4(r9)
	stfs f13,-12(r2)
L910:
	addi r30,r30,12
	li r0,1
	cmpw cr7,r28,r30
	stw r0,20(r29)
	stw r0,16(r29)
	bne cr7,L913
	b L899
	.p2align 4,,15
L901:
	lwz r2,0(r29)
	li r0,1
	addi r26,r29,4
	stw r0,20(r29)
	stw r0,16(r29)
	cmpw cr7,r27,r2
	bne cr7,L914
	b L915
	.p2align 4,,15
L899:
	addi r1,r1,96
	mr r3,r29
	lwz r0,8(r1)
	lmw r26,-24(r1)
	mtlr r0
	blr
LFE8527:
	.align 2
	.p2align 4,,15
	.globl __ZN5boost7polygon9operatorspLIfNS0_14rectangle_dataIfEEEERNS_9enable_ifINS0_7gtl_andINS1_9y_ps90_peENS0_22is_polygon_90_set_typeIT0_E4typeEE4typeENS0_19polygon_90_set_dataIT_EEE4typeERSG_RKS9_
	.weak_definition __ZN5boost7polygon9operatorspLIfNS0_14rectangle_dataIfEEEERNS_9enable_ifINS0_7gtl_andINS1_9y_ps90_peENS0_22is_polygon_90_set_typeIT0_E4typeEE4typeENS0_19polygon_90_set_dataIT_EEE4typeERSG_RKS9_
	.private_extern __ZN5boost7polygon9operatorspLIfNS0_14rectangle_dataIfEEEERNS_9enable_ifINS0_7gtl_andINS1_9y_ps90_peENS0_22is_polygon_90_set_typeIT0_E4typeEE4typeENS0_19polygon_90_set_dataIT_EEE4typeERSG_RKS9_
__ZN5boost7polygon9operatorspLIfNS0_14rectangle_dataIfEEEERNS_9enable_ifINS0_7gtl_andINS1_9y_ps90_peENS0_22is_polygon_90_set_typeIT0_E4typeEE4typeENS0_19polygon_90_set_dataIT_EEE4typeERSG_RKS9_:
LFB8526:
	mflr r0
LCFI229:
	stmw r13,-76(r1)
LCFI230:
	addi r26,r4,16
	stw r0,8(r1)
LCFI231:
	mr r28,r4
	stwu r1,-448(r1)
LCFI232:
	cmpw cr7,r4,r26
	mr r30,r3
	mr r21,r26
	beq cr7,L917
	addi r2,r1,152
	li r0,1
	li r27,0
	addi r25,r1,232
	stw r2,312(r1)
	addi r2,r1,192
	addi r24,r1,144
	addi r19,r1,96
	stw r2,316(r1)
	addi r2,r1,80
	addi r20,r1,100
	addi r18,r1,128
	stw r2,320(r1)
	addi r2,r1,84
	addi r17,r1,136
	addi r23,r1,104
	stw r2,324(r1)
	addi r2,r1,88
	addi r16,r1,56
	addi r15,r1,60
	stw r2,328(r1)
	addi r2,r1,92
	addi r22,r1,112
	addi r14,r1,64
	stw r2,332(r1)
	addi r2,r1,120
	addi r13,r1,68
	stw r2,336(r1)
	addi r2,r1,72
	stw r2,340(r1)
	addi r2,r1,76
	stw r2,344(r1)
	addi r2,r3,4
	stw r2,348(r1)
	addi r2,r1,248
	stw r2,352(r1)
	stw r0,20(r3)
	stw r0,16(r3)
	b L919
	.p2align 4,,15
L941:
	addi r26,r26,16
L919:
	lwz r0,0(r30)
	lwz r3,312(r1)
	li r29,0
	mr r4,r28
	stw r27,152(r1)
	stw r27,156(r1)
	stw r27,160(r1)
	stw r27,164(r1)
	stw r27,168(r1)
	stw r27,172(r1)
	stw r0,184(r1)
	stw r29,176(r1)
	stw r29,180(r1)
	stw r29,188(r1)
	bl L__ZN5boost7polygon6assignINS0_14rectangle_dataIfEES3_EERNS_9enable_ifINS0_9gtl_and_3INS0_10y_r_assignENS0_28is_mutable_rectangle_conceptINS0_16geometry_conceptIT_E4typeEE4typeENS0_20is_rectangle_conceptINS8_IT0_E4typeEE4typeEE4typeES9_E4typeERS9_RKSF_$stub
	lwz r0,0(r30)
	lwz r3,316(r1)
	mr r4,r28
	stw r29,228(r1)
	stw r27,192(r1)
	stw r27,196(r1)
	stw r27,200(r1)
	stw r27,204(r1)
	stw r27,208(r1)
	stw r0,224(r1)
	stw r27,212(r1)
	stw r29,216(r1)
	stw r29,220(r1)
	bl L__ZN5boost7polygon6assignINS0_14rectangle_dataIfEES3_EERNS_9enable_ifINS0_9gtl_and_3INS0_10y_r_assignENS0_28is_mutable_rectangle_conceptINS0_16geometry_conceptIT_E4typeEE4typeENS0_20is_rectangle_conceptINS8_IT0_E4typeEE4typeEE4typeES9_E4typeERS9_RKSF_$stub
	lfs f0,152(r1)
	lfs f13,156(r1)
	lwz r0,168(r1)
	lwz r2,172(r1)
	li r9,4
	lwz r11,180(r1)
	stw r9,220(r1)
	stw r0,248(r1)
	lwz r0,176(r1)
	stfs f0,232(r1)
	stfs f13,236(r1)
	cmpwi cr7,r11,4
	lfs f0,160(r1)
	lfs f13,164(r1)
	stw r2,252(r1)
	lwz r2,184(r1)
	stw r0,256(r1)
	lwz r0,188(r1)
	stw r11,260(r1)
	stw r2,264(r1)
	lwz r2,216(r1)
	stfs f0,240(r1)
	stfs f13,244(r1)
	lfs f0,192(r1)
	lfs f13,196(r1)
	stw r0,268(r1)
	lwz r0,208(r1)
	stw r0,288(r1)
	lwz r0,212(r1)
	stfs f0,272(r1)
	stfs f13,276(r1)
	lfs f0,200(r1)
	lfs f13,204(r1)
	stw r0,292(r1)
	stfs f0,280(r1)
	stfs f13,284(r1)
	stw r2,296(r1)
	lwz r0,224(r1)
	lwz r2,228(r1)
	stw r9,300(r1)
	stw r0,304(r1)
	stw r2,308(r1)
	lwz r28,0(r30)
	beq cr7,L920
	li r0,1
	mr r29,r11
	stw r0,20(r30)
	stw r0,16(r30)
	.p2align 4,,15
L922:
	cmpwi cr7,r29,0
	bne cr7,L923
	lwz r0,264(r1)
	li r6,0
	mr r3,r23
	mr r4,r25
	mr r5,r16
	xori r0,r0,1
	stw r0,56(r1)
	bl L__ZN5boost7polygon3getINS0_14rectangle_dataIfEEEENS0_23rectangle_interval_typeIT_E4typeERKS5_NS0_14orientation_2dEPNS_9enable_ifINS0_6gtl_ifINS0_20is_rectangle_conceptINS0_16geometry_conceptIS5_E4typeEE4typeEE4typeEvE4typeE$stub
	mr r3,r23
	stw r29,60(r1)
	mr r4,r15
	li r5,0
	bl L__ZN5boost7polygon3getINS0_13interval_dataIfEEEENS0_24interval_coordinate_typeIT_E4typeERKS5_NS0_12direction_1dEPNS_9enable_ifINS0_6gtl_ifINS0_19is_interval_conceptINS0_16geometry_conceptIS5_E4typeEE4typeEE4typeEvE4typeE$stub
	lwz r0,264(r1)
	mr r3,r22
	mr r4,r25
	mr r5,r14
	li r6,0
	stfs f1,248(r1)
	stw r0,64(r1)
	bl L__ZN5boost7polygon3getINS0_14rectangle_dataIfEEEENS0_23rectangle_interval_typeIT_E4typeERKS5_NS0_14orientation_2dEPNS_9enable_ifINS0_6gtl_ifINS0_20is_rectangle_conceptINS0_16geometry_conceptIS5_E4typeEE4typeEE4typeEvE4typeE$stub
	mr r3,r22
	stw r29,68(r1)
	mr r4,r13
	li r5,0
	bl L__ZN5boost7polygon3getINS0_13interval_dataIfEEEENS0_24interval_coordinate_typeIT_E4typeERKS5_NS0_12direction_1dEPNS_9enable_ifINS0_6gtl_ifINS0_19is_interval_conceptINS0_16geometry_conceptIS5_E4typeEE4typeEE4typeEvE4typeE$stub
	lwz r2,268(r1)
	li r0,1
	stfs f1,252(r1)
	stw r0,256(r1)
	cmpwi cr7,r2,0
	beq cr7,L925
	b L943
	.p2align 4,,15
L923:
	cmpwi cr7,r29,1
	bne cr7,L927
	lwz r0,264(r1)
	lwz r3,336(r1)
	mr r4,r25
	li r6,0
	lwz r5,340(r1)
	stw r0,72(r1)
	bl L__ZN5boost7polygon3getINS0_14rectangle_dataIfEEEENS0_23rectangle_interval_typeIT_E4typeERKS5_NS0_14orientation_2dEPNS_9enable_ifINS0_6gtl_ifINS0_20is_rectangle_conceptINS0_16geometry_conceptIS5_E4typeEE4typeEE4typeEvE4typeE$stub
	lwz r3,336(r1)
	lwz r4,344(r1)
	li r5,0
	stw r29,76(r1)
	bl L__ZN5boost7polygon3getINS0_13interval_dataIfEEEENS0_24interval_coordinate_typeIT_E4typeERKS5_NS0_12direction_1dEPNS_9enable_ifINS0_6gtl_ifINS0_19is_interval_conceptINS0_16geometry_conceptIS5_E4typeEE4typeEE4typeEvE4typeE$stub
	lwz r2,268(r1)
	li r0,-1
	stfs f1,252(r1)
	stw r0,256(r1)
	cmpwi cr7,r2,0
	beq cr7,L925
	stw r29,256(r1)
	b L925
	.p2align 4,,15
L927:
	cmpwi cr7,r29,2
	bne cr7,L930
	lwz r0,264(r1)
	lwz r5,320(r1)
	li r6,0
	mr r3,r18
	mr r4,r25
	xori r0,r0,1
	stw r0,80(r1)
	bl L__ZN5boost7polygon3getINS0_14rectangle_dataIfEEEENS0_23rectangle_interval_typeIT_E4typeERKS5_NS0_14orientation_2dEPNS_9enable_ifINS0_6gtl_ifINS0_20is_rectangle_conceptINS0_16geometry_conceptIS5_E4typeEE4typeEE4typeEvE4typeE$stub
	lwz r4,324(r1)
	li r0,1
	mr r3,r18
	li r5,0
	stw r0,84(r1)
	bl L__ZN5boost7polygon3getINS0_13interval_dataIfEEEENS0_24interval_coordinate_typeIT_E4typeERKS5_NS0_12direction_1dEPNS_9enable_ifINS0_6gtl_ifINS0_19is_interval_conceptINS0_16geometry_conceptIS5_E4typeEE4typeEE4typeEvE4typeE$stub
	lwz r0,264(r1)
	lwz r5,328(r1)
	mr r3,r17
	mr r4,r25
	li r6,0
	stfs f1,248(r1)
	stw r0,88(r1)
	bl L__ZN5boost7polygon3getINS0_14rectangle_dataIfEEEENS0_23rectangle_interval_typeIT_E4typeERKS5_NS0_14orientation_2dEPNS_9enable_ifINS0_6gtl_ifINS0_20is_rectangle_conceptINS0_16geometry_conceptIS5_E4typeEE4typeEE4typeEvE4typeE$stub
	lwz r4,332(r1)
	li r0,0
	mr r3,r17
	li r5,0
	stw r0,92(r1)
	bl L__ZN5boost7polygon3getINS0_13interval_dataIfEEEENS0_24interval_coordinate_typeIT_E4typeERKS5_NS0_12direction_1dEPNS_9enable_ifINS0_6gtl_ifINS0_19is_interval_conceptINS0_16geometry_conceptIS5_E4typeEE4typeEE4typeEvE4typeE$stub
	stfs f1,252(r1)
	b L925
	.p2align 4,,15
L930:
	lwz r0,264(r1)
	mr r3,r24
	mr r4,r25
	mr r5,r19
	li r6,0
	li r29,1
	stw r0,96(r1)
	bl L__ZN5boost7polygon3getINS0_14rectangle_dataIfEEEENS0_23rectangle_interval_typeIT_E4typeERKS5_NS0_14orientation_2dEPNS_9enable_ifINS0_6gtl_ifINS0_20is_rectangle_conceptINS0_16geometry_conceptIS5_E4typeEE4typeEE4typeEvE4typeE$stub
	mr r3,r24
	stw r29,100(r1)
	mr r4,r20
	li r5,0
	bl L__ZN5boost7polygon3getINS0_13interval_dataIfEEEENS0_24interval_coordinate_typeIT_E4typeERKS5_NS0_12direction_1dEPNS_9enable_ifINS0_6gtl_ifINS0_19is_interval_conceptINS0_16geometry_conceptIS5_E4typeEE4typeEE4typeEvE4typeE$stub
	lwz r0,268(r1)
	stw r29,256(r1)
	stfs f1,252(r1)
	cmpwi cr7,r0,0
	beq cr7,L925
L943:
	li r0,-1
	stw r0,256(r1)
L925:
	lwz r4,8(r30)
	lwz r0,12(r30)
	cmpw cr7,r4,r0
	beq cr7,L933
	cmpwi cr7,r4,0
	beq cr7,L935
	lwz r0,252(r1)
	lwz r9,256(r1)
	lwz r2,248(r1)
	stw r0,4(r4)
	stw r9,8(r4)
	stw r2,0(r4)
	lwz r4,8(r30)
L935:
	addi r4,r4,12
	stw r4,8(r30)
	b L937
L933:
	lwz r3,348(r1)
	lwz r5,352(r1)
	bl L__ZNSt6vectorISt4pairIfS0_IfiEESaIS2_EE13_M_insert_auxEN9__gnu_cxx17__normal_iteratorIPS2_S4_EERKS2_$stub
	.p2align 4,,15
L937:
	lwz r0,0(r30)
	cmpw cr7,r28,r0
	beq cr7,L938
	lwz r2,8(r30)
	addi r9,r2,-12
	lfs f0,-12(r2)
	lfs f13,4(r9)
	stfs f0,4(r9)
	stfs f13,-12(r2)
L938:
	lwz r2,260(r1)
	lwz r9,300(r1)
	li r0,1
	stw r0,20(r30)
	stw r0,16(r30)
	addi r29,r2,1
	cmpw cr7,r9,r29
	stw r29,260(r1)
	bne cr7,L922
L920:
	cmpw cr7,r21,r26
	mr r28,r26
	bne cr7,L941
L917:
	addi r1,r1,448
	mr r3,r30
	lwz r0,8(r1)
	lmw r13,-76(r1)
	mtlr r0
	blr
LFE8526:
	.align 2
	.p2align 4,,15
	.globl __ZThn24_NK5boost16exception_detail10clone_implINS0_14bad_exception_EE7rethrowEv
	.weak_definition __ZThn24_NK5boost16exception_detail10clone_implINS0_14bad_exception_EE7rethrowEv
	.private_extern __ZThn24_NK5boost16exception_detail10clone_implINS0_14bad_exception_EE7rethrowEv
__ZThn24_NK5boost16exception_detail10clone_implINS0_14bad_exception_EE7rethrowEv:
LFB14264:
	addi r3,r3,-24
	b L__ZNK5boost16exception_detail10clone_implINS0_14bad_exception_EE7rethrowEv$stub
LFE14264:
	.align 2
	.p2align 4,,15
	.globl __ZNK5boost16exception_detail10clone_implINS0_14bad_exception_EE7rethrowEv
	.weak_definition __ZNK5boost16exception_detail10clone_implINS0_14bad_exception_EE7rethrowEv
	.private_extern __ZNK5boost16exception_detail10clone_implINS0_14bad_exception_EE7rethrowEv
__ZNK5boost16exception_detail10clone_implINS0_14bad_exception_EE7rethrowEv:
LFB14224:
	mflr r0
LCFI233:
	stmw r29,-12(r1)
LCFI234:
	bcl 20,31,"L00000000036$pb"
"L00000000036$pb":
	stw r0,8(r1)
LCFI235:
	stwu r1,-80(r1)
LCFI236:
	mr r29,r3
	mflr r31
	li r3,28
	bl L___cxa_allocate_exception$stub
	addis r2,r31,ha16(L__ZTVN5boost9exceptionE$non_lazy_ptr-"L00000000036$pb")
	mr r30,r3
	lwz r3,4(r29)
	lwz r2,lo16(L__ZTVN5boost9exceptionE$non_lazy_ptr-"L00000000036$pb")(r2)
	cmpwi cr7,r3,0
	stw r3,4(r30)
	addi r2,r2,8
	stw r2,0(r30)
	beq- cr7,L945
	lwz r2,0(r3)
	lwz r0,12(r2)
	mtctr r0
	mr r12,r0
LEHB10:
	bctrl
LEHE10:
L945:
	addis r2,r31,ha16(__ZTVN5boost16exception_detail10clone_implINS0_14bad_exception_EEE-"L00000000036$pb")
	lwz r8,16(r29)
	lwz r0,8(r29)
	lwz r9,12(r29)
	addis r5,r31,ha16(L__ZN5boost16exception_detail10clone_implINS0_14bad_exception_EED1Ev$non_lazy_ptr-"L00000000036$pb")
	addis r4,r31,ha16(__ZTIN5boost16exception_detail10clone_implINS0_14bad_exception_EEE-"L00000000036$pb")
	la r2,lo16(__ZTVN5boost16exception_detail10clone_implINS0_14bad_exception_EEE-"L00000000036$pb")(r2)
	mr r3,r30
	lwz r5,lo16(L__ZN5boost16exception_detail10clone_implINS0_14bad_exception_EED1Ev$non_lazy_ptr-"L00000000036$pb")(r5)
	la r4,lo16(__ZTIN5boost16exception_detail10clone_implINS0_14bad_exception_EEE-"L00000000036$pb")(r4)
	addi r10,r2,52
	addi r11,r2,8
	stw r0,8(r30)
	stw r8,16(r30)
	stw r9,12(r30)
	addi r2,r2,32
	stw r11,0(r30)
	stw r10,24(r30)
	stw r2,20(r30)
LEHB11:
	bl L___cxa_throw$stub
L950:
	cmpwi cr7,r4,-1
	beq cr7,L947
	bl L__Unwind_Resume$stub
LEHE11:
L947:
	bl L__ZSt9terminatev$stub
LFE14224:
	.section __DATA,__gcc_except_tab
GCC_except_table4:
	.align 2
LLSDA14224:
	.byte	0xff
	.byte	0x0
	.byte	0x21
	.byte	0x3
	.byte	0x1a
	.set L$set$24,LEHB10-LFB14224
	.long L$set$24
	.set L$set$25,LEHE10-LEHB10
	.long L$set$25
	.set L$set$26,L950-LFB14224
	.long L$set$26
	.byte	0x1
	.set L$set$27,LEHB11-LFB14224
	.long L$set$27
	.set L$set$28,LEHE11-LEHB11
	.long L$set$28
	.long	0x0
	.byte	0x0
	.byte	0x7f
	.byte	0x0
	.align 2
	.byte	0x0
	.section __TEXT,__textcoal_nt,coalesced,pure_instructions
	.align 2
	.p2align 4,,15
	.globl __ZNSt6vectorISt4pairIfS0_IfiEESaIS2_EE15_M_range_insertIN9__gnu_cxx17__normal_iteratorIPS2_S4_EEEEvS9_T_SA_St20forward_iterator_tag
	.weak_definition __ZNSt6vectorISt4pairIfS0_IfiEESaIS2_EE15_M_range_insertIN9__gnu_cxx17__normal_iteratorIPS2_S4_EEEEvS9_T_SA_St20forward_iterator_tag
	.private_extern __ZNSt6vectorISt4pairIfS0_IfiEESaIS2_EE15_M_range_insertIN9__gnu_cxx17__normal_iteratorIPS2_S4_EEEEvS9_T_SA_St20forward_iterator_tag
__ZNSt6vectorISt4pairIfS0_IfiEESaIS2_EE15_M_range_insertIN9__gnu_cxx17__normal_iteratorIPS2_S4_EEEEvS9_T_SA_St20forward_iterator_tag:
LFB12621:
	mflr r0
LCFI237:
	cmpw cr7,r5,r6
	bcl 20,31,"L00000000037$pb"
"L00000000037$pb":
	stmw r24,-32(r1)
LCFI238:
	mflr r31
	stw r0,8(r1)
LCFI239:
	stwu r1,-112(r1)
LCFI240:
	mr r26,r5
	mr r30,r6
	mr r29,r4
	mr r28,r3
	mr r25,r4
	beq cr7,L1007
	lwz r4,4(r3)
	lwz r0,8(r3)
	subf r2,r5,r6
	lis r9,0xaaaa
	srawi r2,r2,2
	ori r9,r9,43691
	subf r0,r4,r0
	mullw r11,r2,r9
	mr r8,r4
	srawi r0,r0,2
	mullw r0,r0,r9
	stw r11,60(r1)
	cmplw cr7,r11,r0
	bgt cr7,L954
	subf r0,r29,r4
	srawi r0,r0,2
	mullw r10,r0,r9
	cmplw cr7,r11,r10
	bge cr7,L956
	slwi r0,r2,2
	subf r11,r0,r4
	cmpw cr7,r4,r11
	beq cr7,L958
	mr r10,r4
	.p2align 4,,15
L960:
	cmpwi cr7,r10,0
	beq cr7,L961
	lwz r0,0(r11)
	lwz r2,4(r11)
	lwz r9,8(r11)
	stw r0,0(r10)
	stw r2,4(r10)
	stw r9,8(r10)
L961:
	addi r11,r11,12
	cmpw cr7,r4,r11
	beq cr7,L1008
	addi r10,r10,12
	b L960
L1008:
	lwz r4,4(r28)
L958:
	lwz r0,60(r1)
	lis r9,0xaaaa
	ori r9,r9,43691
	mulli r0,r0,12
	subf r11,r0,r8
	add r4,r4,r0
	subf r2,r29,r11
	stw r4,4(r28)
	srawi r2,r2,2
	mullw. r0,r2,r9
	mtctr r0
	ble cr0,L964
	mr r10,r8
	.p2align 4,,15
L966:
	lwz r0,-12(r11)
	lwz r2,-8(r11)
	lwz r9,-4(r11)
	addi r11,r11,-12
	stw r0,-12(r10)
	stw r2,-8(r10)
	stw r9,-4(r10)
	addi r10,r10,-12
	bdnz L966
L964:
	subf r0,r26,r30
	lis r2,0xaaaa
	srawi r0,r0,2
	ori r2,r2,43691
	mullw. r9,r0,r2
	mtctr r9
	ble cr0,L1007
	mr r11,r25
	mr r5,r26
	.p2align 4,,15
L968:
	lwz r0,0(r5)
	lwz r2,4(r5)
	lwz r9,8(r5)
	addi r5,r5,12
	stw r0,0(r11)
	stw r2,4(r11)
	stw r9,8(r11)
	addi r11,r11,12
	bdz L1007
	b L968
L956:
	slwi r0,r0,2
	add r7,r0,r5
	cmpw cr7,r7,r6
	mr r11,r7
	beq cr7,L969
	mr r9,r7
	.p2align 4,,15
L971:
	cmpwi cr7,r4,0
	beq cr7,L972
	lwz r0,8(r9)
	lwz r2,0(r9)
	lwz r9,4(r9)
	stw r0,8(r4)
	stw r2,0(r4)
	stw r9,4(r4)
L972:
	addi r9,r11,12
	cmpw cr7,r30,r9
	beq cr7,L1009
	addi r4,r4,12
	mr r11,r9
	b L971
L1009:
	lwz r4,4(r28)
L969:
	lwz r0,60(r1)
	cmpw cr7,r8,r29
	mr r9,r29
	subf r0,r10,r0
	mulli r0,r0,12
	add r4,r0,r4
	stw r4,4(r28)
	mr r11,r4
	beq cr7,L975
	mr r4,r29
	.p2align 4,,15
L977:
	cmpwi cr7,r11,0
	beq cr7,L978
	lwz r0,8(r9)
	lwz r2,0(r9)
	lwz r9,4(r9)
	stw r0,8(r11)
	stw r2,0(r11)
	stw r9,4(r11)
L978:
	addi r9,r4,12
	cmpw cr7,r8,r9
	beq cr7,L1010
	addi r11,r11,12
	mr r4,r9
	b L977
L1010:
	lwz r4,4(r28)
L975:
	subf r2,r26,r7
	lis r0,0xaaaa
	mulli r9,r10,12
	srawi r2,r2,2
	ori r0,r0,43691
	mullw. r11,r2,r0
	add r4,r4,r9
	stw r4,4(r28)
	mtctr r11
	ble cr0,L1007
	mr r11,r25
	mr r5,r26
	.p2align 4,,15
L982:
	lwz r0,0(r5)
	lwz r2,4(r5)
	lwz r9,8(r5)
	addi r5,r5,12
	stw r0,0(r11)
	stw r2,4(r11)
	stw r9,8(r11)
	addi r11,r11,12
	bdz L1007
	b L982
	.p2align 4,,15
L954:
	lwz r0,0(r3)
	lis r2,0x1555
	ori r2,r2,21845
	subf r0,r0,r4
	srawi r0,r0,2
	mullw r4,r0,r9
	subf r2,r4,r2
	stw r4,64(r1)
	cmplw cr7,r11,r2
	ble+ cr7,L983
	addis r3,r31,ha16(LC6-"L00000000037$pb")
	la r3,lo16(LC6-"L00000000037$pb")(r3)
	bl L__ZSt20__throw_length_errorPKc$stub
	.p2align 4,,15
L983:
	cmplw cr7,r11,r4
	addi r2,r1,60
	bgt cr7,L987
	addi r2,r1,64
L987:
	lwz r0,0(r2)
	li r24,-4
	add r2,r4,r0
	cmplw cr7,r4,r2
	bgt cr7,L992
	lis r0,0x1555
	ori r0,r0,21845
	cmplw cr7,r2,r0
	bgt cr7,L990
	mulli r24,r2,12
	b L992
L990:
	bl L__ZSt17__throw_bad_allocv$stub
	.p2align 4,,15
L992:
	mr r3,r24
	bl L__Znwm$stub
	lwz r11,0(r28)
	mr r27,r3
	mr r10,r3
	cmpw cr7,r29,r11
	beq cr7,L993
	.p2align 4,,15
L1011:
	cmpwi cr7,r10,0
	beq cr7,L995
	lwz r0,0(r11)
	lwz r2,4(r11)
	lwz r9,8(r11)
	stw r0,0(r10)
	stw r2,4(r10)
	stw r9,8(r10)
L995:
	addi r11,r11,12
	addi r10,r10,12
	cmpw cr7,r11,r29
	bne cr7,L1011
L993:
	cmpw cr7,r30,r26
	mr r5,r26
	beq cr7,L997
	.p2align 4,,15
L1012:
	cmpwi cr7,r10,0
	beq cr7,L999
	lwz r0,0(r5)
	lwz r2,4(r5)
	lwz r9,8(r5)
	stw r0,0(r10)
	stw r2,4(r10)
	stw r9,8(r10)
L999:
	addi r5,r5,12
	addi r10,r10,12
	cmpw cr7,r30,r5
	bne cr7,L1012
L997:
	lwz r4,4(r28)
	mr r11,r25
	mr r30,r10
	cmpw cr7,r4,r25
	beq cr7,L1001
	.p2align 4,,15
L1013:
	cmpwi cr7,r30,0
	beq cr7,L1003
	lwz r0,0(r11)
	lwz r2,4(r11)
	lwz r9,8(r11)
	stw r0,0(r30)
	stw r2,4(r30)
	stw r9,8(r30)
L1003:
	addi r11,r11,12
	addi r30,r30,12
	cmpw cr7,r4,r11
	bne cr7,L1013
	lwz r4,4(r28)
L1001:
	lwz r3,0(r28)
	addi r5,r1,56
	bl L__ZSt8_DestroyIPSt4pairIfS0_IfiEESaIS2_EEvT_S5_T0_$stub
	lwz r3,0(r28)
	cmpwi cr7,r3,0
	beq cr7,L1005
	bl L__ZdlPv$stub
L1005:
	add r0,r27,r24
	stw r30,4(r28)
	stw r27,0(r28)
	stw r0,8(r28)
	.p2align 4,,15
L1007:
	addi r1,r1,112
	lwz r0,8(r1)
	lmw r24,-32(r1)
	mtlr r0
	blr
LFE12621:
	.align 2
	.p2align 4,,15
	.globl __ZN5boost7polygon6assignINS0_19polygon_90_set_dataIfEES3_EERNS_9enable_ifINS0_7gtl_andINS0_30is_mutable_polygon_90_set_typeIT_E4typeENS0_22is_polygon_90_set_typeIT0_E4typeEE4typeES7_E4typeERS7_RKSB_
	.weak_definition __ZN5boost7polygon6assignINS0_19polygon_90_set_dataIfEES3_EERNS_9enable_ifINS0_7gtl_andINS0_30is_mutable_polygon_90_set_typeIT_E4typeENS0_22is_polygon_90_set_typeIT0_E4typeEE4typeES7_E4typeERS7_RKSB_
	.private_extern __ZN5boost7polygon6assignINS0_19polygon_90_set_dataIfEES3_EERNS_9enable_ifINS0_7gtl_andINS0_30is_mutable_polygon_90_set_typeIT_E4typeENS0_22is_polygon_90_set_typeIT0_E4typeEE4typeES7_E4typeERS7_RKSB_
__ZN5boost7polygon6assignINS0_19polygon_90_set_dataIfEES3_EERNS_9enable_ifINS0_7gtl_andINS0_30is_mutable_polygon_90_set_typeIT_E4typeENS0_22is_polygon_90_set_typeIT0_E4typeEE4typeES7_E4typeERS7_RKSB_:
LFB9462:
	mflr r0
LCFI241:
	stmw r25,-28(r1)
LCFI242:
	mr r30,r3
	stw r0,8(r1)
LCFI243:
	stwu r1,-112(r1)
LCFI244:
	mr r28,r4
	addi r26,r30,4
	addi r29,r1,72
	mr r3,r29
	bl L__ZN5boost7polygon17begin_90_set_dataINS0_19polygon_90_set_dataIfEEEENS_9enable_ifINS0_22is_polygon_90_set_typeIT_E4typeENS0_21polygon_90_set_traitsIS6_E13iterator_typeEE4typeERKS6_$stub
	mr r3,r29
	mr r4,r28
	lwz r25,72(r1)
	bl L__ZN5boost7polygon15end_90_set_dataINS0_19polygon_90_set_dataIfEEEENS_9enable_ifINS0_22is_polygon_90_set_typeIT_E4typeENS0_21polygon_90_set_traitsIS6_E13iterator_typeEE4typeERKS6_$stub
	mr r4,r28
	addi r3,r1,56
	lwz r28,72(r1)
	bl L__ZN5boost7polygon20scanline_orientationINS0_19polygon_90_set_dataIfEEEENS_9enable_ifINS0_22is_polygon_90_set_typeIT_E4typeENS0_14orientation_2dEE4typeERKS6_$stub
	lwz r5,4(r30)
	lwz r6,8(r30)
	mr r3,r29
	mr r4,r26
	mr r29,r25
	bl L__ZNSt6vectorISt4pairIfS0_IfiEESaIS2_EE5eraseEN9__gnu_cxx17__normal_iteratorIPS2_S4_EES8_$stub
	cmpw cr7,r25,r28
	li r0,0
	lwz r27,56(r1)
	stw r0,16(r30)
	stw r0,20(r30)
	beq cr7,L1022
	lwz r0,4(r30)
	lwz r4,8(r30)
	cmpw cr7,r0,r4
	beq cr7,L1024
	cmpw cr7,r25,r0
	bne cr7,L1024
	b L1022
L1038:
	mr r3,r26
	mr r5,r25
	mr r6,r28
	mr r7,r30
	bl L__ZNSt6vectorISt4pairIfS0_IfiEESaIS2_EE15_M_range_insertIN9__gnu_cxx17__normal_iteratorIPKS2_S4_EEEEvNS7_IPS2_S4_EET_SD_St20forward_iterator_tag$stub
	b L1022
	.p2align 4,,15
L1036:
	lwz r4,8(r30)
L1037:
	lwz r0,12(r30)
	cmpw cr7,r4,r0
	beq cr7,L1028
	cmpwi cr7,r4,0
	beq cr7,L1030
	lwz r0,0(r29)
	lwz r2,4(r29)
	lwz r9,8(r29)
	stw r0,0(r4)
	stw r2,4(r4)
	stw r9,8(r4)
	lwz r4,8(r30)
L1030:
	addi r4,r4,12
	stw r4,8(r30)
	b L1032
L1028:
	mr r3,r26
	mr r5,r29
	bl L__ZNSt6vectorISt4pairIfS0_IfiEESaIS2_EE13_M_insert_auxEN9__gnu_cxx17__normal_iteratorIPS2_S4_EERKS2_$stub
	.p2align 4,,15
L1032:
	lwz r0,0(r30)
	cmpw cr7,r27,r0
	beq cr7,L1033
	lwz r2,8(r30)
	addi r9,r2,-12
	lfs f0,-12(r2)
	lfs f13,4(r9)
	stfs f0,4(r9)
	stfs f13,-12(r2)
L1033:
	addi r29,r29,12
	li r0,1
	cmpw cr7,r28,r29
	stw r0,20(r30)
	stw r0,16(r30)
	bne cr7,L1036
	b L1022
	.p2align 4,,15
L1024:
	lwz r0,0(r30)
	li r2,1
	stw r2,20(r30)
	stw r2,16(r30)
	cmpw cr7,r27,r0
	bne cr7,L1037
	b L1038
	.p2align 4,,15
L1022:
	addi r1,r1,112
	mr r3,r30
	lwz r0,8(r1)
	lmw r25,-28(r1)
	mtlr r0
	blr
LFE9462:
	.align 2
	.p2align 4,,15
	.globl __ZThn24_NK5boost16exception_detail10clone_implINS0_10bad_alloc_EE7rethrowEv
	.weak_definition __ZThn24_NK5boost16exception_detail10clone_implINS0_10bad_alloc_EE7rethrowEv
	.private_extern __ZThn24_NK5boost16exception_detail10clone_implINS0_10bad_alloc_EE7rethrowEv
__ZThn24_NK5boost16exception_detail10clone_implINS0_10bad_alloc_EE7rethrowEv:
LFB14265:
	addi r3,r3,-24
	b L__ZNK5boost16exception_detail10clone_implINS0_10bad_alloc_EE7rethrowEv$stub
LFE14265:
	.align 2
	.p2align 4,,15
	.globl __ZNK5boost16exception_detail10clone_implINS0_10bad_alloc_EE7rethrowEv
	.weak_definition __ZNK5boost16exception_detail10clone_implINS0_10bad_alloc_EE7rethrowEv
	.private_extern __ZNK5boost16exception_detail10clone_implINS0_10bad_alloc_EE7rethrowEv
__ZNK5boost16exception_detail10clone_implINS0_10bad_alloc_EE7rethrowEv:
LFB14226:
	mflr r0
LCFI245:
	stmw r29,-12(r1)
LCFI246:
	bcl 20,31,"L00000000038$pb"
"L00000000038$pb":
	stw r0,8(r1)
LCFI247:
	stwu r1,-80(r1)
LCFI248:
	mr r29,r3
	mflr r31
	li r3,28
	bl L___cxa_allocate_exception$stub
	addis r2,r31,ha16(L__ZTVN5boost9exceptionE$non_lazy_ptr-"L00000000038$pb")
	mr r30,r3
	lwz r3,4(r29)
	lwz r2,lo16(L__ZTVN5boost9exceptionE$non_lazy_ptr-"L00000000038$pb")(r2)
	cmpwi cr7,r3,0
	stw r3,4(r30)
	addi r2,r2,8
	stw r2,0(r30)
	beq- cr7,L1040
	lwz r2,0(r3)
	lwz r0,12(r2)
	mtctr r0
	mr r12,r0
LEHB12:
	bctrl
LEHE12:
L1040:
	addis r2,r31,ha16(__ZTVN5boost16exception_detail10clone_implINS0_10bad_alloc_EEE-"L00000000038$pb")
	lwz r8,16(r29)
	lwz r0,8(r29)
	lwz r9,12(r29)
	addis r5,r31,ha16(L__ZN5boost16exception_detail10clone_implINS0_10bad_alloc_EED1Ev$non_lazy_ptr-"L00000000038$pb")
	addis r4,r31,ha16(__ZTIN5boost16exception_detail10clone_implINS0_10bad_alloc_EEE-"L00000000038$pb")
	la r2,lo16(__ZTVN5boost16exception_detail10clone_implINS0_10bad_alloc_EEE-"L00000000038$pb")(r2)
	mr r3,r30
	lwz r5,lo16(L__ZN5boost16exception_detail10clone_implINS0_10bad_alloc_EED1Ev$non_lazy_ptr-"L00000000038$pb")(r5)
	la r4,lo16(__ZTIN5boost16exception_detail10clone_implINS0_10bad_alloc_EEE-"L00000000038$pb")(r4)
	addi r10,r2,52
	addi r11,r2,8
	stw r0,8(r30)
	stw r8,16(r30)
	stw r9,12(r30)
	addi r2,r2,32
	stw r11,0(r30)
	stw r10,24(r30)
	stw r2,20(r30)
LEHB13:
	bl L___cxa_throw$stub
L1045:
	cmpwi cr7,r4,-1
	beq cr7,L1042
	bl L__Unwind_Resume$stub
LEHE13:
L1042:
	bl L__ZSt9terminatev$stub
LFE14226:
	.section __DATA,__gcc_except_tab
GCC_except_table5:
	.align 2
LLSDA14226:
	.byte	0xff
	.byte	0x0
	.byte	0x21
	.byte	0x3
	.byte	0x1a
	.set L$set$29,LEHB12-LFB14226
	.long L$set$29
	.set L$set$30,LEHE12-LEHB12
	.long L$set$30
	.set L$set$31,L1045-LFB14226
	.long L$set$31
	.byte	0x1
	.set L$set$32,LEHB13-LFB14226
	.long L$set$32
	.set L$set$33,LEHE13-LEHB13
	.long L$set$33
	.long	0x0
	.byte	0x0
	.byte	0x7f
	.byte	0x0
	.align 2
	.byte	0x0
	.section __TEXT,__textcoal_nt,coalesced,pure_instructions
	.align 2
	.p2align 4,,15
	.globl __ZN5boost21thread_resource_errorD0Ev
	.weak_definition __ZN5boost21thread_resource_errorD0Ev
	.private_extern __ZN5boost21thread_resource_errorD0Ev
__ZN5boost21thread_resource_errorD0Ev:
LFB4385:
	mflr r0
LCFI249:
	bcl 20,31,"L00000000039$pb"
"L00000000039$pb":
	stmw r29,-12(r1)
LCFI250:
	mflr r31
	stw r0,8(r1)
LCFI251:
	stwu r1,-80(r1)
LCFI252:
	mr r29,r3
	addis r2,r31,ha16(__ZTVN5boost16thread_exceptionE-"L00000000039$pb")
	la r2,lo16(__ZTVN5boost16thread_exceptionE-"L00000000039$pb")(r2)
	addi r2,r2,8
	stw r2,0(r3)
	bl L__ZNSt9exceptionD2Ev$stub
	addi r1,r1,80
	mr r3,r29
	lwz r0,8(r1)
	lmw r29,-12(r1)
	mtlr r0
	b L__ZdlPv$stub
LFE4385:
	.align 2
	.p2align 4,,15
	.globl __ZThn28_NK5boost16exception_detail10clone_implINS0_19error_info_injectorINS_21thread_resource_errorEEEE5cloneEv
	.weak_definition __ZThn28_NK5boost16exception_detail10clone_implINS0_19error_info_injectorINS_21thread_resource_errorEEEE5cloneEv
	.private_extern __ZThn28_NK5boost16exception_detail10clone_implINS0_19error_info_injectorINS_21thread_resource_errorEEEE5cloneEv
__ZThn28_NK5boost16exception_detail10clone_implINS0_19error_info_injectorINS_21thread_resource_errorEEEE5cloneEv:
LFB14266:
	addi r3,r3,-28
	b L__ZNK5boost16exception_detail10clone_implINS0_19error_info_injectorINS_21thread_resource_errorEEEE5cloneEv$stub
LFE14266:
	.align 2
	.p2align 4,,15
	.globl __ZNK5boost16exception_detail10clone_implINS0_19error_info_injectorINS_21thread_resource_errorEEEE5cloneEv
	.weak_definition __ZNK5boost16exception_detail10clone_implINS0_19error_info_injectorINS_21thread_resource_errorEEEE5cloneEv
	.private_extern __ZNK5boost16exception_detail10clone_implINS0_19error_info_injectorINS_21thread_resource_errorEEEE5cloneEv
__ZNK5boost16exception_detail10clone_implINS0_19error_info_injectorINS_21thread_resource_errorEEEE5cloneEv:
LFB14235:
	mflr r0
LCFI253:
	stmw r28,-16(r1)
LCFI254:
	bcl 20,31,"L00000000040$pb"
"L00000000040$pb":
	stw r0,8(r1)
LCFI255:
	stwu r1,-80(r1)
LCFI256:
	mr r29,r3
	mflr r31
	li r3,32
LEHB14:
	bl L__Znwm$stub
LEHE14:
	addis r2,r31,ha16(L__ZTVN5boost9exceptionE$non_lazy_ptr-"L00000000040$pb")
	addis r9,r31,ha16(__ZTVN5boost21thread_resource_errorE-"L00000000040$pb")
	lwz r0,4(r29)
	mr r30,r3
	lwz r3,12(r29)
	addis r11,r31,ha16(__ZTVN5boost16thread_exceptionE-"L00000000040$pb")
	lwz r2,lo16(L__ZTVN5boost9exceptionE$non_lazy_ptr-"L00000000040$pb")(r2)
	la r9,lo16(__ZTVN5boost21thread_resource_errorE-"L00000000040$pb")(r9)
	la r11,lo16(__ZTVN5boost16thread_exceptionE-"L00000000040$pb")(r11)
	addi r9,r9,8
	stw r0,4(r30)
	cmpwi cr7,r3,0
	stw r3,12(r30)
	addi r2,r2,8
	stw r9,0(r30)
	addi r28,r11,8
	stw r2,8(r30)
	beq cr7,L1050
	lwz r2,0(r3)
	lwz r0,12(r2)
	mtctr r0
	mr r12,r0
LEHB15:
	bctrl
LEHE15:
	b L1050
L1056:
L1052:
L1057:
L1054:
	stw r28,0(r30)
	mr r29,r3
	mr r3,r30
	bl L__ZNSt9exceptionD2Ev$stub
	mr r3,r30
	bl L__ZdlPv$stub
	mr r3,r29
LEHB16:
	bl L__Unwind_Resume$stub
LEHE16:
	.p2align 4,,15
L1050:
	addis r2,r31,ha16(__ZTVN5boost16exception_detail10clone_implINS0_19error_info_injectorINS_21thread_resource_errorEEEEE-"L00000000040$pb")
	lwz r0,16(r29)
	lwz r8,24(r29)
	lwz r9,20(r29)
	addi r1,r1,80
	addi r3,r30,28
	la r2,lo16(__ZTVN5boost16exception_detail10clone_implINS0_19error_info_injectorINS_21thread_resource_errorEEEEE-"L00000000040$pb")(r2)
	addi r10,r2,52
	addi r11,r2,8
	stw r0,16(r30)
	stw r8,24(r30)
	stw r9,20(r30)
	addi r2,r2,36
	stw r11,0(r30)
	stw r10,28(r30)
	stw r2,8(r30)
	lwz r0,8(r1)
	lmw r28,-16(r1)
	mtlr r0
	blr
LFE14235:
	.section __DATA,__gcc_except_tab
GCC_except_table6:
LLSDA14235:
	.byte	0xff
	.byte	0xff
	.byte	0x3
	.byte	0x27
	.set L$set$34,LEHB14-LFB14235
	.long L$set$34
	.set L$set$35,LEHE14-LEHB14
	.long L$set$35
	.long	0x0
	.byte	0x0
	.set L$set$36,LEHB15-LFB14235
	.long L$set$36
	.set L$set$37,LEHE15-LEHB15
	.long L$set$37
	.set L$set$38,L1056-LFB14235
	.long L$set$38
	.byte	0x0
	.set L$set$39,LEHB16-LFB14235
	.long L$set$39
	.set L$set$40,LEHE16-LEHB16
	.long L$set$40
	.long	0x0
	.byte	0x0
	.section __TEXT,__textcoal_nt,coalesced,pure_instructions
	.align 2
	.p2align 4,,15
	.globl __ZN5boost10lock_errorD0Ev
	.weak_definition __ZN5boost10lock_errorD0Ev
	.private_extern __ZN5boost10lock_errorD0Ev
__ZN5boost10lock_errorD0Ev:
LFB4374:
	mflr r0
LCFI257:
	bcl 20,31,"L00000000041$pb"
"L00000000041$pb":
	stmw r29,-12(r1)
LCFI258:
	mflr r31
	stw r0,8(r1)
LCFI259:
	stwu r1,-80(r1)
LCFI260:
	mr r29,r3
	addis r2,r31,ha16(__ZTVN5boost16thread_exceptionE-"L00000000041$pb")
	la r2,lo16(__ZTVN5boost16thread_exceptionE-"L00000000041$pb")(r2)
	addi r2,r2,8
	stw r2,0(r3)
	bl L__ZNSt9exceptionD2Ev$stub
	addi r1,r1,80
	mr r3,r29
	lwz r0,8(r1)
	lmw r29,-12(r1)
	mtlr r0
	b L__ZdlPv$stub
LFE4374:
	.align 2
	.p2align 4,,15
	.globl __ZThn28_NK5boost16exception_detail10clone_implINS0_19error_info_injectorINS_10lock_errorEEEE7rethrowEv
	.weak_definition __ZThn28_NK5boost16exception_detail10clone_implINS0_19error_info_injectorINS_10lock_errorEEEE7rethrowEv
	.private_extern __ZThn28_NK5boost16exception_detail10clone_implINS0_19error_info_injectorINS_10lock_errorEEEE7rethrowEv
__ZThn28_NK5boost16exception_detail10clone_implINS0_19error_info_injectorINS_10lock_errorEEEE7rethrowEv:
LFB14267:
	addi r3,r3,-28
	b L__ZNK5boost16exception_detail10clone_implINS0_19error_info_injectorINS_10lock_errorEEEE7rethrowEv$stub
LFE14267:
	.align 2
	.p2align 4,,15
	.globl __ZNK5boost16exception_detail10clone_implINS0_19error_info_injectorINS_10lock_errorEEEE7rethrowEv
	.weak_definition __ZNK5boost16exception_detail10clone_implINS0_19error_info_injectorINS_10lock_errorEEEE7rethrowEv
	.private_extern __ZNK5boost16exception_detail10clone_implINS0_19error_info_injectorINS_10lock_errorEEEE7rethrowEv
__ZNK5boost16exception_detail10clone_implINS0_19error_info_injectorINS_10lock_errorEEEE7rethrowEv:
LFB14234:
	mflr r0
LCFI261:
	stmw r28,-16(r1)
LCFI262:
	bcl 20,31,"L00000000042$pb"
"L00000000042$pb":
	stw r0,8(r1)
LCFI263:
	stwu r1,-80(r1)
LCFI264:
	mr r29,r3
	mflr r31
	li r3,32
	bl L___cxa_allocate_exception$stub
	addis r2,r31,ha16(L__ZTVN5boost9exceptionE$non_lazy_ptr-"L00000000042$pb")
	addis r9,r31,ha16(__ZTVN5boost10lock_errorE-"L00000000042$pb")
	lwz r0,4(r29)
	mr r30,r3
	lwz r3,12(r29)
	addis r11,r31,ha16(__ZTVN5boost16thread_exceptionE-"L00000000042$pb")
	lwz r2,lo16(L__ZTVN5boost9exceptionE$non_lazy_ptr-"L00000000042$pb")(r2)
	la r9,lo16(__ZTVN5boost10lock_errorE-"L00000000042$pb")(r9)
	la r11,lo16(__ZTVN5boost16thread_exceptionE-"L00000000042$pb")(r11)
	addi r9,r9,8
	stw r0,4(r30)
	cmpwi cr7,r3,0
	stw r3,12(r30)
	addi r2,r2,8
	stw r9,0(r30)
	addi r28,r11,8
	stw r2,8(r30)
	beq- cr7,L1062
	lwz r2,0(r3)
	lwz r0,12(r2)
	mtctr r0
	mr r12,r0
LEHB17:
	bctrl
LEHE17:
L1062:
	addis r2,r31,ha16(__ZTVN5boost16exception_detail10clone_implINS0_19error_info_injectorINS_10lock_errorEEEEE-"L00000000042$pb")
	lwz r8,24(r29)
	lwz r0,16(r29)
	lwz r9,20(r29)
	addis r5,r31,ha16(L__ZN5boost16exception_detail10clone_implINS0_19error_info_injectorINS_10lock_errorEEEED1Ev$non_lazy_ptr-"L00000000042$pb")
	addis r4,r31,ha16(__ZTIN5boost16exception_detail10clone_implINS0_19error_info_injectorINS_10lock_errorEEEEE-"L00000000042$pb")
	la r2,lo16(__ZTVN5boost16exception_detail10clone_implINS0_19error_info_injectorINS_10lock_errorEEEEE-"L00000000042$pb")(r2)
	mr r3,r30
	lwz r5,lo16(L__ZN5boost16exception_detail10clone_implINS0_19error_info_injectorINS_10lock_errorEEEED1Ev$non_lazy_ptr-"L00000000042$pb")(r5)
	la r4,lo16(__ZTIN5boost16exception_detail10clone_implINS0_19error_info_injectorINS_10lock_errorEEEEE-"L00000000042$pb")(r4)
	addi r10,r2,52
	addi r11,r2,8
	stw r0,16(r30)
	stw r8,24(r30)
	stw r9,20(r30)
	addi r2,r2,36
	stw r11,0(r30)
	stw r10,28(r30)
	stw r2,8(r30)
LEHB18:
	bl L___cxa_throw$stub
L1069:
L1064:
L1070:
	stw r28,0(r30)
	mr r29,r4
	mr r28,r3
	mr r3,r30
	bl L__ZNSt9exceptionD2Ev$stub
	cmpwi cr7,r29,-1
	beq cr7,L1066
	mr r3,r28
	bl L__Unwind_Resume$stub
LEHE18:
L1066:
	bl L__ZSt9terminatev$stub
LFE14234:
	.section __DATA,__gcc_except_tab
GCC_except_table7:
	.align 2
LLSDA14234:
	.byte	0xff
	.byte	0x0
	.byte	0x21
	.byte	0x3
	.byte	0x1a
	.set L$set$41,LEHB17-LFB14234
	.long L$set$41
	.set L$set$42,LEHE17-LEHB17
	.long L$set$42
	.set L$set$43,L1069-LFB14234
	.long L$set$43
	.byte	0x3
	.set L$set$44,LEHB18-LFB14234
	.long L$set$44
	.set L$set$45,LEHE18-LEHB18
	.long L$set$45
	.long	0x0
	.byte	0x0
	.byte	0x7f
	.byte	0x0
	.byte	0x0
	.byte	0x7d
	.align 2
	.byte	0x0
	.section __TEXT,__textcoal_nt,coalesced,pure_instructions
	.align 2
	.p2align 4,,15
	.globl __ZN5boost10lock_errorD1Ev
	.weak_definition __ZN5boost10lock_errorD1Ev
	.private_extern __ZN5boost10lock_errorD1Ev
__ZN5boost10lock_errorD1Ev:
LFB4373:
	mflr r0
	bcl 20,31,"L00000000043$pb"
"L00000000043$pb":
	mflr r10
	mtlr r0
	addis r2,r10,ha16(__ZTVN5boost16thread_exceptionE-"L00000000043$pb")
	la r2,lo16(__ZTVN5boost16thread_exceptionE-"L00000000043$pb")(r2)
	addi r2,r2,8
	stw r2,0(r3)
	b L__ZNSt9exceptionD2Ev$stub
LFE4373:
	.align 2
	.p2align 4,,15
	.globl __ZThn28_NK5boost16exception_detail10clone_implINS0_19error_info_injectorINS_21thread_resource_errorEEEE7rethrowEv
	.weak_definition __ZThn28_NK5boost16exception_detail10clone_implINS0_19error_info_injectorINS_21thread_resource_errorEEEE7rethrowEv
	.private_extern __ZThn28_NK5boost16exception_detail10clone_implINS0_19error_info_injectorINS_21thread_resource_errorEEEE7rethrowEv
__ZThn28_NK5boost16exception_detail10clone_implINS0_19error_info_injectorINS_21thread_resource_errorEEEE7rethrowEv:
LFB14268:
	addi r3,r3,-28
	b L__ZNK5boost16exception_detail10clone_implINS0_19error_info_injectorINS_21thread_resource_errorEEEE7rethrowEv$stub
LFE14268:
	.align 2
	.p2align 4,,15
	.globl __ZNK5boost16exception_detail10clone_implINS0_19error_info_injectorINS_21thread_resource_errorEEEE7rethrowEv
	.weak_definition __ZNK5boost16exception_detail10clone_implINS0_19error_info_injectorINS_21thread_resource_errorEEEE7rethrowEv
	.private_extern __ZNK5boost16exception_detail10clone_implINS0_19error_info_injectorINS_21thread_resource_errorEEEE7rethrowEv
__ZNK5boost16exception_detail10clone_implINS0_19error_info_injectorINS_21thread_resource_errorEEEE7rethrowEv:
LFB14236:
	mflr r0
LCFI265:
	stmw r28,-16(r1)
LCFI266:
	bcl 20,31,"L00000000044$pb"
"L00000000044$pb":
	stw r0,8(r1)
LCFI267:
	stwu r1,-80(r1)
LCFI268:
	mr r29,r3
	mflr r31
	li r3,32
	bl L___cxa_allocate_exception$stub
	addis r2,r31,ha16(L__ZTVN5boost9exceptionE$non_lazy_ptr-"L00000000044$pb")
	addis r9,r31,ha16(__ZTVN5boost21thread_resource_errorE-"L00000000044$pb")
	lwz r0,4(r29)
	mr r30,r3
	lwz r3,12(r29)
	addis r11,r31,ha16(__ZTVN5boost16thread_exceptionE-"L00000000044$pb")
	lwz r2,lo16(L__ZTVN5boost9exceptionE$non_lazy_ptr-"L00000000044$pb")(r2)
	la r9,lo16(__ZTVN5boost21thread_resource_errorE-"L00000000044$pb")(r9)
	la r11,lo16(__ZTVN5boost16thread_exceptionE-"L00000000044$pb")(r11)
	addi r9,r9,8
	stw r0,4(r30)
	cmpwi cr7,r3,0
	stw r3,12(r30)
	addi r2,r2,8
	stw r9,0(r30)
	addi r28,r11,8
	stw r2,8(r30)
	beq- cr7,L1075
	lwz r2,0(r3)
	lwz r0,12(r2)
	mtctr r0
	mr r12,r0
LEHB19:
	bctrl
LEHE19:
L1075:
	addis r2,r31,ha16(__ZTVN5boost16exception_detail10clone_implINS0_19error_info_injectorINS_21thread_resource_errorEEEEE-"L00000000044$pb")
	lwz r8,24(r29)
	lwz r0,16(r29)
	lwz r9,20(r29)
	addis r5,r31,ha16(L__ZN5boost16exception_detail10clone_implINS0_19error_info_injectorINS_21thread_resource_errorEEEED1Ev$non_lazy_ptr-"L00000000044$pb")
	addis r4,r31,ha16(__ZTIN5boost16exception_detail10clone_implINS0_19error_info_injectorINS_21thread_resource_errorEEEEE-"L00000000044$pb")
	la r2,lo16(__ZTVN5boost16exception_detail10clone_implINS0_19error_info_injectorINS_21thread_resource_errorEEEEE-"L00000000044$pb")(r2)
	mr r3,r30
	lwz r5,lo16(L__ZN5boost16exception_detail10clone_implINS0_19error_info_injectorINS_21thread_resource_errorEEEED1Ev$non_lazy_ptr-"L00000000044$pb")(r5)
	la r4,lo16(__ZTIN5boost16exception_detail10clone_implINS0_19error_info_injectorINS_21thread_resource_errorEEEEE-"L00000000044$pb")(r4)
	addi r10,r2,52
	addi r11,r2,8
	stw r0,16(r30)
	stw r8,24(r30)
	stw r9,20(r30)
	addi r2,r2,36
	stw r11,0(r30)
	stw r10,28(r30)
	stw r2,8(r30)
LEHB20:
	bl L___cxa_throw$stub
L1082:
L1077:
L1083:
	stw r28,0(r30)
	mr r29,r4
	mr r28,r3
	mr r3,r30
	bl L__ZNSt9exceptionD2Ev$stub
	cmpwi cr7,r29,-1
	beq cr7,L1079
	mr r3,r28
	bl L__Unwind_Resume$stub
LEHE20:
L1079:
	bl L__ZSt9terminatev$stub
LFE14236:
	.section __DATA,__gcc_except_tab
GCC_except_table8:
	.align 2
LLSDA14236:
	.byte	0xff
	.byte	0x0
	.byte	0x21
	.byte	0x3
	.byte	0x1a
	.set L$set$46,LEHB19-LFB14236
	.long L$set$46
	.set L$set$47,LEHE19-LEHB19
	.long L$set$47
	.set L$set$48,L1082-LFB14236
	.long L$set$48
	.byte	0x3
	.set L$set$49,LEHB20-LFB14236
	.long L$set$49
	.set L$set$50,LEHE20-LEHB20
	.long L$set$50
	.long	0x0
	.byte	0x0
	.byte	0x7f
	.byte	0x0
	.byte	0x0
	.byte	0x7d
	.align 2
	.byte	0x0
	.section __TEXT,__textcoal_nt,coalesced,pure_instructions
	.align 2
	.p2align 4,,15
	.globl __ZN5boost21thread_resource_errorD1Ev
	.weak_definition __ZN5boost21thread_resource_errorD1Ev
	.private_extern __ZN5boost21thread_resource_errorD1Ev
__ZN5boost21thread_resource_errorD1Ev:
LFB4384:
	mflr r0
	bcl 20,31,"L00000000045$pb"
"L00000000045$pb":
	mflr r10
	mtlr r0
	addis r2,r10,ha16(__ZTVN5boost16thread_exceptionE-"L00000000045$pb")
	la r2,lo16(__ZTVN5boost16thread_exceptionE-"L00000000045$pb")(r2)
	addi r2,r2,8
	stw r2,0(r3)
	b L__ZNSt9exceptionD2Ev$stub
LFE4384:
	.align 2
	.p2align 4,,15
	.globl __ZThn28_NK5boost16exception_detail10clone_implINS0_19error_info_injectorINS_10lock_errorEEEE5cloneEv
	.weak_definition __ZThn28_NK5boost16exception_detail10clone_implINS0_19error_info_injectorINS_10lock_errorEEEE5cloneEv
	.private_extern __ZThn28_NK5boost16exception_detail10clone_implINS0_19error_info_injectorINS_10lock_errorEEEE5cloneEv
__ZThn28_NK5boost16exception_detail10clone_implINS0_19error_info_injectorINS_10lock_errorEEEE5cloneEv:
LFB14269:
	addi r3,r3,-28
	b L__ZNK5boost16exception_detail10clone_implINS0_19error_info_injectorINS_10lock_errorEEEE5cloneEv$stub
LFE14269:
	.align 2
	.p2align 4,,15
	.globl __ZNK5boost16exception_detail10clone_implINS0_19error_info_injectorINS_10lock_errorEEEE5cloneEv
	.weak_definition __ZNK5boost16exception_detail10clone_implINS0_19error_info_injectorINS_10lock_errorEEEE5cloneEv
	.private_extern __ZNK5boost16exception_detail10clone_implINS0_19error_info_injectorINS_10lock_errorEEEE5cloneEv
__ZNK5boost16exception_detail10clone_implINS0_19error_info_injectorINS_10lock_errorEEEE5cloneEv:
LFB14233:
	mflr r0
LCFI269:
	stmw r28,-16(r1)
LCFI270:
	bcl 20,31,"L00000000046$pb"
"L00000000046$pb":
	stw r0,8(r1)
LCFI271:
	stwu r1,-80(r1)
LCFI272:
	mr r29,r3
	mflr r31
	li r3,32
LEHB21:
	bl L__Znwm$stub
LEHE21:
	addis r2,r31,ha16(L__ZTVN5boost9exceptionE$non_lazy_ptr-"L00000000046$pb")
	addis r9,r31,ha16(__ZTVN5boost10lock_errorE-"L00000000046$pb")
	lwz r0,4(r29)
	mr r30,r3
	lwz r3,12(r29)
	addis r11,r31,ha16(__ZTVN5boost16thread_exceptionE-"L00000000046$pb")
	lwz r2,lo16(L__ZTVN5boost9exceptionE$non_lazy_ptr-"L00000000046$pb")(r2)
	la r9,lo16(__ZTVN5boost10lock_errorE-"L00000000046$pb")(r9)
	la r11,lo16(__ZTVN5boost16thread_exceptionE-"L00000000046$pb")(r11)
	addi r9,r9,8
	stw r0,4(r30)
	cmpwi cr7,r3,0
	stw r3,12(r30)
	addi r2,r2,8
	stw r9,0(r30)
	addi r28,r11,8
	stw r2,8(r30)
	beq cr7,L1088
	lwz r2,0(r3)
	lwz r0,12(r2)
	mtctr r0
	mr r12,r0
LEHB22:
	bctrl
LEHE22:
	b L1088
L1094:
L1090:
L1095:
L1092:
	stw r28,0(r30)
	mr r29,r3
	mr r3,r30
	bl L__ZNSt9exceptionD2Ev$stub
	mr r3,r30
	bl L__ZdlPv$stub
	mr r3,r29
LEHB23:
	bl L__Unwind_Resume$stub
LEHE23:
	.p2align 4,,15
L1088:
	addis r2,r31,ha16(__ZTVN5boost16exception_detail10clone_implINS0_19error_info_injectorINS_10lock_errorEEEEE-"L00000000046$pb")
	lwz r0,16(r29)
	lwz r8,24(r29)
	lwz r9,20(r29)
	addi r1,r1,80
	addi r3,r30,28
	la r2,lo16(__ZTVN5boost16exception_detail10clone_implINS0_19error_info_injectorINS_10lock_errorEEEEE-"L00000000046$pb")(r2)
	addi r10,r2,52
	addi r11,r2,8
	stw r0,16(r30)
	stw r8,24(r30)
	stw r9,20(r30)
	addi r2,r2,36
	stw r11,0(r30)
	stw r10,28(r30)
	stw r2,8(r30)
	lwz r0,8(r1)
	lmw r28,-16(r1)
	mtlr r0
	blr
LFE14233:
	.section __DATA,__gcc_except_tab
GCC_except_table9:
LLSDA14233:
	.byte	0xff
	.byte	0xff
	.byte	0x3
	.byte	0x27
	.set L$set$51,LEHB21-LFB14233
	.long L$set$51
	.set L$set$52,LEHE21-LEHB21
	.long L$set$52
	.long	0x0
	.byte	0x0
	.set L$set$53,LEHB22-LFB14233
	.long L$set$53
	.set L$set$54,LEHE22-LEHB22
	.long L$set$54
	.set L$set$55,L1094-LFB14233
	.long L$set$55
	.byte	0x0
	.set L$set$56,LEHB23-LFB14233
	.long L$set$56
	.set L$set$57,LEHE23-LEHB23
	.long L$set$57
	.long	0x0
	.byte	0x0
	.section __TEXT,__textcoal_nt,coalesced,pure_instructions
	.text
	.align 2
	.p2align 4,,15
	.globl __ZN8Fielding13HostViewCocoa14setTimerOfViewEbdRNS_4ViewE
	.private_extern __ZN8Fielding13HostViewCocoa14setTimerOfViewEbdRNS_4ViewE
__ZN8Fielding13HostViewCocoa14setTimerOfViewEbdRNS_4ViewE:
LFB8474:
	mflr r0
LCFI273:
	stfd f31,-8(r1)
LCFI274:
	fmr f31,f1
	stmw r29,-20(r1)
LCFI275:
	bcl 20,31,"L00000000047$pb"
"L00000000047$pb":
	stw r0,8(r1)
LCFI276:
	stwu r1,-144(r1)
LCFI277:
	mflr r31
	lwz r30,96(r3)
	cmpwi cr7,r30,0
	beq cr7,L1103
	lwz r0,8(r30)
	cmpw cr7,r0,r7
	bne cr7,L1103
	stw r4,104(r3)
	stfd f1,108(r3)
	lwz r3,60(r30)
	cmpwi cr7,r3,0
	beq cr7,L1100
	bl L_CFRunLoopTimerInvalidate$stub
	lwz r3,60(r30)
	bl L_CFRelease$stub
	li r0,0
	stw r0,60(r30)
L1100:
	addis r2,r31,ha16(L_kCFAllocatorDefault$non_lazy_ptr-"L00000000047$pb")
	li r0,0
	stw r30,76(r1)
	lwz r2,lo16(L_kCFAllocatorDefault$non_lazy_ptr-"L00000000047$pb")(r2)
	stw r0,88(r1)
	stw r0,72(r1)
	stw r0,80(r1)
	stw r0,84(r1)
	lwz r29,0(r2)
	bl L_CFAbsoluteTimeGetCurrent$stub
	fmr f2,f31
	addis r10,r31,ha16(L__ZN17CocoaViewInstance18EventLoopTimerProcEP16__CFRunLoopTimerPv$non_lazy_ptr-"L00000000047$pb")
	addi r0,r1,72
	fadd f1,f31,f1
	li r8,0
	li r9,0
	lwz r10,lo16(L__ZN17CocoaViewInstance18EventLoopTimerProcEP16__CFRunLoopTimerPv$non_lazy_ptr-"L00000000047$pb")(r10)
	stw r0,56(r1)
	mr r3,r29
	bl L_CFRunLoopTimerCreate$stub
	cmpwi cr7,r3,0
	mr r4,r3
	stw r3,60(r30)
	beq cr7,L1103
	addis r2,r31,ha16(L_kCFRunLoopCommonModes$non_lazy_ptr-"L00000000047$pb")
	lwz r3,56(r30)
	lwz r2,lo16(L_kCFRunLoopCommonModes$non_lazy_ptr-"L00000000047$pb")(r2)
	lwz r5,0(r2)
	bl L_CFRunLoopAddTimer$stub
	.p2align 4,,15
L1103:
	addi r1,r1,144
	lwz r0,8(r1)
	lfd f31,-8(r1)
	lmw r29,-20(r1)
	mtlr r0
	blr
LFE8474:
	.align 2
	.p2align 4,,15
___tcf_4:
LFB14136:
	mflr r0
LCFI278:
	stmw r30,-8(r1)
LCFI279:
	bcl 20,31,"L00000000048$pb"
"L00000000048$pb":
	stw r0,8(r1)
LCFI280:
	stwu r1,-80(r1)
LCFI281:
	mflr r31
	addis r2,r31,ha16(__ZN5boost16exception_detail37exception_ptr_static_exception_objectINS0_14bad_exception_EE1eE-"L00000000048$pb")
	la r2,lo16(__ZN5boost16exception_detail37exception_ptr_static_exception_objectINS0_14bad_exception_EE1eE-"L00000000048$pb")(r2)
	lwz r30,4(r2)
	cmpwi cr7,r30,0
	beq cr7,L1109
	addi r2,r30,4
	sync
	0:
	lwarx r9, 0, r2
	addi r9, r9, -1
	stwcx. r9, 0, r2
	bne- 0b
	isync
	cmpwi cr7,r9,0
	bne cr7,L1109
	lwz r2,0(r30)
	mr r3,r30
	lwz r0,8(r2)
	mtctr r0
	mr r12,r0
	bctrl
	addi r2,r30,8
	sync
	0:
	lwarx r9, 0, r2
	addi r9, r9, -1
	stwcx. r9, 0, r2
	bne- 0b
	isync
	cmpwi cr7,r9,0
	bne cr7,L1109
	lwz r2,0(r30)
	addi r1,r1,80
	mr r3,r30
	lmw r30,-8(r1)
	lwz r0,12(r2)
	mtctr r0
	mr r12,r0
	lwz r0,8(r1)
	mtlr r0
	bctr
	.p2align 4,,15
L1109:
	addi r1,r1,80
	lwz r0,8(r1)
	lmw r30,-8(r1)
	mtlr r0
	blr
LFE14136:
	.section __TEXT,__textcoal_nt,coalesced,pure_instructions
	.align 2
	.p2align 4,,15
	.globl __ZThn24_N5boost16exception_detail10clone_implINS0_14bad_exception_EED1Ev
	.weak_definition __ZThn24_N5boost16exception_detail10clone_implINS0_14bad_exception_EED1Ev
	.private_extern __ZThn24_N5boost16exception_detail10clone_implINS0_14bad_exception_EED1Ev
__ZThn24_N5boost16exception_detail10clone_implINS0_14bad_exception_EED1Ev:
LFB14270:
	addi r3,r3,-24
	b L__ZN5boost16exception_detail10clone_implINS0_14bad_exception_EED1Ev$stub
LFE14270:
	.align 2
	.p2align 4,,15
	.globl __ZThn20_N5boost16exception_detail10clone_implINS0_14bad_exception_EED1Ev
	.weak_definition __ZThn20_N5boost16exception_detail10clone_implINS0_14bad_exception_EED1Ev
	.private_extern __ZThn20_N5boost16exception_detail10clone_implINS0_14bad_exception_EED1Ev
__ZThn20_N5boost16exception_detail10clone_implINS0_14bad_exception_EED1Ev:
LFB14271:
	addi r3,r3,-20
	b L__ZN5boost16exception_detail10clone_implINS0_14bad_exception_EED1Ev$stub
LFE14271:
	.align 2
	.p2align 4,,15
	.globl __ZN5boost16exception_detail10clone_implINS0_14bad_exception_EED1Ev
	.weak_definition __ZN5boost16exception_detail10clone_implINS0_14bad_exception_EED1Ev
	.private_extern __ZN5boost16exception_detail10clone_implINS0_14bad_exception_EED1Ev
__ZN5boost16exception_detail10clone_implINS0_14bad_exception_EED1Ev:
LFB9823:
	mflr r0
LCFI282:
	bcl 20,31,"L00000000049$pb"
"L00000000049$pb":
	stmw r30,-8(r1)
LCFI283:
	mflr r31
	stw r0,8(r1)
LCFI284:
	stwu r1,-80(r1)
LCFI285:
	mr r30,r3
	addis r9,r31,ha16(__ZTVN5boost16exception_detail10clone_baseE-"L00000000049$pb")
	addis r2,r31,ha16(__ZTVN5boost16exception_detail14bad_exception_E-"L00000000049$pb")
	la r9,lo16(__ZTVN5boost16exception_detail10clone_baseE-"L00000000049$pb")(r9)
	la r2,lo16(__ZTVN5boost16exception_detail14bad_exception_E-"L00000000049$pb")(r2)
	addi r9,r9,8
	addi r0,r2,24
	addi r2,r2,8
	stw r9,24(r3)
	stw r2,0(r3)
	stw r0,20(r3)
	addi r3,r3,20
	bl L__ZNSt13bad_exceptionD2Ev$stub
	lwz r3,4(r30)
	addis r2,r31,ha16(L__ZTVN5boost9exceptionE$non_lazy_ptr-"L00000000049$pb")
	lwz r2,lo16(L__ZTVN5boost9exceptionE$non_lazy_ptr-"L00000000049$pb")(r2)
	cmpwi cr7,r3,0
	addi r2,r2,8
	stw r2,0(r30)
	beq cr7,L1116
	lwz r2,0(r3)
	lwz r0,16(r2)
	mtctr r0
	mr r12,r0
LEHB24:
	bctrl
LEHE24:
	cmpwi cr7,r3,0
	beq cr7,L1116
	li r0,0
	stw r0,4(r30)
	b L1116
L1118:
	cmpwi cr7,r4,-1
	beq cr7,L1115
LEHB25:
	bl L__Unwind_Resume$stub
L1115:
	bl L___cxa_call_unexpected$stub
LEHE25:
	.p2align 4,,15
L1116:
	addi r1,r1,80
	lwz r0,8(r1)
	lmw r30,-8(r1)
	mtlr r0
	blr
LFE9823:
	.section __DATA,__gcc_except_tab
GCC_except_table10:
	.align 2
LLSDA9823:
	.byte	0xff
	.byte	0x0
	.byte	0x21
	.byte	0x3
	.byte	0x1a
	.set L$set$58,LEHB24-LFB9823
	.long L$set$58
	.set L$set$59,LEHE24-LEHB24
	.long L$set$59
	.set L$set$60,L1118-LFB9823
	.long L$set$60
	.byte	0x1
	.set L$set$61,LEHB25-LFB9823
	.long L$set$61
	.set L$set$62,LEHE25-LEHB25
	.long L$set$62
	.long	0x0
	.byte	0x0
	.byte	0x7f
	.byte	0x0
	.align 2
	.byte	0x0
	.section __TEXT,__textcoal_nt,coalesced,pure_instructions
	.align 2
	.p2align 4,,15
	.globl __ZThn8_N5boost16exception_detail19error_info_injectorINS_10lock_errorEED0Ev
	.weak_definition __ZThn8_N5boost16exception_detail19error_info_injectorINS_10lock_errorEED0Ev
	.private_extern __ZThn8_N5boost16exception_detail19error_info_injectorINS_10lock_errorEED0Ev
__ZThn8_N5boost16exception_detail19error_info_injectorINS_10lock_errorEED0Ev:
LFB14272:
	addi r3,r3,-8
	b L__ZN5boost16exception_detail19error_info_injectorINS_10lock_errorEED0Ev$stub
LFE14272:
	.align 2
	.p2align 4,,15
	.globl __ZN5boost16exception_detail19error_info_injectorINS_10lock_errorEED0Ev
	.weak_definition __ZN5boost16exception_detail19error_info_injectorINS_10lock_errorEED0Ev
	.private_extern __ZN5boost16exception_detail19error_info_injectorINS_10lock_errorEED0Ev
__ZN5boost16exception_detail19error_info_injectorINS_10lock_errorEED0Ev:
LFB9635:
	mflr r0
LCFI286:
	bcl 20,31,"L00000000050$pb"
"L00000000050$pb":
	stmw r29,-12(r1)
LCFI287:
	mflr r31
	stw r0,8(r1)
LCFI288:
	stwu r1,-80(r1)
LCFI289:
	addi r29,r3,8
	addis r9,r31,ha16(__ZTVN5boost16exception_detail19error_info_injectorINS_10lock_errorEEE-"L00000000050$pb")
	addis r2,r31,ha16(L__ZTVN5boost9exceptionE$non_lazy_ptr-"L00000000050$pb")
	mr r30,r3
	la r9,lo16(__ZTVN5boost16exception_detail19error_info_injectorINS_10lock_errorEEE-"L00000000050$pb")(r9)
	lwz r2,lo16(L__ZTVN5boost9exceptionE$non_lazy_ptr-"L00000000050$pb")(r2)
	addi r0,r9,8
	addi r9,r9,28
	stw r0,0(r3)
	stw r9,8(r3)
	addi r2,r2,8
	stw r2,8(r3)
	lwz r3,4(r29)
	cmpwi cr7,r3,0
	beq cr7,L1120
	lwz r2,0(r3)
	lwz r0,16(r2)
	mtctr r0
	mr r12,r0
LEHB26:
	bctrl
LEHE26:
	cmpwi cr7,r3,0
	beq cr7,L1120
	li r0,0
	stw r0,4(r29)
	.p2align 4,,15
L1120:
	addis r2,r31,ha16(__ZTVN5boost16thread_exceptionE-"L00000000050$pb")
	mr r3,r30
	la r2,lo16(__ZTVN5boost16thread_exceptionE-"L00000000050$pb")(r2)
	addi r2,r2,8
	stw r2,0(r30)
	bl L__ZNSt9exceptionD2Ev$stub
	addi r1,r1,80
	mr r3,r30
	lwz r0,8(r1)
	lmw r29,-12(r1)
	mtlr r0
	b L__ZdlPv$stub
L1127:
	cmpwi cr7,r4,-1
	beq cr7,L1124
LEHB27:
	bl L__Unwind_Resume$stub
L1124:
	bl L___cxa_call_unexpected$stub
LEHE27:
LFE9635:
	.section __DATA,__gcc_except_tab
GCC_except_table11:
	.align 2
LLSDA9635:
	.byte	0xff
	.byte	0x0
	.byte	0x21
	.byte	0x3
	.byte	0x1a
	.set L$set$63,LEHB26-LFB9635
	.long L$set$63
	.set L$set$64,LEHE26-LEHB26
	.long L$set$64
	.set L$set$65,L1127-LFB9635
	.long L$set$65
	.byte	0x1
	.set L$set$66,LEHB27-LFB9635
	.long L$set$66
	.set L$set$67,LEHE27-LEHB27
	.long L$set$67
	.long	0x0
	.byte	0x0
	.byte	0x7f
	.byte	0x0
	.align 2
	.byte	0x0
	.section __TEXT,__textcoal_nt,coalesced,pure_instructions
	.align 2
	.p2align 4,,15
	.globl __ZThn28_N5boost16exception_detail10clone_implINS0_19error_info_injectorINS_21thread_resource_errorEEEED1Ev
	.weak_definition __ZThn28_N5boost16exception_detail10clone_implINS0_19error_info_injectorINS_21thread_resource_errorEEEED1Ev
	.private_extern __ZThn28_N5boost16exception_detail10clone_implINS0_19error_info_injectorINS_21thread_resource_errorEEEED1Ev
__ZThn28_N5boost16exception_detail10clone_implINS0_19error_info_injectorINS_21thread_resource_errorEEEED1Ev:
LFB14273:
	addi r3,r3,-28
	b L__ZN5boost16exception_detail10clone_implINS0_19error_info_injectorINS_21thread_resource_errorEEEED1Ev$stub
LFE14273:
	.align 2
	.p2align 4,,15
	.globl __ZThn8_N5boost16exception_detail10clone_implINS0_19error_info_injectorINS_21thread_resource_errorEEEED1Ev
	.weak_definition __ZThn8_N5boost16exception_detail10clone_implINS0_19error_info_injectorINS_21thread_resource_errorEEEED1Ev
	.private_extern __ZThn8_N5boost16exception_detail10clone_implINS0_19error_info_injectorINS_21thread_resource_errorEEEED1Ev
__ZThn8_N5boost16exception_detail10clone_implINS0_19error_info_injectorINS_21thread_resource_errorEEEED1Ev:
LFB14274:
	addi r3,r3,-8
	b L__ZN5boost16exception_detail10clone_implINS0_19error_info_injectorINS_21thread_resource_errorEEEED1Ev$stub
LFE14274:
	.align 2
	.p2align 4,,15
	.globl __ZN5boost16exception_detail10clone_implINS0_19error_info_injectorINS_21thread_resource_errorEEEED1Ev
	.weak_definition __ZN5boost16exception_detail10clone_implINS0_19error_info_injectorINS_21thread_resource_errorEEEED1Ev
	.private_extern __ZN5boost16exception_detail10clone_implINS0_19error_info_injectorINS_21thread_resource_errorEEEED1Ev
__ZN5boost16exception_detail10clone_implINS0_19error_info_injectorINS_21thread_resource_errorEEEED1Ev:
LFB9629:
	mflr r0
LCFI290:
	bcl 20,31,"L00000000051$pb"
"L00000000051$pb":
	stmw r29,-12(r1)
LCFI291:
	mflr r31
	stw r0,8(r1)
LCFI292:
	stwu r1,-80(r1)
LCFI293:
	addi r29,r3,8
	addis r2,r31,ha16(__ZTVN5boost16exception_detail10clone_baseE-"L00000000051$pb")
	addis r9,r31,ha16(__ZTVN5boost16exception_detail19error_info_injectorINS_21thread_resource_errorEEE-"L00000000051$pb")
	mr r30,r3
	la r2,lo16(__ZTVN5boost16exception_detail10clone_baseE-"L00000000051$pb")(r2)
	la r9,lo16(__ZTVN5boost16exception_detail19error_info_injectorINS_21thread_resource_errorEEE-"L00000000051$pb")(r9)
	addi r2,r2,8
	addi r0,r9,8
	addi r9,r9,28
	stw r2,28(r3)
	addis r2,r31,ha16(L__ZTVN5boost9exceptionE$non_lazy_ptr-"L00000000051$pb")
	stw r0,0(r3)
	stw r9,8(r3)
	lwz r2,lo16(L__ZTVN5boost9exceptionE$non_lazy_ptr-"L00000000051$pb")(r2)
	addi r2,r2,8
	stw r2,8(r3)
	lwz r3,4(r29)
	cmpwi cr7,r3,0
	beq cr7,L1130
	lwz r2,0(r3)
	lwz r0,16(r2)
	mtctr r0
	mr r12,r0
LEHB28:
	bctrl
LEHE28:
	cmpwi cr7,r3,0
	beq cr7,L1130
	li r0,0
	stw r0,4(r29)
	.p2align 4,,15
L1130:
	addis r2,r31,ha16(__ZTVN5boost16thread_exceptionE-"L00000000051$pb")
	addi r1,r1,80
	mr r3,r30
	la r2,lo16(__ZTVN5boost16thread_exceptionE-"L00000000051$pb")(r2)
	addi r2,r2,8
	stw r2,0(r30)
	lwz r0,8(r1)
	lmw r29,-12(r1)
	mtlr r0
	b L__ZNSt9exceptionD2Ev$stub
L1137:
	cmpwi cr7,r4,-1
	beq cr7,L1133
LEHB29:
	bl L__Unwind_Resume$stub
L1133:
	bl L___cxa_call_unexpected$stub
LEHE29:
LFE9629:
	.section __DATA,__gcc_except_tab
GCC_except_table12:
	.align 2
LLSDA9629:
	.byte	0xff
	.byte	0x0
	.byte	0x21
	.byte	0x3
	.byte	0x1a
	.set L$set$68,LEHB28-LFB9629
	.long L$set$68
	.set L$set$69,LEHE28-LEHB28
	.long L$set$69
	.set L$set$70,L1137-LFB9629
	.long L$set$70
	.byte	0x1
	.set L$set$71,LEHB29-LFB9629
	.long L$set$71
	.set L$set$72,LEHE29-LEHB29
	.long L$set$72
	.long	0x0
	.byte	0x0
	.byte	0x7f
	.byte	0x0
	.align 2
	.byte	0x0
	.section __TEXT,__textcoal_nt,coalesced,pure_instructions
	.align 2
	.p2align 4,,15
	.globl __ZThn20_N5boost16exception_detail14bad_exception_D0Ev
	.weak_definition __ZThn20_N5boost16exception_detail14bad_exception_D0Ev
	.private_extern __ZThn20_N5boost16exception_detail14bad_exception_D0Ev
__ZThn20_N5boost16exception_detail14bad_exception_D0Ev:
LFB14275:
	addi r3,r3,-20
	b L__ZN5boost16exception_detail14bad_exception_D0Ev$stub
LFE14275:
	.align 2
	.p2align 4,,15
	.globl __ZN5boost16exception_detail14bad_exception_D0Ev
	.weak_definition __ZN5boost16exception_detail14bad_exception_D0Ev
	.private_extern __ZN5boost16exception_detail14bad_exception_D0Ev
__ZN5boost16exception_detail14bad_exception_D0Ev:
LFB7220:
	mflr r0
LCFI294:
	bcl 20,31,"L00000000052$pb"
"L00000000052$pb":
	stmw r30,-8(r1)
LCFI295:
	mflr r31
	stw r0,8(r1)
LCFI296:
	stwu r1,-80(r1)
LCFI297:
	mr r30,r3
	addis r2,r31,ha16(__ZTVN5boost16exception_detail14bad_exception_E-"L00000000052$pb")
	addi r3,r3,20
	la r2,lo16(__ZTVN5boost16exception_detail14bad_exception_E-"L00000000052$pb")(r2)
	addi r0,r2,24
	addi r2,r2,8
	stw r0,20(r30)
	stw r2,0(r30)
	bl L__ZNSt13bad_exceptionD2Ev$stub
	lwz r3,4(r30)
	addis r2,r31,ha16(L__ZTVN5boost9exceptionE$non_lazy_ptr-"L00000000052$pb")
	lwz r2,lo16(L__ZTVN5boost9exceptionE$non_lazy_ptr-"L00000000052$pb")(r2)
	cmpwi cr7,r3,0
	addi r2,r2,8
	stw r2,0(r30)
	beq cr7,L1139
	lwz r2,0(r3)
	lwz r0,16(r2)
	mtctr r0
	mr r12,r0
LEHB30:
	bctrl
LEHE30:
	cmpwi cr7,r3,0
	beq cr7,L1139
	li r0,0
	stw r0,4(r30)
	b L1139
L1145:
	cmpwi cr7,r4,-1
	beq cr7,L1142
LEHB31:
	bl L__Unwind_Resume$stub
L1142:
	bl L___cxa_call_unexpected$stub
LEHE31:
	.p2align 4,,15
L1139:
	addi r1,r1,80
	mr r3,r30
	lwz r0,8(r1)
	lmw r30,-8(r1)
	mtlr r0
	b L__ZdlPv$stub
LFE7220:
	.section __DATA,__gcc_except_tab
GCC_except_table13:
	.align 2
LLSDA7220:
	.byte	0xff
	.byte	0x0
	.byte	0x21
	.byte	0x3
	.byte	0x1a
	.set L$set$73,LEHB30-LFB7220
	.long L$set$73
	.set L$set$74,LEHE30-LEHB30
	.long L$set$74
	.set L$set$75,L1145-LFB7220
	.long L$set$75
	.byte	0x1
	.set L$set$76,LEHB31-LFB7220
	.long L$set$76
	.set L$set$77,LEHE31-LEHB31
	.long L$set$77
	.long	0x0
	.byte	0x0
	.byte	0x7f
	.byte	0x0
	.align 2
	.byte	0x0
	.section __TEXT,__textcoal_nt,coalesced,pure_instructions
	.align 2
	.p2align 4,,15
	.globl __ZThn8_N5boost16exception_detail19error_info_injectorINS_21thread_resource_errorEED0Ev
	.weak_definition __ZThn8_N5boost16exception_detail19error_info_injectorINS_21thread_resource_errorEED0Ev
	.private_extern __ZThn8_N5boost16exception_detail19error_info_injectorINS_21thread_resource_errorEED0Ev
__ZThn8_N5boost16exception_detail19error_info_injectorINS_21thread_resource_errorEED0Ev:
LFB14276:
	addi r3,r3,-8
	b L__ZN5boost16exception_detail19error_info_injectorINS_21thread_resource_errorEED0Ev$stub
LFE14276:
	.align 2
	.p2align 4,,15
	.globl __ZN5boost16exception_detail19error_info_injectorINS_21thread_resource_errorEED0Ev
	.weak_definition __ZN5boost16exception_detail19error_info_injectorINS_21thread_resource_errorEED0Ev
	.private_extern __ZN5boost16exception_detail19error_info_injectorINS_21thread_resource_errorEED0Ev
__ZN5boost16exception_detail19error_info_injectorINS_21thread_resource_errorEED0Ev:
LFB9625:
	mflr r0
LCFI298:
	bcl 20,31,"L00000000053$pb"
"L00000000053$pb":
	stmw r29,-12(r1)
LCFI299:
	mflr r31
	stw r0,8(r1)
LCFI300:
	stwu r1,-80(r1)
LCFI301:
	addi r29,r3,8
	addis r9,r31,ha16(__ZTVN5boost16exception_detail19error_info_injectorINS_21thread_resource_errorEEE-"L00000000053$pb")
	addis r2,r31,ha16(L__ZTVN5boost9exceptionE$non_lazy_ptr-"L00000000053$pb")
	mr r30,r3
	la r9,lo16(__ZTVN5boost16exception_detail19error_info_injectorINS_21thread_resource_errorEEE-"L00000000053$pb")(r9)
	lwz r2,lo16(L__ZTVN5boost9exceptionE$non_lazy_ptr-"L00000000053$pb")(r2)
	addi r0,r9,8
	addi r9,r9,28
	stw r0,0(r3)
	stw r9,8(r3)
	addi r2,r2,8
	stw r2,8(r3)
	lwz r3,4(r29)
	cmpwi cr7,r3,0
	beq cr7,L1147
	lwz r2,0(r3)
	lwz r0,16(r2)
	mtctr r0
	mr r12,r0
LEHB32:
	bctrl
LEHE32:
	cmpwi cr7,r3,0
	beq cr7,L1147
	li r0,0
	stw r0,4(r29)
	.p2align 4,,15
L1147:
	addis r2,r31,ha16(__ZTVN5boost16thread_exceptionE-"L00000000053$pb")
	mr r3,r30
	la r2,lo16(__ZTVN5boost16thread_exceptionE-"L00000000053$pb")(r2)
	addi r2,r2,8
	stw r2,0(r30)
	bl L__ZNSt9exceptionD2Ev$stub
	addi r1,r1,80
	mr r3,r30
	lwz r0,8(r1)
	lmw r29,-12(r1)
	mtlr r0
	b L__ZdlPv$stub
L1154:
	cmpwi cr7,r4,-1
	beq cr7,L1151
LEHB33:
	bl L__Unwind_Resume$stub
L1151:
	bl L___cxa_call_unexpected$stub
LEHE33:
LFE9625:
	.section __DATA,__gcc_except_tab
GCC_except_table14:
	.align 2
LLSDA9625:
	.byte	0xff
	.byte	0x0
	.byte	0x21
	.byte	0x3
	.byte	0x1a
	.set L$set$78,LEHB32-LFB9625
	.long L$set$78
	.set L$set$79,LEHE32-LEHB32
	.long L$set$79
	.set L$set$80,L1154-LFB9625
	.long L$set$80
	.byte	0x1
	.set L$set$81,LEHB33-LFB9625
	.long L$set$81
	.set L$set$82,LEHE33-LEHB33
	.long L$set$82
	.long	0x0
	.byte	0x0
	.byte	0x7f
	.byte	0x0
	.align 2
	.byte	0x0
	.section __TEXT,__textcoal_nt,coalesced,pure_instructions
	.align 2
	.p2align 4,,15
	.globl __ZThn20_N5boost16exception_detail10bad_alloc_D0Ev
	.weak_definition __ZThn20_N5boost16exception_detail10bad_alloc_D0Ev
	.private_extern __ZThn20_N5boost16exception_detail10bad_alloc_D0Ev
__ZThn20_N5boost16exception_detail10bad_alloc_D0Ev:
LFB14277:
	addi r3,r3,-20
	b L__ZN5boost16exception_detail10bad_alloc_D0Ev$stub
LFE14277:
	.align 2
	.p2align 4,,15
	.globl __ZN5boost16exception_detail10bad_alloc_D0Ev
	.weak_definition __ZN5boost16exception_detail10bad_alloc_D0Ev
	.private_extern __ZN5boost16exception_detail10bad_alloc_D0Ev
__ZN5boost16exception_detail10bad_alloc_D0Ev:
LFB7216:
	mflr r0
LCFI302:
	bcl 20,31,"L00000000054$pb"
"L00000000054$pb":
	stmw r30,-8(r1)
LCFI303:
	mflr r31
	stw r0,8(r1)
LCFI304:
	stwu r1,-80(r1)
LCFI305:
	mr r30,r3
	addis r2,r31,ha16(__ZTVN5boost16exception_detail10bad_alloc_E-"L00000000054$pb")
	addi r3,r3,20
	la r2,lo16(__ZTVN5boost16exception_detail10bad_alloc_E-"L00000000054$pb")(r2)
	addi r0,r2,24
	addi r2,r2,8
	stw r0,20(r30)
	stw r2,0(r30)
	bl L__ZNSt9bad_allocD2Ev$stub
	lwz r3,4(r30)
	addis r2,r31,ha16(L__ZTVN5boost9exceptionE$non_lazy_ptr-"L00000000054$pb")
	lwz r2,lo16(L__ZTVN5boost9exceptionE$non_lazy_ptr-"L00000000054$pb")(r2)
	cmpwi cr7,r3,0
	addi r2,r2,8
	stw r2,0(r30)
	beq cr7,L1156
	lwz r2,0(r3)
	lwz r0,16(r2)
	mtctr r0
	mr r12,r0
LEHB34:
	bctrl
LEHE34:
	cmpwi cr7,r3,0
	beq cr7,L1156
	li r0,0
	stw r0,4(r30)
	b L1156
L1162:
	cmpwi cr7,r4,-1
	beq cr7,L1159
LEHB35:
	bl L__Unwind_Resume$stub
L1159:
	bl L___cxa_call_unexpected$stub
LEHE35:
	.p2align 4,,15
L1156:
	addi r1,r1,80
	mr r3,r30
	lwz r0,8(r1)
	lmw r30,-8(r1)
	mtlr r0
	b L__ZdlPv$stub
LFE7216:
	.section __DATA,__gcc_except_tab
GCC_except_table15:
	.align 2
LLSDA7216:
	.byte	0xff
	.byte	0x0
	.byte	0x21
	.byte	0x3
	.byte	0x1a
	.set L$set$83,LEHB34-LFB7216
	.long L$set$83
	.set L$set$84,LEHE34-LEHB34
	.long L$set$84
	.set L$set$85,L1162-LFB7216
	.long L$set$85
	.byte	0x1
	.set L$set$86,LEHB35-LFB7216
	.long L$set$86
	.set L$set$87,LEHE35-LEHB35
	.long L$set$87
	.long	0x0
	.byte	0x0
	.byte	0x7f
	.byte	0x0
	.align 2
	.byte	0x0
	.section __TEXT,__textcoal_nt,coalesced,pure_instructions
	.align 2
	.p2align 4,,15
	.globl __ZThn28_N5boost16exception_detail10clone_implINS0_19error_info_injectorINS_10lock_errorEEEED1Ev
	.weak_definition __ZThn28_N5boost16exception_detail10clone_implINS0_19error_info_injectorINS_10lock_errorEEEED1Ev
	.private_extern __ZThn28_N5boost16exception_detail10clone_implINS0_19error_info_injectorINS_10lock_errorEEEED1Ev
__ZThn28_N5boost16exception_detail10clone_implINS0_19error_info_injectorINS_10lock_errorEEEED1Ev:
LFB14278:
	addi r3,r3,-28
	b L__ZN5boost16exception_detail10clone_implINS0_19error_info_injectorINS_10lock_errorEEEED1Ev$stub
LFE14278:
	.align 2
	.p2align 4,,15
	.globl __ZThn8_N5boost16exception_detail10clone_implINS0_19error_info_injectorINS_10lock_errorEEEED1Ev
	.weak_definition __ZThn8_N5boost16exception_detail10clone_implINS0_19error_info_injectorINS_10lock_errorEEEED1Ev
	.private_extern __ZThn8_N5boost16exception_detail10clone_implINS0_19error_info_injectorINS_10lock_errorEEEED1Ev
__ZThn8_N5boost16exception_detail10clone_implINS0_19error_info_injectorINS_10lock_errorEEEED1Ev:
LFB14279:
	addi r3,r3,-8
	b L__ZN5boost16exception_detail10clone_implINS0_19error_info_injectorINS_10lock_errorEEEED1Ev$stub
LFE14279:
	.align 2
	.p2align 4,,15
	.globl __ZN5boost16exception_detail10clone_implINS0_19error_info_injectorINS_10lock_errorEEEED1Ev
	.weak_definition __ZN5boost16exception_detail10clone_implINS0_19error_info_injectorINS_10lock_errorEEEED1Ev
	.private_extern __ZN5boost16exception_detail10clone_implINS0_19error_info_injectorINS_10lock_errorEEEED1Ev
__ZN5boost16exception_detail10clone_implINS0_19error_info_injectorINS_10lock_errorEEEED1Ev:
LFB9639:
	mflr r0
LCFI306:
	bcl 20,31,"L00000000055$pb"
"L00000000055$pb":
	stmw r29,-12(r1)
LCFI307:
	mflr r31
	stw r0,8(r1)
LCFI308:
	stwu r1,-80(r1)
LCFI309:
	addi r29,r3,8
	addis r2,r31,ha16(__ZTVN5boost16exception_detail10clone_baseE-"L00000000055$pb")
	addis r9,r31,ha16(__ZTVN5boost16exception_detail19error_info_injectorINS_10lock_errorEEE-"L00000000055$pb")
	mr r30,r3
	la r2,lo16(__ZTVN5boost16exception_detail10clone_baseE-"L00000000055$pb")(r2)
	la r9,lo16(__ZTVN5boost16exception_detail19error_info_injectorINS_10lock_errorEEE-"L00000000055$pb")(r9)
	addi r2,r2,8
	addi r0,r9,8
	addi r9,r9,28
	stw r2,28(r3)
	addis r2,r31,ha16(L__ZTVN5boost9exceptionE$non_lazy_ptr-"L00000000055$pb")
	stw r0,0(r3)
	stw r9,8(r3)
	lwz r2,lo16(L__ZTVN5boost9exceptionE$non_lazy_ptr-"L00000000055$pb")(r2)
	addi r2,r2,8
	stw r2,8(r3)
	lwz r3,4(r29)
	cmpwi cr7,r3,0
	beq cr7,L1165
	lwz r2,0(r3)
	lwz r0,16(r2)
	mtctr r0
	mr r12,r0
LEHB36:
	bctrl
LEHE36:
	cmpwi cr7,r3,0
	beq cr7,L1165
	li r0,0
	stw r0,4(r29)
	.p2align 4,,15
L1165:
	addis r2,r31,ha16(__ZTVN5boost16thread_exceptionE-"L00000000055$pb")
	addi r1,r1,80
	mr r3,r30
	la r2,lo16(__ZTVN5boost16thread_exceptionE-"L00000000055$pb")(r2)
	addi r2,r2,8
	stw r2,0(r30)
	lwz r0,8(r1)
	lmw r29,-12(r1)
	mtlr r0
	b L__ZNSt9exceptionD2Ev$stub
L1172:
	cmpwi cr7,r4,-1
	beq cr7,L1168
LEHB37:
	bl L__Unwind_Resume$stub
L1168:
	bl L___cxa_call_unexpected$stub
LEHE37:
LFE9639:
	.section __DATA,__gcc_except_tab
GCC_except_table16:
	.align 2
LLSDA9639:
	.byte	0xff
	.byte	0x0
	.byte	0x21
	.byte	0x3
	.byte	0x1a
	.set L$set$88,LEHB36-LFB9639
	.long L$set$88
	.set L$set$89,LEHE36-LEHB36
	.long L$set$89
	.set L$set$90,L1172-LFB9639
	.long L$set$90
	.byte	0x1
	.set L$set$91,LEHB37-LFB9639
	.long L$set$91
	.set L$set$92,LEHE37-LEHB37
	.long L$set$92
	.long	0x0
	.byte	0x0
	.byte	0x7f
	.byte	0x0
	.align 2
	.byte	0x0
	.section __TEXT,__textcoal_nt,coalesced,pure_instructions
	.align 2
	.p2align 4,,15
	.globl __ZThn8_N5boost16exception_detail19error_info_injectorINS_10lock_errorEED1Ev
	.weak_definition __ZThn8_N5boost16exception_detail19error_info_injectorINS_10lock_errorEED1Ev
	.private_extern __ZThn8_N5boost16exception_detail19error_info_injectorINS_10lock_errorEED1Ev
__ZThn8_N5boost16exception_detail19error_info_injectorINS_10lock_errorEED1Ev:
LFB14280:
	addi r3,r3,-8
	b L__ZN5boost16exception_detail19error_info_injectorINS_10lock_errorEED1Ev$stub
LFE14280:
	.align 2
	.p2align 4,,15
	.globl __ZN5boost16exception_detail19error_info_injectorINS_10lock_errorEED1Ev
	.weak_definition __ZN5boost16exception_detail19error_info_injectorINS_10lock_errorEED1Ev
	.private_extern __ZN5boost16exception_detail19error_info_injectorINS_10lock_errorEED1Ev
__ZN5boost16exception_detail19error_info_injectorINS_10lock_errorEED1Ev:
LFB9634:
	mflr r0
LCFI310:
	bcl 20,31,"L00000000056$pb"
"L00000000056$pb":
	stmw r29,-12(r1)
LCFI311:
	mflr r31
	stw r0,8(r1)
LCFI312:
	stwu r1,-80(r1)
LCFI313:
	addi r29,r3,8
	addis r9,r31,ha16(__ZTVN5boost16exception_detail19error_info_injectorINS_10lock_errorEEE-"L00000000056$pb")
	addis r2,r31,ha16(L__ZTVN5boost9exceptionE$non_lazy_ptr-"L00000000056$pb")
	mr r30,r3
	la r9,lo16(__ZTVN5boost16exception_detail19error_info_injectorINS_10lock_errorEEE-"L00000000056$pb")(r9)
	lwz r2,lo16(L__ZTVN5boost9exceptionE$non_lazy_ptr-"L00000000056$pb")(r2)
	addi r0,r9,8
	addi r9,r9,28
	stw r0,0(r3)
	stw r9,8(r3)
	addi r2,r2,8
	stw r2,8(r3)
	lwz r3,4(r29)
	cmpwi cr7,r3,0
	beq cr7,L1174
	lwz r2,0(r3)
	lwz r0,16(r2)
	mtctr r0
	mr r12,r0
LEHB38:
	bctrl
LEHE38:
	cmpwi cr7,r3,0
	beq cr7,L1174
	li r0,0
	stw r0,4(r29)
	.p2align 4,,15
L1174:
	addis r2,r31,ha16(__ZTVN5boost16thread_exceptionE-"L00000000056$pb")
	addi r1,r1,80
	mr r3,r30
	la r2,lo16(__ZTVN5boost16thread_exceptionE-"L00000000056$pb")(r2)
	addi r2,r2,8
	stw r2,0(r30)
	lwz r0,8(r1)
	lmw r29,-12(r1)
	mtlr r0
	b L__ZNSt9exceptionD2Ev$stub
L1181:
	cmpwi cr7,r4,-1
	beq cr7,L1177
LEHB39:
	bl L__Unwind_Resume$stub
L1177:
	bl L___cxa_call_unexpected$stub
LEHE39:
LFE9634:
	.section __DATA,__gcc_except_tab
GCC_except_table17:
	.align 2
LLSDA9634:
	.byte	0xff
	.byte	0x0
	.byte	0x21
	.byte	0x3
	.byte	0x1a
	.set L$set$93,LEHB38-LFB9634
	.long L$set$93
	.set L$set$94,LEHE38-LEHB38
	.long L$set$94
	.set L$set$95,L1181-LFB9634
	.long L$set$95
	.byte	0x1
	.set L$set$96,LEHB39-LFB9634
	.long L$set$96
	.set L$set$97,LEHE39-LEHB39
	.long L$set$97
	.long	0x0
	.byte	0x0
	.byte	0x7f
	.byte	0x0
	.align 2
	.byte	0x0
	.section __TEXT,__textcoal_nt,coalesced,pure_instructions
	.align 2
	.p2align 4,,15
	.globl __ZThn28_N5boost16exception_detail10clone_implINS0_19error_info_injectorINS_21thread_resource_errorEEEED0Ev
	.weak_definition __ZThn28_N5boost16exception_detail10clone_implINS0_19error_info_injectorINS_21thread_resource_errorEEEED0Ev
	.private_extern __ZThn28_N5boost16exception_detail10clone_implINS0_19error_info_injectorINS_21thread_resource_errorEEEED0Ev
__ZThn28_N5boost16exception_detail10clone_implINS0_19error_info_injectorINS_21thread_resource_errorEEEED0Ev:
LFB14281:
	addi r3,r3,-28
	b L__ZN5boost16exception_detail10clone_implINS0_19error_info_injectorINS_21thread_resource_errorEEEED0Ev$stub
LFE14281:
	.align 2
	.p2align 4,,15
	.globl __ZThn8_N5boost16exception_detail10clone_implINS0_19error_info_injectorINS_21thread_resource_errorEEEED0Ev
	.weak_definition __ZThn8_N5boost16exception_detail10clone_implINS0_19error_info_injectorINS_21thread_resource_errorEEEED0Ev
	.private_extern __ZThn8_N5boost16exception_detail10clone_implINS0_19error_info_injectorINS_21thread_resource_errorEEEED0Ev
__ZThn8_N5boost16exception_detail10clone_implINS0_19error_info_injectorINS_21thread_resource_errorEEEED0Ev:
LFB14282:
	addi r3,r3,-8
	b L__ZN5boost16exception_detail10clone_implINS0_19error_info_injectorINS_21thread_resource_errorEEEED0Ev$stub
LFE14282:
	.align 2
	.p2align 4,,15
	.globl __ZN5boost16exception_detail10clone_implINS0_19error_info_injectorINS_21thread_resource_errorEEEED0Ev
	.weak_definition __ZN5boost16exception_detail10clone_implINS0_19error_info_injectorINS_21thread_resource_errorEEEED0Ev
	.private_extern __ZN5boost16exception_detail10clone_implINS0_19error_info_injectorINS_21thread_resource_errorEEEED0Ev
__ZN5boost16exception_detail10clone_implINS0_19error_info_injectorINS_21thread_resource_errorEEEED0Ev:
LFB9630:
	mflr r0
LCFI314:
	bcl 20,31,"L00000000057$pb"
"L00000000057$pb":
	stmw r29,-12(r1)
LCFI315:
	mflr r31
	stw r0,8(r1)
LCFI316:
	stwu r1,-80(r1)
LCFI317:
	addi r29,r3,8
	addis r2,r31,ha16(__ZTVN5boost16exception_detail10clone_baseE-"L00000000057$pb")
	addis r9,r31,ha16(__ZTVN5boost16exception_detail19error_info_injectorINS_21thread_resource_errorEEE-"L00000000057$pb")
	mr r30,r3
	la r2,lo16(__ZTVN5boost16exception_detail10clone_baseE-"L00000000057$pb")(r2)
	la r9,lo16(__ZTVN5boost16exception_detail19error_info_injectorINS_21thread_resource_errorEEE-"L00000000057$pb")(r9)
	addi r2,r2,8
	addi r0,r9,8
	addi r9,r9,28
	stw r2,28(r3)
	addis r2,r31,ha16(L__ZTVN5boost9exceptionE$non_lazy_ptr-"L00000000057$pb")
	stw r0,0(r3)
	stw r9,8(r3)
	lwz r2,lo16(L__ZTVN5boost9exceptionE$non_lazy_ptr-"L00000000057$pb")(r2)
	addi r2,r2,8
	stw r2,8(r3)
	lwz r3,4(r29)
	cmpwi cr7,r3,0
	beq cr7,L1184
	lwz r2,0(r3)
	lwz r0,16(r2)
	mtctr r0
	mr r12,r0
LEHB40:
	bctrl
LEHE40:
	cmpwi cr7,r3,0
	beq cr7,L1184
	li r0,0
	stw r0,4(r29)
	.p2align 4,,15
L1184:
	addis r2,r31,ha16(__ZTVN5boost16thread_exceptionE-"L00000000057$pb")
	mr r3,r30
	la r2,lo16(__ZTVN5boost16thread_exceptionE-"L00000000057$pb")(r2)
	addi r2,r2,8
	stw r2,0(r30)
	bl L__ZNSt9exceptionD2Ev$stub
	addi r1,r1,80
	mr r3,r30
	lwz r0,8(r1)
	lmw r29,-12(r1)
	mtlr r0
	b L__ZdlPv$stub
L1191:
	cmpwi cr7,r4,-1
	beq cr7,L1188
LEHB41:
	bl L__Unwind_Resume$stub
L1188:
	bl L___cxa_call_unexpected$stub
LEHE41:
LFE9630:
	.section __DATA,__gcc_except_tab
GCC_except_table18:
	.align 2
LLSDA9630:
	.byte	0xff
	.byte	0x0
	.byte	0x21
	.byte	0x3
	.byte	0x1a
	.set L$set$98,LEHB40-LFB9630
	.long L$set$98
	.set L$set$99,LEHE40-LEHB40
	.long L$set$99
	.set L$set$100,L1191-LFB9630
	.long L$set$100
	.byte	0x1
	.set L$set$101,LEHB41-LFB9630
	.long L$set$101
	.set L$set$102,LEHE41-LEHB41
	.long L$set$102
	.long	0x0
	.byte	0x0
	.byte	0x7f
	.byte	0x0
	.align 2
	.byte	0x0
	.section __TEXT,__textcoal_nt,coalesced,pure_instructions
	.align 2
	.p2align 4,,15
	.globl __ZThn20_N5boost16exception_detail14bad_exception_D1Ev
	.weak_definition __ZThn20_N5boost16exception_detail14bad_exception_D1Ev
	.private_extern __ZThn20_N5boost16exception_detail14bad_exception_D1Ev
__ZThn20_N5boost16exception_detail14bad_exception_D1Ev:
LFB14283:
	addi r3,r3,-20
	b L__ZN5boost16exception_detail14bad_exception_D1Ev$stub
LFE14283:
	.align 2
	.p2align 4,,15
	.globl __ZN5boost16exception_detail14bad_exception_D1Ev
	.weak_definition __ZN5boost16exception_detail14bad_exception_D1Ev
	.private_extern __ZN5boost16exception_detail14bad_exception_D1Ev
__ZN5boost16exception_detail14bad_exception_D1Ev:
LFB7219:
	mflr r0
LCFI318:
	bcl 20,31,"L00000000058$pb"
"L00000000058$pb":
	stmw r30,-8(r1)
LCFI319:
	mflr r31
	stw r0,8(r1)
LCFI320:
	stwu r1,-80(r1)
LCFI321:
	mr r30,r3
	addis r2,r31,ha16(__ZTVN5boost16exception_detail14bad_exception_E-"L00000000058$pb")
	addi r3,r3,20
	la r2,lo16(__ZTVN5boost16exception_detail14bad_exception_E-"L00000000058$pb")(r2)
	addi r0,r2,24
	addi r2,r2,8
	stw r0,20(r30)
	stw r2,0(r30)
	bl L__ZNSt13bad_exceptionD2Ev$stub
	lwz r3,4(r30)
	addis r2,r31,ha16(L__ZTVN5boost9exceptionE$non_lazy_ptr-"L00000000058$pb")
	lwz r2,lo16(L__ZTVN5boost9exceptionE$non_lazy_ptr-"L00000000058$pb")(r2)
	cmpwi cr7,r3,0
	addi r2,r2,8
	stw r2,0(r30)
	beq cr7,L1197
	lwz r2,0(r3)
	lwz r0,16(r2)
	mtctr r0
	mr r12,r0
LEHB42:
	bctrl
LEHE42:
	cmpwi cr7,r3,0
	beq cr7,L1197
	li r0,0
	stw r0,4(r30)
	b L1197
L1199:
	cmpwi cr7,r4,-1
	beq cr7,L1196
LEHB43:
	bl L__Unwind_Resume$stub
L1196:
	bl L___cxa_call_unexpected$stub
LEHE43:
	.p2align 4,,15
L1197:
	addi r1,r1,80
	lwz r0,8(r1)
	lmw r30,-8(r1)
	mtlr r0
	blr
LFE7219:
	.section __DATA,__gcc_except_tab
GCC_except_table19:
	.align 2
LLSDA7219:
	.byte	0xff
	.byte	0x0
	.byte	0x21
	.byte	0x3
	.byte	0x1a
	.set L$set$103,LEHB42-LFB7219
	.long L$set$103
	.set L$set$104,LEHE42-LEHB42
	.long L$set$104
	.set L$set$105,L1199-LFB7219
	.long L$set$105
	.byte	0x1
	.set L$set$106,LEHB43-LFB7219
	.long L$set$106
	.set L$set$107,LEHE43-LEHB43
	.long L$set$107
	.long	0x0
	.byte	0x0
	.byte	0x7f
	.byte	0x0
	.align 2
	.byte	0x0
	.section __TEXT,__textcoal_nt,coalesced,pure_instructions
	.cstring
	.align 2
LC7:
	.ascii "%s:%u: failed assertion `%s'\12\0"
	.align 2
LC8:
	.ascii "/Developer/SDKs/MacOSX10.4u.modified.sdk/usr/include/boost/thread/pthread/mutex.hpp\0"
	.align 2
LC9:
	.ascii "!pthread_mutex_unlock(&m)\0"
	.text
	.align 2
	.p2align 4,,15
	.globl __ZN8Fielding13HostViewCocoa14callOnUIThreadEPFvPvES1_
	.private_extern __ZN8Fielding13HostViewCocoa14callOnUIThreadEPFvPvES1_
__ZN8Fielding13HostViewCocoa14callOnUIThreadEPFvPvES1_:
LFB8475:
	mflr r0
LCFI322:
	mfcr r2
LCFI323:
	bcl 20,31,"L00000000059$pb"
"L00000000059$pb":
	stmw r24,-32(r1)
LCFI324:
	mflr r31
	stw r0,8(r1)
LCFI325:
	stw r2,4(r1)
LCFI326:
	stwu r1,-144(r1)
LCFI327:
	nop
	nop
	lwz r29,96(r3)
	cmpwi cr7,r29,0
	beq cr7,L1253
	addi r30,r29,84
	stw r4,60(r1)
	stw r5,64(r1)
	mr r3,r30
LEHB44:
	bl L_pthread_mutex_lock$stub
LEHE44:
	mr. r8,r3
	beq cr0,L1203
	addis r2,r31,ha16(__ZTVN5boost16exception_detail19error_info_injectorINS_10lock_errorEEE-"L00000000059$pb")
	addis r29,r31,ha16(__ZTVN5boost10lock_errorE-"L00000000059$pb")
	stw r8,80(r1)
	stw r8,72(r1)
	la r2,lo16(__ZTVN5boost16exception_detail19error_info_injectorINS_10lock_errorEEE-"L00000000059$pb")(r2)
	la r29,lo16(__ZTVN5boost10lock_errorE-"L00000000059$pb")(r29)
	addis r9,r31,ha16(__ZTVN5boost16thread_exceptionE-"L00000000059$pb")
	li r11,0
	addi r10,r2,28
	addi r27,r2,8
	addis r2,r31,ha16(L__ZTVN5boost9exceptionE$non_lazy_ptr-"L00000000059$pb")
	li r0,-1
	stw r11,96(r1)
	stw r11,88(r1)
	stw r10,84(r1)
	stw r11,92(r1)
	lwz r2,lo16(L__ZTVN5boost9exceptionE$non_lazy_ptr-"L00000000059$pb")(r2)
	stw r0,100(r1)
	addi r29,r29,8
	stw r27,76(r1)
	la r9,lo16(__ZTVN5boost16thread_exceptionE-"L00000000059$pb")(r9)
	li r3,32
	stw r29,68(r1)
	addi r28,r2,8
	addi r26,r9,8
	bl L___cxa_allocate_exception$stub
	lwz r0,80(r1)
	mr r30,r3
	lwz r3,88(r1)
	stw r29,0(r30)
	stw r28,8(r30)
	stw r0,4(r30)
	cmpwi cr7,r3,0
	stw r3,12(r30)
	beq cr7,L1205
	lwz r2,0(r3)
	lwz r0,12(r2)
	mtctr r0
	mr r12,r0
LEHB45:
	bctrl
LEHE45:
L1205:
	addis r2,r31,ha16(__ZTVN5boost16exception_detail10clone_implINS0_19error_info_injectorINS_10lock_errorEEEEE-"L00000000059$pb")
	lwz r7,92(r1)
	lwz r8,96(r1)
	lwz r10,100(r1)
	addis r9,r31,ha16(__ZTVN5boost16exception_detail10clone_baseE-"L00000000059$pb")
	li r29,0
	la r2,lo16(__ZTVN5boost16exception_detail10clone_implINS0_19error_info_injectorINS_10lock_errorEEEEE-"L00000000059$pb")(r2)
	la r9,lo16(__ZTVN5boost16exception_detail10clone_baseE-"L00000000059$pb")(r9)
	addi r0,r2,52
	addi r11,r2,8
	stw r7,16(r30)
	stw r8,20(r30)
	stw r10,24(r30)
	stw r0,28(r30)
	addi r2,r2,36
	stw r11,0(r30)
	stw r2,8(r30)
	addi r25,r9,8
	lwz r4,88(r1)
	cmpwi cr7,r4,0
	bne cr7,L1207
	mcrf cr4,cr7
	b L1208
L1262:
L1209:
	stw r26,0(r30)
	mr r24,r3
	mr r3,r30
	bl L__ZNSt9exceptionD2Ev$stub
	b L1232
	.p2align 4,,15
L1207:
	lwz r2,0(r4)
	addi r3,r1,56
	cmpwi cr4,r29,0
	lwz r0,20(r2)
	mtctr r0
	mr r12,r0
LEHB46:
	bctrl
LEHE46:
	lwz r29,56(r1)
	cmpwi cr4,r29,0
	beq cr4,L1208
	lwz r2,0(r29)
	mr r3,r29
	lwz r0,12(r2)
	mtctr r0
	mr r12,r0
LEHB47:
	bctrl
LEHE47:
	lwz r2,0(r29)
	mr r3,r29
	lwz r0,16(r2)
	mtctr r0
	mr r12,r0
LEHB48:
	bctrl
LEHE48:
	b L1208
L1260:
L1213:
	lwz r2,0(r29)
	mr r24,r3
	mr r3,r29
	lwz r0,16(r2)
	mtctr r0
	mr r12,r0
	bctrl
	b L1221
	.p2align 4,,15
L1208:
	lwz r3,12(r30)
	lwz r0,96(r1)
	lwz r2,100(r1)
	cmpwi cr7,r3,0
	stw r0,20(r30)
	lwz r0,92(r1)
	stw r2,24(r30)
	stw r0,16(r30)
	beq cr7,L1214
	lwz r2,0(r3)
	lwz r0,16(r2)
	mtctr r0
	mr r12,r0
LEHB49:
	bctrl
	cmpwi cr7,r3,0
	beq cr7,L1214
	li r0,0
	stw r0,12(r30)
	.p2align 4,,15
L1214:
	stw r29,12(r30)
	beq cr4,L1219
	lwz r2,0(r29)
	mr r3,r29
	lwz r0,12(r2)
	mtctr r0
	mr r12,r0
	bctrl
LEHE49:
	beq- cr4,L1219
	lwz r2,0(r29)
	mr r3,r29
	lwz r0,16(r2)
	mtctr r0
	mr r12,r0
LEHB50:
	bctrl
LEHE50:
	b L1219
L1261:
	mr r24,r3
L1221:
	beq cr4,L1224
	lwz r2,0(r29)
	mr r3,r29
	lwz r0,16(r2)
	mtctr r0
	mr r12,r0
	bctrl
	b L1224
L1263:
	mr r24,r3
L1224:
L1264:
L1226:
	stw r25,28(r30)
	stw r27,0(r30)
	addi r29,r30,8
	stw r28,8(r30)
	lwz r3,4(r29)
	cmpwi cr7,r3,0
	beq cr7,L1227
	lwz r2,0(r3)
	lwz r0,16(r2)
	mtctr r0
	mr r12,r0
LEHB51:
	bctrl
LEHE51:
	cmpwi cr7,r3,0
	beq cr7,L1227
	li r0,0
	stw r0,4(r29)
	b L1227
L1259:
	b L1271
L1231:
L1227:
	stw r26,0(r30)
	mr r3,r30
	bl L__ZNSt9exceptionD2Ev$stub
L1265:
L1232:
L1266:
L1233:
	mr r3,r30
	bl L___cxa_free_exception$stub
	lwz r3,88(r1)
	stw r27,76(r1)
	stw r28,84(r1)
	cmpwi cr7,r3,0
	beq cr7,L1234
	lwz r2,0(r3)
	lwz r0,16(r2)
	mtctr r0
	mr r12,r0
LEHB52:
	bctrl
LEHE52:
	cmpwi cr7,r3,0
	beq cr7,L1234
	li r0,0
	stw r0,88(r1)
L1234:
	addi r3,r1,76
	stw r26,76(r1)
	bl L__ZNSt9exceptionD2Ev$stub
	b L1244
L1258:
	b L1271
L1238:
	.p2align 4,,15
L1219:
	lwz r3,88(r1)
	stw r27,76(r1)
	stw r28,84(r1)
	cmpwi cr7,r3,0
	beq- cr7,L1239
	lwz r2,0(r3)
	lwz r0,16(r2)
	mtctr r0
	mr r12,r0
LEHB53:
	bctrl
LEHE53:
	cmpwi cr7,r3,0
	beq cr7,L1239
	li r0,0
	stw r0,88(r1)
L1239:
	addi r3,r1,76
	stw r26,76(r1)
	bl L__ZNSt9exceptionD2Ev$stub
	addis r4,r31,ha16(__ZTIN5boost16exception_detail10clone_implINS0_19error_info_injectorINS_10lock_errorEEEEE-"L00000000059$pb")
	addis r5,r31,ha16(L__ZN5boost16exception_detail10clone_implINS0_19error_info_injectorINS_10lock_errorEEEED1Ev$non_lazy_ptr-"L00000000059$pb")
	mr r3,r30
	la r4,lo16(__ZTIN5boost16exception_detail10clone_implINS0_19error_info_injectorINS_10lock_errorEEEEE-"L00000000059$pb")(r4)
	lwz r5,lo16(L__ZN5boost16exception_detail10clone_implINS0_19error_info_injectorINS_10lock_errorEEEED1Ev$non_lazy_ptr-"L00000000059$pb")(r5)
LEHB54:
	bl L___cxa_throw$stub
LEHE54:
L1257:
L1271:
	cmpwi cr7,r4,-1
	bne cr7,L1269
L1243:
LEHB55:
	bl L___cxa_call_unexpected$stub
L1267:
	mr r24,r3
L1244:
	addi r3,r1,68
	stw r26,68(r1)
	bl L__ZNSt9exceptionD2Ev$stub
	mr r3,r24
L1269:
	bl L__Unwind_Resume$stub
	.p2align 4,,15
L1203:
	lwz r4,76(r29)
	lwz r0,80(r29)
	cmpw cr7,r4,r0
	beq cr7,L1246
	cmpwi cr7,r4,0
	beq cr7,L1248
	lwz r2,64(r1)
	lwz r0,60(r1)
	stw r2,4(r4)
	stw r0,0(r4)
	lwz r4,76(r29)
L1248:
	addi r4,r4,8
	stw r4,76(r29)
	b L1250
L1246:
	addi r3,r29,72
	addi r5,r1,60
	bl L__ZNSt6vectorI18tSimpleCallbackArgSaIS0_EE13_M_insert_auxEN9__gnu_cxx17__normal_iteratorIPS0_S2_EERKS0_$stub
	.p2align 4,,15
L1250:
	mr r3,r30
	bl L_pthread_mutex_unlock$stub
	cmpwi cr7,r3,0
	beq+ cr7,L1251
	addis r3,r31,ha16(LC7-"L00000000059$pb")
	addis r4,r31,ha16(LC8-"L00000000059$pb")
	addis r6,r31,ha16(LC9-"L00000000059$pb")
	li r5,61
	la r3,lo16(LC7-"L00000000059$pb")(r3)
	la r4,lo16(LC8-"L00000000059$pb")(r4)
	la r6,lo16(LC9-"L00000000059$pb")(r6)
	bl L___eprintf$stub
	.p2align 4,,15
L1251:
	lwz r3,68(r29)
	bl L_CFRunLoopSourceSignal$stub
	lwz r3,56(r29)
	bl L_CFRunLoopWakeUp$stub
LEHE55:
L1253:
	addi r1,r1,144
	lwz r0,8(r1)
	lwz r11,4(r1)
	lmw r24,-32(r1)
	mtlr r0
	mtcrf 8,r11
	blr
LFE8475:
	.section __DATA,__gcc_except_tab
GCC_except_table20:
	.align 2
LLSDA8475:
	.byte	0xff
	.byte	0x0
	.byte	0xa4,0x1
	.byte	0x3
	.byte	0x9c,0x1
	.set L$set$108,LEHB44-LFB8475
	.long L$set$108
	.set L$set$109,LEHE44-LEHB44
	.long L$set$109
	.long	0x0
	.byte	0x0
	.set L$set$110,LEHB45-LFB8475
	.long L$set$110
	.set L$set$111,LEHE45-LEHB45
	.long L$set$111
	.set L$set$112,L1262-LFB8475
	.long L$set$112
	.byte	0x0
	.set L$set$113,LEHB46-LFB8475
	.long L$set$113
	.set L$set$114,LEHE46-LEHB46
	.long L$set$114
	.set L$set$115,L1261-LFB8475
	.long L$set$115
	.byte	0x0
	.set L$set$116,LEHB47-LFB8475
	.long L$set$116
	.set L$set$117,LEHE47-LEHB47
	.long L$set$117
	.set L$set$118,L1260-LFB8475
	.long L$set$118
	.byte	0x0
	.set L$set$119,LEHB48-LFB8475
	.long L$set$119
	.set L$set$120,LEHE48-LEHB48
	.long L$set$120
	.set L$set$121,L1261-LFB8475
	.long L$set$121
	.byte	0x0
	.set L$set$122,LEHB49-LFB8475
	.long L$set$122
	.set L$set$123,LEHE49-LEHB49
	.long L$set$123
	.set L$set$124,L1261-LFB8475
	.long L$set$124
	.byte	0x0
	.set L$set$125,LEHB50-LFB8475
	.long L$set$125
	.set L$set$126,LEHE50-LEHB50
	.long L$set$126
	.set L$set$127,L1263-LFB8475
	.long L$set$127
	.byte	0x0
	.set L$set$128,LEHB51-LFB8475
	.long L$set$128
	.set L$set$129,LEHE51-LEHB51
	.long L$set$129
	.set L$set$130,L1259-LFB8475
	.long L$set$130
	.byte	0x1
	.set L$set$131,LEHB52-LFB8475
	.long L$set$131
	.set L$set$132,LEHE52-LEHB52
	.long L$set$132
	.set L$set$133,L1258-LFB8475
	.long L$set$133
	.byte	0x1
	.set L$set$134,LEHB53-LFB8475
	.long L$set$134
	.set L$set$135,LEHE53-LEHB53
	.long L$set$135
	.set L$set$136,L1257-LFB8475
	.long L$set$136
	.byte	0x1
	.set L$set$137,LEHB54-LFB8475
	.long L$set$137
	.set L$set$138,LEHE54-LEHB54
	.long L$set$138
	.set L$set$139,L1267-LFB8475
	.long L$set$139
	.byte	0x0
	.set L$set$140,LEHB55-LFB8475
	.long L$set$140
	.set L$set$141,LEHE55-LEHB55
	.long L$set$141
	.long	0x0
	.byte	0x0
	.byte	0x7f
	.byte	0x0
	.align 2
	.byte	0x0
	.text
	.section __TEXT,__textcoal_nt,coalesced,pure_instructions
	.align 2
	.p2align 4,,15
	.globl __ZThn8_N5boost16exception_detail19error_info_injectorINS_21thread_resource_errorEED1Ev
	.weak_definition __ZThn8_N5boost16exception_detail19error_info_injectorINS_21thread_resource_errorEED1Ev
	.private_extern __ZThn8_N5boost16exception_detail19error_info_injectorINS_21thread_resource_errorEED1Ev
__ZThn8_N5boost16exception_detail19error_info_injectorINS_21thread_resource_errorEED1Ev:
LFB14284:
	addi r3,r3,-8
	b L__ZN5boost16exception_detail19error_info_injectorINS_21thread_resource_errorEED1Ev$stub
LFE14284:
	.align 2
	.p2align 4,,15
	.globl __ZN5boost16exception_detail19error_info_injectorINS_21thread_resource_errorEED1Ev
	.weak_definition __ZN5boost16exception_detail19error_info_injectorINS_21thread_resource_errorEED1Ev
	.private_extern __ZN5boost16exception_detail19error_info_injectorINS_21thread_resource_errorEED1Ev
__ZN5boost16exception_detail19error_info_injectorINS_21thread_resource_errorEED1Ev:
LFB9624:
	mflr r0
LCFI328:
	bcl 20,31,"L00000000060$pb"
"L00000000060$pb":
	stmw r29,-12(r1)
LCFI329:
	mflr r31
	stw r0,8(r1)
LCFI330:
	stwu r1,-80(r1)
LCFI331:
	addi r29,r3,8
	addis r9,r31,ha16(__ZTVN5boost16exception_detail19error_info_injectorINS_21thread_resource_errorEEE-"L00000000060$pb")
	addis r2,r31,ha16(L__ZTVN5boost9exceptionE$non_lazy_ptr-"L00000000060$pb")
	mr r30,r3
	la r9,lo16(__ZTVN5boost16exception_detail19error_info_injectorINS_21thread_resource_errorEEE-"L00000000060$pb")(r9)
	lwz r2,lo16(L__ZTVN5boost9exceptionE$non_lazy_ptr-"L00000000060$pb")(r2)
	addi r0,r9,8
	addi r9,r9,28
	stw r0,0(r3)
	stw r9,8(r3)
	addi r2,r2,8
	stw r2,8(r3)
	lwz r3,4(r29)
	cmpwi cr7,r3,0
	beq cr7,L1274
	lwz r2,0(r3)
	lwz r0,16(r2)
	mtctr r0
	mr r12,r0
LEHB56:
	bctrl
LEHE56:
	cmpwi cr7,r3,0
	beq cr7,L1274
	li r0,0
	stw r0,4(r29)
	.p2align 4,,15
L1274:
	addis r2,r31,ha16(__ZTVN5boost16thread_exceptionE-"L00000000060$pb")
	addi r1,r1,80
	mr r3,r30
	la r2,lo16(__ZTVN5boost16thread_exceptionE-"L00000000060$pb")(r2)
	addi r2,r2,8
	stw r2,0(r30)
	lwz r0,8(r1)
	lmw r29,-12(r1)
	mtlr r0
	b L__ZNSt9exceptionD2Ev$stub
L1281:
	cmpwi cr7,r4,-1
	beq cr7,L1277
LEHB57:
	bl L__Unwind_Resume$stub
L1277:
	bl L___cxa_call_unexpected$stub
LEHE57:
LFE9624:
	.section __DATA,__gcc_except_tab
GCC_except_table21:
	.align 2
LLSDA9624:
	.byte	0xff
	.byte	0x0
	.byte	0x21
	.byte	0x3
	.byte	0x1a
	.set L$set$142,LEHB56-LFB9624
	.long L$set$142
	.set L$set$143,LEHE56-LEHB56
	.long L$set$143
	.set L$set$144,L1281-LFB9624
	.long L$set$144
	.byte	0x1
	.set L$set$145,LEHB57-LFB9624
	.long L$set$145
	.set L$set$146,LEHE57-LEHB57
	.long L$set$146
	.long	0x0
	.byte	0x0
	.byte	0x7f
	.byte	0x0
	.align 2
	.byte	0x0
	.section __TEXT,__textcoal_nt,coalesced,pure_instructions
	.align 2
	.p2align 4,,15
	.globl __ZThn20_N5boost16exception_detail10bad_alloc_D1Ev
	.weak_definition __ZThn20_N5boost16exception_detail10bad_alloc_D1Ev
	.private_extern __ZThn20_N5boost16exception_detail10bad_alloc_D1Ev
__ZThn20_N5boost16exception_detail10bad_alloc_D1Ev:
LFB14285:
	addi r3,r3,-20
	b L__ZN5boost16exception_detail10bad_alloc_D1Ev$stub
LFE14285:
	.align 2
	.p2align 4,,15
	.globl __ZN5boost16exception_detail10bad_alloc_D1Ev
	.weak_definition __ZN5boost16exception_detail10bad_alloc_D1Ev
	.private_extern __ZN5boost16exception_detail10bad_alloc_D1Ev
__ZN5boost16exception_detail10bad_alloc_D1Ev:
LFB7215:
	mflr r0
LCFI332:
	bcl 20,31,"L00000000061$pb"
"L00000000061$pb":
	stmw r30,-8(r1)
LCFI333:
	mflr r31
	stw r0,8(r1)
LCFI334:
	stwu r1,-80(r1)
LCFI335:
	mr r30,r3
	addis r2,r31,ha16(__ZTVN5boost16exception_detail10bad_alloc_E-"L00000000061$pb")
	addi r3,r3,20
	la r2,lo16(__ZTVN5boost16exception_detail10bad_alloc_E-"L00000000061$pb")(r2)
	addi r0,r2,24
	addi r2,r2,8
	stw r0,20(r30)
	stw r2,0(r30)
	bl L__ZNSt9bad_allocD2Ev$stub
	lwz r3,4(r30)
	addis r2,r31,ha16(L__ZTVN5boost9exceptionE$non_lazy_ptr-"L00000000061$pb")
	lwz r2,lo16(L__ZTVN5boost9exceptionE$non_lazy_ptr-"L00000000061$pb")(r2)
	cmpwi cr7,r3,0
	addi r2,r2,8
	stw r2,0(r30)
	beq cr7,L1287
	lwz r2,0(r3)
	lwz r0,16(r2)
	mtctr r0
	mr r12,r0
LEHB58:
	bctrl
LEHE58:
	cmpwi cr7,r3,0
	beq cr7,L1287
	li r0,0
	stw r0,4(r30)
	b L1287
L1289:
	cmpwi cr7,r4,-1
	beq cr7,L1286
LEHB59:
	bl L__Unwind_Resume$stub
L1286:
	bl L___cxa_call_unexpected$stub
LEHE59:
	.p2align 4,,15
L1287:
	addi r1,r1,80
	lwz r0,8(r1)
	lmw r30,-8(r1)
	mtlr r0
	blr
LFE7215:
	.section __DATA,__gcc_except_tab
GCC_except_table22:
	.align 2
LLSDA7215:
	.byte	0xff
	.byte	0x0
	.byte	0x21
	.byte	0x3
	.byte	0x1a
	.set L$set$147,LEHB58-LFB7215
	.long L$set$147
	.set L$set$148,LEHE58-LEHB58
	.long L$set$148
	.set L$set$149,L1289-LFB7215
	.long L$set$149
	.byte	0x1
	.set L$set$150,LEHB59-LFB7215
	.long L$set$150
	.set L$set$151,LEHE59-LEHB59
	.long L$set$151
	.long	0x0
	.byte	0x0
	.byte	0x7f
	.byte	0x0
	.align 2
	.byte	0x0
	.section __TEXT,__textcoal_nt,coalesced,pure_instructions
	.align 2
	.p2align 4,,15
	.globl __ZN5boost7polygon10boolean_op22default_arg_workaroundIiE14applyBooleanOrIfEEvRSt6vectorISt4pairIT_S6_IS7_iEESaIS9_EE
	.weak_definition __ZN5boost7polygon10boolean_op22default_arg_workaroundIiE14applyBooleanOrIfEEvRSt6vectorISt4pairIT_S6_IS7_iEESaIS9_EE
	.private_extern __ZN5boost7polygon10boolean_op22default_arg_workaroundIiE14applyBooleanOrIfEEvRSt6vectorISt4pairIT_S6_IS7_iEESaIS9_EE
__ZN5boost7polygon10boolean_op22default_arg_workaroundIiE14applyBooleanOrIfEEvRSt6vectorISt4pairIT_S6_IS7_iEESaIS9_EE:
LFB10489:
	mflr r0
LCFI336:
	stfd f29,-24(r1)
LCFI337:
	stfd f30,-16(r1)
LCFI338:
	mfcr r2
LCFI339:
	bcl 20,31,"L00000000062$pb"
"L00000000062$pb":
	stmw r13,-100(r1)
LCFI340:
	mflr r31
	stw r0,8(r1)
LCFI341:
	stfd f31,-8(r1)
LCFI342:
	lis r30,0xaaaa
	li r0,0
	stw r2,4(r1)
LCFI343:
	stwu r1,-384(r1)
LCFI344:
	li r9,0
	ori r30,r30,43691
	mr r18,r3
	lwz r2,0(r3)
	lwz r4,4(r3)
	addi r20,r1,196
	addi r19,r1,120
	stw r0,120(r1)
	stw r9,128(r1)
	addi r17,r1,192
	stw r0,212(r1)
	stw r0,196(r1)
	stw r0,200(r1)
	stw r20,204(r1)
	stw r20,208(r1)
	stw r20,216(r1)
	stw r0,220(r1)
	stw r0,108(r1)
	stw r0,112(r1)
	stw r0,116(r1)
	stw r9,124(r1)
	subf r4,r2,r4
	mr r3,r19
	srawi r4,r4,2
	mullw r4,r4,r30
LEHB60:
	bl L__ZNSt6vectorISt4pairIfS0_IfiEESaIS2_EE7reserveEm$stub
	lwz r5,4(r18)
	lwz r26,0(r18)
	cmpw cr7,r26,r5
	mr r9,r5
	beq cr7,L1292
	addi r0,r1,100
	addis r2,r31,ha16(LC10-"L00000000062$pb")
	mr r22,r30
	li r24,0
	stw r0,236(r1)
	addi r0,r1,92
	lfs f31,lo16(LC10-"L00000000062$pb")(r2)
	addi r23,r1,232
	addi r21,r1,108
	stw r0,240(r1)
	addi r0,r1,84
	addi r13,r1,64
	addi r15,r1,132
	stw r0,244(r1)
	addi r0,r1,68
	fmr f29,f31
	addi r14,r1,144
	addi r16,r1,180
	stw r0,248(r1)
	addi r0,r1,76
	stw r0,252(r1)
	addi r0,r1,168
	stw r0,256(r1)
	.p2align 4,,15
L1294:
	lfs f0,0(r26)
	lfs f30,4(r26)
	fcmpu cr7,f0,f29
	beq cr7,L1295
	lwz r2,204(r1)
	fmr f29,f0
	stw r2,216(r1)
	lwz r24,8(r26)
	b L1298
	.p2align 4,,15
L1295:
	fcmpu cr7,f30,f31
	beq cr7,L1299
	cmpwi cr4,r24,0
	beq cr4,L1299
	b L1413
L1303:
	lfs f0,16(r2)
	fcmpu cr7,f0,f31
	cror 30,31,28
	beq cr7,L1304
	mr r25,r2
L1306:
	cmpw cr7,r2,r20
	stfs f30,64(r1)
	beq cr7,L1307
	lfs f0,16(r2)
	fcmpu cr7,f0,f30
	cror 30,31,28
	beq cr7,L1307
	mr r27,r2
L1310:
	cmpw cr7,r25,r20
	bne cr7,L1311
	stfs f31,68(r1)
	stw r24,72(r1)
	mr r3,r23
	mr r4,r17
	lwz r5,216(r1)
	lwz r6,248(r1)
	bl L__ZNSt8_Rb_treeIfSt4pairIKfiESt10_Select1stIS2_ESt4lessIfESaIS2_EE13insert_uniqueESt17_Rb_tree_iteratorIS2_ERKS2_$stub
	lwz r5,232(r1)
	lwz r0,220(r1)
	mr r3,r23
	mr r4,r17
	stfs f30,76(r1)
	lwz r6,252(r1)
	stw r5,216(r1)
	stw r0,80(r1)
	bl L__ZNSt8_Rb_treeIfSt4pairIKfiESt10_Select1stIS2_ESt4lessIfESaIS2_EE13insert_uniqueESt17_Rb_tree_iteratorIS2_ERKS2_$stub
	lwz r0,220(r1)
	lwz r2,232(r1)
	li r11,1
	cmpwi cr7,r0,0
	stw r2,216(r1)
	bgt cr7,L1313
	li r11,0
L1313:
	li r9,1
	bgt cr4,L1314
	li r9,0
L1314:
	xori r0,r9,1
	xori r2,r11,1
	and r0,r0,r11
	and r2,r9,r2
	subf. r2,r0,r2
	beq cr0,L1315
	stfs f31,168(r1)
	stw r2,176(r1)
	mr r3,r23
	mr r4,r21
	stfs f30,172(r1)
	lwz r5,112(r1)
	lwz r6,256(r1)
	bl L__ZNSt6vectorISt4pairIN5boost7polygon13interval_dataIfEEiESaIS5_EE6insertEN9__gnu_cxx17__normal_iteratorIPS5_S7_EERKS5_$stub
	b L1315
L1311:
	cmpw cr7,r27,r20
	beq cr7,L1317
	lfs f0,16(r27)
	fcmpu cr7,f30,f0
	bnl cr7,L1319
L1317:
	lwz r0,204(r1)
	lwz r2,220(r1)
	cmpw cr7,r27,r0
	beq cr7,L1321
	mr r3,r27
	bl L__ZSt18_Rb_tree_decrementPSt18_Rb_tree_node_base$stub
	lwz r2,20(r3)
	mr r27,r3
L1321:
	stw r2,88(r1)
	stw r27,216(r1)
	mr r5,r27
	mr r3,r23
	stfs f30,84(r1)
	lwz r6,244(r1)
	mr r4,r17
	bl L__ZNSt8_Rb_treeIfSt4pairIKfiESt10_Select1stIS2_ESt4lessIfESaIS2_EE13insert_uniqueESt17_Rb_tree_iteratorIS2_ERKS2_$stub
	lwz r0,232(r1)
	stw r0,216(r1)
	mr r27,r0
L1319:
	lfs f0,16(r25)
	fcmpu cr7,f0,f31
	bng cr7,L1323
	lwz r0,204(r1)
	cmpw cr7,r25,r0
	beq cr7,L1326
	mr r3,r25
	bl L__ZSt18_Rb_tree_decrementPSt18_Rb_tree_node_base$stub
	stw r3,216(r1)
	mr r2,r3
	mr r5,r3
	stfs f31,92(r1)
	mr r3,r23
	lwz r6,240(r1)
	mr r4,r17
	lwz r0,20(r2)
	stw r0,96(r1)
	bl L__ZNSt8_Rb_treeIfSt4pairIKfiESt10_Select1stIS2_ESt4lessIfESaIS2_EE13insert_uniqueESt17_Rb_tree_iteratorIS2_ERKS2_$stub
	lwz r0,232(r1)
	mr r25,r0
	stw r0,216(r1)
	b L1323
L1326:
	lwz r0,220(r1)
	stfs f31,100(r1)
	mr r5,r25
	mr r3,r23
	stw r25,216(r1)
	mr r4,r17
	lwz r6,236(r1)
	stw r0,104(r1)
	bl L__ZNSt8_Rb_treeIfSt4pairIKfiESt10_Select1stIS2_ESt4lessIfESaIS2_EE13insert_uniqueESt17_Rb_tree_iteratorIS2_ERKS2_$stub
	lwz r0,232(r1)
	stw r0,216(r1)
	mr r25,r0
L1323:
	mr r30,r25
	b L1412
	.p2align 4,,15
L1329:
	lwz r29,20(r30)
	mr r3,r30
	lfs f31,16(r30)
	add r28,r24,r29
	stw r28,20(r30)
	bl L__ZSt18_Rb_tree_incrementPSt18_Rb_tree_node_base$stub
	cmpwi cr7,r29,0
	mr r30,r3
	lfs f0,16(r3)
	li r11,1
	bgt cr7,L1330
	li r11,0
	.p2align 4,,15
L1330:
	cmpwi cr7,r28,0
	li r9,1
	bgt cr7,L1331
	li r9,0
	.p2align 4,,15
L1331:
	xori r0,r9,1
	xori r2,r11,1
	and r0,r0,r11
	and r2,r9,r2
	subf. r2,r0,r2
	beq cr0,L1412
	stfs f31,180(r1)
	stfs f0,184(r1)
	mr r3,r23
	mr r4,r21
	stw r2,188(r1)
	lwz r5,112(r1)
	mr r6,r16
	bl L__ZNSt6vectorISt4pairIN5boost7polygon13interval_dataIfEEiESaIS5_EE6insertEN9__gnu_cxx17__normal_iteratorIPS5_S7_EERKS5_$stub
	.p2align 4,,15
L1412:
	cmpw cr7,r27,r30
	bne cr7,L1329
	lwz r0,204(r1)
	cmpw cr7,r25,r0
	beq cr7,L1334
	mr r3,r25
	bl L__ZSt18_Rb_tree_decrementPSt18_Rb_tree_node_base$stub
	lwz r0,20(r3)
	lwz r2,20(r25)
	cmpw cr7,r0,r2
	beq cr7,L1336
	lwz r25,204(r1)
	b L1334
L1336:
	mr r3,r25
	mr r4,r20
	bl L__ZSt28_Rb_tree_rebalance_for_erasePSt18_Rb_tree_node_baseRS_$stub
	bl L__ZdlPv$stub
	lwz r2,212(r1)
	lwz r25,204(r1)
	addi r2,r2,-1
	stw r2,212(r1)
L1334:
	cmpw cr7,r30,r25
	bne cr7,L1338
	mr r27,r25
	b L1340
L1338:
	mr r3,r27
	bl L__ZSt18_Rb_tree_decrementPSt18_Rb_tree_node_base$stub
	lwz r0,20(r27)
	lwz r2,20(r3)
	mr r30,r3
	cmpw cr7,r2,r0
	bne cr7,L1340
	mr r3,r27
	mr r4,r20
	bl L__ZSt28_Rb_tree_rebalance_for_erasePSt18_Rb_tree_node_baseRS_$stub
	bl L__ZdlPv$stub
	lwz r2,212(r1)
	mr r3,r30
	addi r2,r2,-1
	stw r2,212(r1)
	bl L__ZSt18_Rb_tree_incrementPSt18_Rb_tree_node_base$stub
	mr r27,r3
L1340:
	stw r27,216(r1)
L1315:
	lwz r2,108(r1)
	lwz r0,112(r1)
	subf r0,r2,r0
	srawi r0,r0,2
	mullw. r9,r0,r22
	beq cr0,L1395
	li r28,0
	li r29,0
	.p2align 4,,15
L1343:
	lwz r9,124(r1)
	lwz r0,120(r1)
	add r30,r29,r2
	cmpw cr7,r0,r9
	beq cr7,L1398
	lfs f0,-12(r9)
	addi r10,r9,-12
	fcmpu cr7,f0,f29
	bne cr7,L1398
	lfsx f0,r29,r2
	lfs f13,4(r10)
	fcmpu cr7,f13,f0
	bne cr7,L1398
	lwz r11,8(r30)
	lwz r0,8(r10)
	neg r2,r11
	cmpw cr7,r0,r2
	bne cr7,L1344
	lwz r2,128(r1)
	mr r9,r10
	stw r10,124(r1)
	b L1349
	.p2align 4,,15
L1350:
	cmpwi cr7,r9,0
	beq cr7,L1351
	lwz r2,136(r1)
	lwz r0,132(r1)
	stw r11,8(r9)
	stw r0,0(r9)
	stw r2,4(r9)
	lwz r9,124(r1)
	lwz r2,128(r1)
L1351:
	addi r9,r9,12
	stw r9,124(r1)
	b L1349
L1418:
	mr r4,r9
	mr r3,r19
	mr r5,r15
	bl L__ZNSt6vectorISt4pairIfS0_IfiEESaIS2_EE13_M_insert_auxEN9__gnu_cxx17__normal_iteratorIPS2_S4_EERKS2_$stub
	lwz r9,124(r1)
	lwz r2,128(r1)
	.p2align 4,,15
L1349:
	lwz r0,8(r30)
	lfs f0,4(r30)
	cmpw cr7,r9,r2
	stfs f29,144(r1)
	neg r11,r0
	stfs f0,148(r1)
	stw r11,152(r1)
	beq cr7,L1354
	cmpwi cr7,r9,0
	beq cr7,L1356
	lwz r0,144(r1)
	lwz r2,148(r1)
	stw r11,8(r9)
	stw r0,0(r9)
	stw r2,4(r9)
	lwz r9,124(r1)
L1356:
	addi r9,r9,12
	stw r9,124(r1)
	b L1358
L1354:
	mr r4,r9
	mr r3,r19
	mr r5,r14
	bl L__ZNSt6vectorISt4pairIfS0_IfiEESaIS2_EE13_M_insert_auxEN9__gnu_cxx17__normal_iteratorIPS2_S4_EERKS2_$stub
LEHE60:
	.p2align 4,,15
L1358:
	lwz r2,108(r1)
	lwz r0,112(r1)
	addi r28,r28,1
	addi r29,r29,12
	subf r0,r2,r0
	srawi r0,r0,2
	mullw r0,r0,r22
	cmplw cr7,r0,r28
	bgt cr7,L1343
L1395:
	lwz r9,4(r18)
	.p2align 4,,15
L1299:
	lwz r0,8(r26)
	add r24,r24,r0
L1298:
	addi r26,r26,12
	fmr f31,f30
	cmpw cr7,r9,r26
	bne cr7,L1294
	lwz r5,0(r18)
L1292:
	lwz r0,124(r1)
	lwz r9,120(r1)
	lis r11,0xaaaa
	subf r2,r5,r26
	ori r11,r11,43691
	srawi r2,r2,2
	subf r0,r9,r0
	mullw r2,r2,r11
	srawi r0,r0,2
	mullw r0,r0,r11
	srwi r2,r2,1
	cmplw cr7,r0,r2
	bge cr7,L1361
	li r0,0
	mr r3,r18
	addi r4,r1,156
	stw r0,164(r1)
	stw r0,156(r1)
	stw r0,160(r1)
LEHB61:
	bl L__ZNSt6vectorISt4pairIfS0_IfiEESaIS2_EEaSERKS4_$stub
LEHE61:
	b L1414
L1389:
L1364:
	mr r30,r3
	lwz r4,160(r1)
	lwz r3,156(r1)
	addi r5,r1,56
	bl L__ZSt8_DestroyIPSt4pairIfS0_IfiEESaIS2_EEvT_S5_T0_$stub
	lwz r3,156(r1)
	cmpwi cr7,r3,0
	beq cr7,L1371
L1369:
	bl L__ZdlPv$stub
	b L1371
L1414:
	lwz r3,156(r1)
	lwz r4,160(r1)
	addi r5,r1,57
	bl L__ZSt8_DestroyIPSt4pairIfS0_IfiEESaIS2_EEvT_S5_T0_$stub
	lwz r3,156(r1)
	cmpwi cr7,r3,0
	beq cr7,L1367
	bl L__ZdlPv$stub
	b L1367
L1390:
L1361:
	mr r6,r26
	addi r3,r1,232
	mr r4,r18
	bl L__ZNSt6vectorISt4pairIfS0_IfiEESaIS2_EE5eraseEN9__gnu_cxx17__normal_iteratorIPS2_S4_EES8_$stub
L1367:
	mr r3,r18
	mr r7,r30
	lwz r4,4(r18)
	lwz r5,120(r1)
	lwz r6,124(r1)
LEHB62:
	bl L__ZNSt6vectorISt4pairIfS0_IfiEESaIS2_EE15_M_range_insertIN9__gnu_cxx17__normal_iteratorIPS2_S4_EEEEvS9_T_SA_St20forward_iterator_tag$stub
LEHE62:
	b L1415
L1391:
	mr r30,r3
L1371:
	lwz r3,120(r1)
	lwz r4,124(r1)
	addi r5,r1,58
	bl L__ZSt8_DestroyIPSt4pairIfS0_IfiEESaIS2_EEvT_S5_T0_$stub
	lwz r3,120(r1)
	cmpwi cr7,r3,0
	beq cr7,L1372
	bl L__ZdlPv$stub
	b L1372
L1415:
	lwz r3,120(r1)
	lwz r4,124(r1)
	addi r5,r1,59
	bl L__ZSt8_DestroyIPSt4pairIfS0_IfiEESaIS2_EEvT_S5_T0_$stub
	lwz r3,120(r1)
	cmpwi cr7,r3,0
	beq cr7,L1374
	bl L__ZdlPv$stub
L1374:
	lwz r3,108(r1)
	lwz r4,112(r1)
	addi r5,r1,61
	bl L__ZSt8_DestroyIPSt4pairIN5boost7polygon13interval_dataIfEEiESaIS5_EEvT_S8_T0_$stub
	lwz r3,108(r1)
	cmpwi cr7,r3,0
	bne cr7,L1376
	b L1377
L1392:
L1372:
L1378:
	lwz r3,108(r1)
	lwz r4,112(r1)
	addi r5,r1,60
	bl L__ZSt8_DestroyIPSt4pairIN5boost7polygon13interval_dataIfEEiESaIS5_EEvT_S8_T0_$stub
	lwz r3,108(r1)
	cmpwi cr7,r3,0
	beq cr7,L1379
	bl L__ZdlPv$stub
	b L1379
	.p2align 4,,15
L1376:
	bl L__ZdlPv$stub
L1377:
	mr r3,r17
	lwz r4,200(r1)
LEHB63:
	bl L__ZNSt8_Rb_treeIfSt4pairIKfiESt10_Select1stIS2_ESt4lessIfESaIS2_EE8_M_eraseEPSt13_Rb_tree_nodeIS2_E$stub
LEHE63:
	b L1416
L1393:
L1379:
L1382:
	mr r3,r17
	lwz r4,200(r1)
LEHB64:
	bl L__ZNSt8_Rb_treeIfSt4pairIKfiESt10_Select1stIS2_ESt4lessIfESaIS2_EE8_M_eraseEPSt13_Rb_tree_nodeIS2_E$stub
LEHE64:
	b L1417
L1388:
	b L1411
L1384:
L1417:
	mr r3,r30
L1411:
LEHB65:
	bl L__Unwind_Resume$stub
LEHE65:
L1387:
	b L1411
L1385:
L1413:
	lwz r5,108(r1)
	lwz r6,112(r1)
	mr r3,r23
	mr r4,r21
	bl L__ZNSt6vectorISt4pairIN5boost7polygon13interval_dataIfEEiESaIS5_EE5eraseEN9__gnu_cxx17__normal_iteratorIPS5_S7_EESB_$stub
	lwz r2,216(r1)
	stfs f31,64(r1)
	cmpw cr7,r2,r20
	bne cr7,L1303
L1304:
	mr r3,r23
	mr r4,r17
	mr r5,r13
	bl L__ZNSt8_Rb_treeIfSt4pairIKfiESt10_Select1stIS2_ESt4lessIfESaIS2_EE11lower_boundERS1_$stub
	lwz r0,232(r1)
	mr r25,r0
	mr r2,r0
	stw r0,216(r1)
	b L1306
L1307:
	mr r3,r23
	mr r4,r17
	mr r5,r13
	bl L__ZNSt8_Rb_treeIfSt4pairIKfiESt10_Select1stIS2_ESt4lessIfESaIS2_EE11lower_boundERS1_$stub
	lwz r0,232(r1)
	mr r27,r0
	stw r0,216(r1)
	b L1310
	.p2align 4,,15
L1398:
	lwz r11,8(r30)
L1344:
	lwz r2,128(r1)
	lfs f0,0(r30)
	stfs f29,132(r1)
	stw r11,140(r1)
	cmpw cr7,r9,r2
	stfs f0,136(r1)
	bne cr7,L1350
	b L1418
L1416:
	addi r1,r1,384
	lwz r0,8(r1)
	lwz r11,4(r1)
	lmw r13,-100(r1)
	lfd f29,-24(r1)
	lfd f30,-16(r1)
	lfd f31,-8(r1)
	mtlr r0
	mtcrf 8,r11
	blr
LFE10489:
	.section __DATA,__gcc_except_tab
GCC_except_table23:
LLSDA10489:
	.byte	0xff
	.byte	0xff
	.byte	0x3
	.byte	0x4e
	.set L$set$152,LEHB60-LFB10489
	.long L$set$152
	.set L$set$153,LEHE60-LEHB60
	.long L$set$153
	.set L$set$154,L1391-LFB10489
	.long L$set$154
	.byte	0x0
	.set L$set$155,LEHB61-LFB10489
	.long L$set$155
	.set L$set$156,LEHE61-LEHB61
	.long L$set$156
	.set L$set$157,L1389-LFB10489
	.long L$set$157
	.byte	0x0
	.set L$set$158,LEHB62-LFB10489
	.long L$set$158
	.set L$set$159,LEHE62-LEHB62
	.long L$set$159
	.set L$set$160,L1391-LFB10489
	.long L$set$160
	.byte	0x0
	.set L$set$161,LEHB63-LFB10489
	.long L$set$161
	.set L$set$162,LEHE63-LEHB63
	.long L$set$162
	.set L$set$163,L1387-LFB10489
	.long L$set$163
	.byte	0x0
	.set L$set$164,LEHB64-LFB10489
	.long L$set$164
	.set L$set$165,LEHE64-LEHB64
	.long L$set$165
	.set L$set$166,L1388-LFB10489
	.long L$set$166
	.byte	0x0
	.set L$set$167,LEHB65-LFB10489
	.long L$set$167
	.set L$set$168,LEHE65-LEHB65
	.long L$set$168
	.long	0x0
	.byte	0x0
	.section __TEXT,__textcoal_nt,coalesced,pure_instructions
	.align 2
	.p2align 4,,15
	.globl __ZN5boost7polygon5cleanINS0_19polygon_90_set_dataIfEEEENS_9enable_ifINS0_22is_polygon_90_set_typeIT_E4typeEbE4typeERKS6_
	.weak_definition __ZN5boost7polygon5cleanINS0_19polygon_90_set_dataIfEEEENS_9enable_ifINS0_22is_polygon_90_set_typeIT_E4typeEbE4typeERKS6_
	.private_extern __ZN5boost7polygon5cleanINS0_19polygon_90_set_dataIfEEEENS_9enable_ifINS0_22is_polygon_90_set_typeIT_E4typeEbE4typeERKS6_
__ZN5boost7polygon5cleanINS0_19polygon_90_set_dataIfEEEENS_9enable_ifINS0_22is_polygon_90_set_typeIT_E4typeEbE4typeERKS6_:
LFB9458:
	mflr r0
LCFI345:
	stmw r30,-8(r1)
LCFI346:
	mr r30,r3
	stw r0,8(r1)
LCFI347:
	stwu r1,-80(r1)
LCFI348:
	lwz r0,20(r3)
	cmpwi cr7,r0,0
	beq cr7,L1420
	lwz r3,4(r3)
	lwz r4,8(r30)
	bl L__ZN5boost7polygon7gtlsortIN9__gnu_cxx17__normal_iteratorIPSt4pairIfS4_IfiEESt6vectorIS6_SaIS6_EEEEEEvT_SC_$stub
	li r0,0
	stw r0,20(r30)
	.p2align 4,,15
L1420:
	lwz r0,16(r30)
	cmpwi cr7,r0,0
	beq cr7,L1422
	addi r3,r30,4
	bl L__ZN5boost7polygon10boolean_op22default_arg_workaroundIiE14applyBooleanOrIfEEvRSt6vectorISt4pairIT_S6_IS7_iEESaIS9_EE$stub
	li r0,0
	stw r0,16(r30)
L1422:
	addi r1,r1,80
	li r3,1
	lwz r0,8(r1)
	lmw r30,-8(r1)
	mtlr r0
	blr
LFE9458:
	.align 2
	.p2align 4,,15
	.globl __ZN5boost7polygon5emptyINS0_19polygon_90_set_dataIfEEEENS_9enable_ifINS0_30is_mutable_polygon_90_set_typeIT_E4typeEbE4typeERKS6_
	.weak_definition __ZN5boost7polygon5emptyINS0_19polygon_90_set_dataIfEEEENS_9enable_ifINS0_30is_mutable_polygon_90_set_typeIT_E4typeEbE4typeERKS6_
	.private_extern __ZN5boost7polygon5emptyINS0_19polygon_90_set_dataIfEEEENS_9enable_ifINS0_30is_mutable_polygon_90_set_typeIT_E4typeEbE4typeERKS6_
__ZN5boost7polygon5emptyINS0_19polygon_90_set_dataIfEEEENS_9enable_ifINS0_30is_mutable_polygon_90_set_typeIT_E4typeEbE4typeERKS6_:
LFB8525:
	mflr r0
LCFI349:
	stmw r29,-12(r1)
LCFI350:
	mr r30,r3
	stw r0,8(r1)
LCFI351:
	stwu r1,-112(r1)
LCFI352:
LEHB66:
	bl L__ZN5boost7polygon5cleanINS0_19polygon_90_set_dataIfEEEENS_9enable_ifINS0_22is_polygon_90_set_typeIT_E4typeEbE4typeERKS6_$stub
LEHE66:
	mr. r29,r3
	beq cr0,L1426
	addi r29,r1,88
	mr r4,r30
	mr r3,r29
	bl L__ZN5boost7polygon17begin_90_set_dataINS0_19polygon_90_set_dataIfEEEENS_9enable_ifINS0_22is_polygon_90_set_typeIT_E4typeENS0_21polygon_90_set_traitsIS6_E13iterator_typeEE4typeERKS6_$stub
	mr r3,r29
	mr r4,r30
	lwz r29,88(r1)
	bl L__ZN5boost7polygon15end_90_set_dataINS0_19polygon_90_set_dataIfEEEENS_9enable_ifINS0_22is_polygon_90_set_typeIT_E4typeENS0_21polygon_90_set_traitsIS6_E13iterator_typeEE4typeERKS6_$stub
	lwz r0,88(r1)
	xor r29,r29,r0
	cntlzw r29,r29
	srwi r29,r29,5
	b L1428
	.p2align 4,,15
L1426:
	stw r29,60(r1)
	stw r29,64(r1)
	mr r4,r30
	addi r3,r1,60
	stw r29,68(r1)
	stw r29,72(r1)
	stw r29,76(r1)
	stw r29,80(r1)
LEHB67:
	bl L__ZN5boost7polygon6assignINS0_19polygon_90_set_dataIfEES3_EERNS_9enable_ifINS0_7gtl_andINS0_30is_mutable_polygon_90_set_typeIT_E4typeENS0_22is_polygon_90_set_typeIT0_E4typeEE4typeES7_E4typeERS7_RKSB_$stub
	lwz r0,80(r1)
	cmpwi cr7,r0,0
	beq cr7,L1429
	lwz r3,64(r1)
	lwz r4,68(r1)
	bl L__ZN5boost7polygon7gtlsortIN9__gnu_cxx17__normal_iteratorIPSt4pairIfS4_IfiEESt6vectorIS6_SaIS6_EEEEEEvT_SC_$stub
	stw r29,80(r1)
	.p2align 4,,15
L1429:
	lwz r0,76(r1)
	cmpwi cr7,r0,0
	beq cr7,L1431
	addi r3,r1,64
	bl L__ZN5boost7polygon10boolean_op22default_arg_workaroundIiE14applyBooleanOrIfEEvRSt6vectorISt4pairIT_S6_IS7_iEESaIS9_EE$stub
	stw r29,76(r1)
	.p2align 4,,15
L1431:
	lwz r0,80(r1)
	cmpwi cr7,r0,0
	beq cr7,L1433
	lwz r3,64(r1)
	lwz r4,68(r1)
	bl L__ZN5boost7polygon7gtlsortIN9__gnu_cxx17__normal_iteratorIPSt4pairIfS4_IfiEESt6vectorIS6_SaIS6_EEEEEEvT_SC_$stub
	stw r29,80(r1)
	.p2align 4,,15
L1433:
	lwz r0,76(r1)
	cmpwi cr7,r0,0
	beq cr7,L1435
	addi r3,r1,64
	bl L__ZN5boost7polygon10boolean_op22default_arg_workaroundIiE14applyBooleanOrIfEEvRSt6vectorISt4pairIT_S6_IS7_iEESaIS9_EE$stub
LEHE67:
	stw r29,76(r1)
L1435:
	lwz r2,64(r1)
	lwz r0,68(r1)
	addi r5,r1,56
	mr r3,r2
	mr r4,r0
	xor r29,r2,r0
	bl L__ZSt8_DestroyIPSt4pairIfS0_IfiEESaIS2_EEvT_S5_T0_$stub
	lwz r3,64(r1)
	cntlzw r29,r29
	srwi r29,r29,5
	cmpwi cr7,r3,0
	beq cr7,L1428
	bl L__ZdlPv$stub
	b L1428
L1442:
L1438:
	mr r30,r3
	lwz r4,68(r1)
	lwz r3,64(r1)
	addi r5,r1,57
	bl L__ZSt8_DestroyIPSt4pairIfS0_IfiEESaIS2_EEvT_S5_T0_$stub
	lwz r3,64(r1)
	cmpwi cr7,r3,0
	beq cr7,L1439
	bl L__ZdlPv$stub
L1439:
	mr r3,r30
LEHB68:
	bl L__Unwind_Resume$stub
LEHE68:
	.p2align 4,,15
L1428:
	addi r1,r1,112
	mr r3,r29
	lwz r0,8(r1)
	lmw r29,-12(r1)
	mtlr r0
	blr
LFE8525:
	.section __DATA,__gcc_except_tab
GCC_except_table24:
LLSDA8525:
	.byte	0xff
	.byte	0xff
	.byte	0x3
	.byte	0x27
	.set L$set$169,LEHB66-LFB8525
	.long L$set$169
	.set L$set$170,LEHE66-LEHB66
	.long L$set$170
	.long	0x0
	.byte	0x0
	.set L$set$171,LEHB67-LFB8525
	.long L$set$171
	.set L$set$172,LEHE67-LEHB67
	.long L$set$172
	.set L$set$173,L1442-LFB8525
	.long L$set$173
	.byte	0x0
	.set L$set$174,LEHB68-LFB8525
	.long L$set$174
	.set L$set$175,LEHE68-LEHB68
	.long L$set$175
	.long	0x0
	.byte	0x0
	.section __TEXT,__textcoal_nt,coalesced,pure_instructions
	.cstring
	.align 2
LC11:
	.ascii "!pthread_mutex_destroy(&m)\0"
	.section __TEXT,__textcoal_nt,coalesced,pure_instructions
	.align 2
	.p2align 4,,15
	.globl __ZN17CocoaViewInstanceD1Ev
	.weak_definition __ZN17CocoaViewInstanceD1Ev
	.private_extern __ZN17CocoaViewInstanceD1Ev
__ZN17CocoaViewInstanceD1Ev:
LFB8443:
	mflr r0
LCFI353:
	stmw r28,-16(r1)
LCFI354:
	bcl 20,31,"L00000000063$pb"
"L00000000063$pb":
	stw r0,8(r1)
LCFI355:
	stwu r1,-96(r1)
LCFI356:
	mr r30,r3
	mflr r31
	addis r2,r31,ha16(__ZTV17CocoaViewInstance-"L00000000063$pb")
	la r2,lo16(__ZTV17CocoaViewInstance-"L00000000063$pb")(r2)
	addi r2,r2,8
	stw r2,0(r3)
	lwz r4,68(r3)
	cmpwi cr7,r4,0
	beq cr7,L1444
	addis r2,r31,ha16(L_kCFRunLoopCommonModes$non_lazy_ptr-"L00000000063$pb")
	lwz r3,56(r3)
	lwz r2,lo16(L_kCFRunLoopCommonModes$non_lazy_ptr-"L00000000063$pb")(r2)
	lwz r5,0(r2)
LEHB69:
	bl L_CFRunLoopRemoveSource$stub
	lwz r3,68(r30)
	bl L_CFRelease$stub
	li r0,0
	stw r0,68(r30)
L1444:
	lwz r3,60(r30)
	cmpwi cr7,r3,0
	beq cr7,L1446
	bl L_CFRunLoopTimerInvalidate$stub
	lwz r3,60(r30)
	bl L_CFRelease$stub
	li r0,0
	stw r0,60(r30)
L1446:
	lwz r3,12(r30)
	cmpwi cr7,r3,0
	beq cr7,L1448
	addis r4,r31,ha16(L_ZL27_OBJC_SELECTOR_REFERENCES_5-"L00000000063$pb")
	lwz r4,lo16(L_ZL27_OBJC_SELECTOR_REFERENCES_5-"L00000000063$pb")(r4)
	bla 0xfffeff00
LEHE69:
	li r0,0
	stw r0,12(r30)
	b L1448
L1468:
L1450:
	mr r28,r3
	addi r3,r30,84
	bl L_pthread_mutex_destroy$stub
	cmpwi cr7,r3,0
	beq+ cr7,L1455
	addis r3,r31,ha16(LC7-"L00000000063$pb")
	addis r4,r31,ha16(LC8-"L00000000063$pb")
	addis r6,r31,ha16(LC11-"L00000000063$pb")
	li r5,47
	la r3,lo16(LC7-"L00000000063$pb")(r3)
	la r4,lo16(LC8-"L00000000063$pb")(r4)
	la r6,lo16(LC11-"L00000000063$pb")(r6)
	bl L___eprintf$stub
	.p2align 4,,15
L1448:
	addi r3,r30,84
LEHB70:
	bl L_pthread_mutex_destroy$stub
	cmpwi cr7,r3,0
	beq+ cr7,L1453
	addis r3,r31,ha16(LC7-"L00000000063$pb")
	addis r4,r31,ha16(LC8-"L00000000063$pb")
	addis r6,r31,ha16(LC11-"L00000000063$pb")
	li r5,47
	la r3,lo16(LC7-"L00000000063$pb")(r3)
	la r4,lo16(LC8-"L00000000063$pb")(r4)
	la r6,lo16(LC11-"L00000000063$pb")(r6)
	bl L___eprintf$stub
LEHE70:
L1469:
	mr r28,r3
L1455:
	lwz r3,72(r30)
	lwz r4,76(r30)
	addi r5,r1,56
	bl L__ZSt8_DestroyIP18tSimpleCallbackArgSaIS0_EEvT_S3_T0_$stub
	lwz r3,72(r30)
	cmpwi cr7,r3,0
	beq cr7,L1456
	bl L__ZdlPv$stub
	b L1456
	.p2align 4,,15
L1453:
	lwz r3,72(r30)
	lwz r4,76(r30)
	addi r5,r1,57
	bl L__ZSt8_DestroyIP18tSimpleCallbackArgSaIS0_EEvT_S3_T0_$stub
	lwz r3,72(r30)
	cmpwi cr7,r3,0
	beq cr7,L1458
	bl L__ZdlPv$stub
L1458:
	addi r29,r30,32
	addi r5,r1,59
	lwz r3,4(r29)
	lwz r4,8(r29)
	bl L__ZSt8_DestroyIPSt4pairIfS0_IfiEESaIS2_EEvT_S5_T0_$stub
	lwz r3,4(r29)
	cmpwi cr7,r3,0
	bne cr7,L1460
	b L1461
L1470:
L1456:
L1462:
	addi r29,r30,32
	addi r5,r1,58
	lwz r3,4(r29)
	lwz r4,8(r29)
	bl L__ZSt8_DestroyIPSt4pairIfS0_IfiEESaIS2_EEvT_S5_T0_$stub
	lwz r3,4(r29)
	cmpwi cr7,r3,0
	beq cr7,L1463
	bl L__ZdlPv$stub
L1463:
L1466:
	mr r3,r30
	bl __ZN18CocoaViewInterfaceD2Ev
	mr r3,r28
LEHB71:
	bl L__Unwind_Resume$stub
LEHE71:
	.p2align 4,,15
L1460:
	bl L__ZdlPv$stub
L1461:
	mr r3,r30
	bl __ZN18CocoaViewInterfaceD2Ev
	addi r1,r1,96
	lwz r0,8(r1)
	lmw r28,-16(r1)
	mtlr r0
	blr
L1471:
	nop
LFE8443:
	.section __DATA,__gcc_except_tab
GCC_except_table25:
LLSDA8443:
	.byte	0xff
	.byte	0xff
	.byte	0x3
	.byte	0x27
	.set L$set$176,LEHB69-LFB8443
	.long L$set$176
	.set L$set$177,LEHE69-LEHB69
	.long L$set$177
	.set L$set$178,L1468-LFB8443
	.long L$set$178
	.byte	0x0
	.set L$set$179,LEHB70-LFB8443
	.long L$set$179
	.set L$set$180,LEHE70-LEHB70
	.long L$set$180
	.set L$set$181,L1469-LFB8443
	.long L$set$181
	.byte	0x0
	.set L$set$182,LEHB71-LFB8443
	.long L$set$182
	.set L$set$183,LEHE71-LEHB71
	.long L$set$183
	.long	0x0
	.byte	0x0
	.section __TEXT,__textcoal_nt,coalesced,pure_instructions
	.align 2
	.p2align 4,,15
	.globl __ZN17CocoaViewInstanceD0Ev
	.weak_definition __ZN17CocoaViewInstanceD0Ev
	.private_extern __ZN17CocoaViewInstanceD0Ev
__ZN17CocoaViewInstanceD0Ev:
LFB8444:
	mflr r0
LCFI357:
	stmw r28,-16(r1)
LCFI358:
	bcl 20,31,"L00000000064$pb"
"L00000000064$pb":
	stw r0,8(r1)
LCFI359:
	stwu r1,-96(r1)
LCFI360:
	mr r30,r3
	mflr r31
	addis r2,r31,ha16(__ZTV17CocoaViewInstance-"L00000000064$pb")
	la r2,lo16(__ZTV17CocoaViewInstance-"L00000000064$pb")(r2)
	addi r2,r2,8
	stw r2,0(r3)
	lwz r4,68(r3)
	cmpwi cr7,r4,0
	beq cr7,L1473
	addis r2,r31,ha16(L_kCFRunLoopCommonModes$non_lazy_ptr-"L00000000064$pb")
	lwz r3,56(r3)
	lwz r2,lo16(L_kCFRunLoopCommonModes$non_lazy_ptr-"L00000000064$pb")(r2)
	lwz r5,0(r2)
LEHB72:
	bl L_CFRunLoopRemoveSource$stub
	lwz r3,68(r30)
	bl L_CFRelease$stub
	li r0,0
	stw r0,68(r30)
L1473:
	lwz r3,60(r30)
	cmpwi cr7,r3,0
	beq cr7,L1475
	bl L_CFRunLoopTimerInvalidate$stub
	lwz r3,60(r30)
	bl L_CFRelease$stub
	li r0,0
	stw r0,60(r30)
L1475:
	lwz r3,12(r30)
	cmpwi cr7,r3,0
	beq cr7,L1477
	addis r4,r31,ha16(L_ZL27_OBJC_SELECTOR_REFERENCES_5-"L00000000064$pb")
	lwz r4,lo16(L_ZL27_OBJC_SELECTOR_REFERENCES_5-"L00000000064$pb")(r4)
	bla 0xfffeff00
LEHE72:
	li r0,0
	stw r0,12(r30)
	b L1477
L1497:
L1479:
	mr r28,r3
	addi r3,r30,84
	bl L_pthread_mutex_destroy$stub
	cmpwi cr7,r3,0
	beq+ cr7,L1484
	addis r3,r31,ha16(LC7-"L00000000064$pb")
	addis r4,r31,ha16(LC8-"L00000000064$pb")
	addis r6,r31,ha16(LC11-"L00000000064$pb")
	li r5,47
	la r3,lo16(LC7-"L00000000064$pb")(r3)
	la r4,lo16(LC8-"L00000000064$pb")(r4)
	la r6,lo16(LC11-"L00000000064$pb")(r6)
	bl L___eprintf$stub
	.p2align 4,,15
L1477:
	addi r3,r30,84
LEHB73:
	bl L_pthread_mutex_destroy$stub
	cmpwi cr7,r3,0
	beq+ cr7,L1482
	addis r3,r31,ha16(LC7-"L00000000064$pb")
	addis r4,r31,ha16(LC8-"L00000000064$pb")
	addis r6,r31,ha16(LC11-"L00000000064$pb")
	li r5,47
	la r3,lo16(LC7-"L00000000064$pb")(r3)
	la r4,lo16(LC8-"L00000000064$pb")(r4)
	la r6,lo16(LC11-"L00000000064$pb")(r6)
	bl L___eprintf$stub
LEHE73:
L1498:
	mr r28,r3
L1484:
	lwz r3,72(r30)
	lwz r4,76(r30)
	addi r5,r1,56
	bl L__ZSt8_DestroyIP18tSimpleCallbackArgSaIS0_EEvT_S3_T0_$stub
	lwz r3,72(r30)
	cmpwi cr7,r3,0
	beq cr7,L1485
	bl L__ZdlPv$stub
	b L1485
	.p2align 4,,15
L1482:
	lwz r3,72(r30)
	lwz r4,76(r30)
	addi r5,r1,57
	bl L__ZSt8_DestroyIP18tSimpleCallbackArgSaIS0_EEvT_S3_T0_$stub
	lwz r3,72(r30)
	cmpwi cr7,r3,0
	beq cr7,L1487
	bl L__ZdlPv$stub
L1487:
	addi r29,r30,32
	addi r5,r1,59
	lwz r3,4(r29)
	lwz r4,8(r29)
	bl L__ZSt8_DestroyIPSt4pairIfS0_IfiEESaIS2_EEvT_S5_T0_$stub
	lwz r3,4(r29)
	cmpwi cr7,r3,0
	bne cr7,L1489
	b L1490
L1499:
L1485:
L1491:
	addi r29,r30,32
	addi r5,r1,58
	lwz r3,4(r29)
	lwz r4,8(r29)
	bl L__ZSt8_DestroyIPSt4pairIfS0_IfiEESaIS2_EEvT_S5_T0_$stub
	lwz r3,4(r29)
	cmpwi cr7,r3,0
	beq cr7,L1492
	bl L__ZdlPv$stub
L1492:
L1495:
	mr r3,r30
	bl __ZN18CocoaViewInterfaceD2Ev
	mr r3,r28
LEHB74:
	bl L__Unwind_Resume$stub
LEHE74:
	.p2align 4,,15
L1489:
	bl L__ZdlPv$stub
L1500:
L1490:
	mr r3,r30
	bl __ZN18CocoaViewInterfaceD2Ev
	mr r3,r30
	bl L__ZdlPv$stub
	addi r1,r1,96
	lwz r0,8(r1)
	lmw r28,-16(r1)
	mtlr r0
	blr
LFE8444:
	.section __DATA,__gcc_except_tab
GCC_except_table26:
LLSDA8444:
	.byte	0xff
	.byte	0xff
	.byte	0x3
	.byte	0x27
	.set L$set$184,LEHB72-LFB8444
	.long L$set$184
	.set L$set$185,LEHE72-LEHB72
	.long L$set$185
	.set L$set$186,L1497-LFB8444
	.long L$set$186
	.byte	0x0
	.set L$set$187,LEHB73-LFB8444
	.long L$set$187
	.set L$set$188,LEHE73-LEHB73
	.long L$set$188
	.set L$set$189,L1498-LFB8444
	.long L$set$189
	.byte	0x0
	.set L$set$190,LEHB74-LFB8444
	.long L$set$190
	.set L$set$191,LEHE74-LEHB74
	.long L$set$191
	.long	0x0
	.byte	0x0
	.section __TEXT,__textcoal_nt,coalesced,pure_instructions
	.align 2
	.p2align 4,,15
	.globl __ZThn24_N5boost16exception_detail10clone_implINS0_10bad_alloc_EED0Ev
	.weak_definition __ZThn24_N5boost16exception_detail10clone_implINS0_10bad_alloc_EED0Ev
	.private_extern __ZThn24_N5boost16exception_detail10clone_implINS0_10bad_alloc_EED0Ev
__ZThn24_N5boost16exception_detail10clone_implINS0_10bad_alloc_EED0Ev:
LFB14286:
	addi r3,r3,-24
	b L__ZN5boost16exception_detail10clone_implINS0_10bad_alloc_EED0Ev$stub
LFE14286:
	.align 2
	.p2align 4,,15
	.globl __ZThn20_N5boost16exception_detail10clone_implINS0_10bad_alloc_EED0Ev
	.weak_definition __ZThn20_N5boost16exception_detail10clone_implINS0_10bad_alloc_EED0Ev
	.private_extern __ZThn20_N5boost16exception_detail10clone_implINS0_10bad_alloc_EED0Ev
__ZThn20_N5boost16exception_detail10clone_implINS0_10bad_alloc_EED0Ev:
LFB14287:
	addi r3,r3,-20
	b L__ZN5boost16exception_detail10clone_implINS0_10bad_alloc_EED0Ev$stub
LFE14287:
	.align 2
	.p2align 4,,15
	.globl __ZN5boost16exception_detail10clone_implINS0_10bad_alloc_EED0Ev
	.weak_definition __ZN5boost16exception_detail10clone_implINS0_10bad_alloc_EED0Ev
	.private_extern __ZN5boost16exception_detail10clone_implINS0_10bad_alloc_EED0Ev
__ZN5boost16exception_detail10clone_implINS0_10bad_alloc_EED0Ev:
LFB9811:
	mflr r0
LCFI361:
	bcl 20,31,"L00000000065$pb"
"L00000000065$pb":
	stmw r30,-8(r1)
LCFI362:
	mflr r31
	stw r0,8(r1)
LCFI363:
	stwu r1,-80(r1)
LCFI364:
	mr r30,r3
	addis r9,r31,ha16(__ZTVN5boost16exception_detail10clone_baseE-"L00000000065$pb")
	addis r2,r31,ha16(__ZTVN5boost16exception_detail10bad_alloc_E-"L00000000065$pb")
	la r9,lo16(__ZTVN5boost16exception_detail10clone_baseE-"L00000000065$pb")(r9)
	la r2,lo16(__ZTVN5boost16exception_detail10bad_alloc_E-"L00000000065$pb")(r2)
	addi r9,r9,8
	addi r0,r2,24
	addi r2,r2,8
	stw r9,24(r3)
	stw r2,0(r3)
	stw r0,20(r3)
	addi r3,r3,20
	bl L__ZNSt9bad_allocD2Ev$stub
	lwz r3,4(r30)
	addis r2,r31,ha16(L__ZTVN5boost9exceptionE$non_lazy_ptr-"L00000000065$pb")
	lwz r2,lo16(L__ZTVN5boost9exceptionE$non_lazy_ptr-"L00000000065$pb")(r2)
	cmpwi cr7,r3,0
	addi r2,r2,8
	stw r2,0(r30)
	beq cr7,L1503
	lwz r2,0(r3)
	lwz r0,16(r2)
	mtctr r0
	mr r12,r0
LEHB75:
	bctrl
LEHE75:
	cmpwi cr7,r3,0
	beq cr7,L1503
	li r0,0
	stw r0,4(r30)
	b L1503
L1509:
	cmpwi cr7,r4,-1
	beq cr7,L1506
LEHB76:
	bl L__Unwind_Resume$stub
L1506:
	bl L___cxa_call_unexpected$stub
LEHE76:
	.p2align 4,,15
L1503:
	addi r1,r1,80
	mr r3,r30
	lwz r0,8(r1)
	lmw r30,-8(r1)
	mtlr r0
	b L__ZdlPv$stub
LFE9811:
	.section __DATA,__gcc_except_tab
GCC_except_table27:
	.align 2
LLSDA9811:
	.byte	0xff
	.byte	0x0
	.byte	0x21
	.byte	0x3
	.byte	0x1a
	.set L$set$192,LEHB75-LFB9811
	.long L$set$192
	.set L$set$193,LEHE75-LEHB75
	.long L$set$193
	.set L$set$194,L1509-LFB9811
	.long L$set$194
	.byte	0x1
	.set L$set$195,LEHB76-LFB9811
	.long L$set$195
	.set L$set$196,LEHE76-LEHB76
	.long L$set$196
	.long	0x0
	.byte	0x0
	.byte	0x7f
	.byte	0x0
	.align 2
	.byte	0x0
	.section __TEXT,__textcoal_nt,coalesced,pure_instructions
	.align 2
	.p2align 4,,15
	.globl __ZN17CocoaViewInstance4drawER6CGRect
	.weak_definition __ZN17CocoaViewInstance4drawER6CGRect
	.private_extern __ZN17CocoaViewInstance4drawER6CGRect
__ZN17CocoaViewInstance4drawER6CGRect:
LFB8456:
	mflr r0
LCFI365:
	stfd f29,-24(r1)
LCFI366:
	stfd f30,-16(r1)
LCFI367:
	stmw r22,-64(r1)
LCFI368:
	stfd f31,-8(r1)
LCFI369:
	bcl 20,31,"L00000000066$pb"
"L00000000066$pb":
	stw r0,8(r1)
LCFI370:
	stwu r1,-224(r1)
LCFI371:
	li r0,0
	mflr r31
	mr r22,r3
	addis r4,r31,ha16(L_ZL28_OBJC_SELECTOR_REFERENCES_13-"L00000000066$pb")
	lwz r4,lo16(L_ZL28_OBJC_SELECTOR_REFERENCES_13-"L00000000066$pb")(r4)
	stw r0,116(r1)
	stw r0,96(r1)
	addi r5,r1,60
	addi r6,r1,64
	stw r0,100(r1)
	stw r0,104(r1)
	stw r0,108(r1)
	stw r0,112(r1)
	lwz r3,12(r3)
LEHB77:
	bla 0xfffeff00
	lwz r0,64(r1)
	cmpwi cr7,r0,0
	ble cr7,L1512
	li r30,0
	addi r27,r22,16
	addi r23,r1,68
	addi r24,r1,72
	addi r25,r1,96
	addi r26,r1,80
	.p2align 4,,15
L1514:
	li r28,1
	mr r3,r27
	mr r4,r23
	slwi r29,r30,4
	stw r28,68(r1)
	bl L__ZN5boost7polygon5deltaINS0_14rectangle_dataIfEEEENS_9enable_ifINS0_7gtl_andINS0_9y_r_deltaENS0_6gtl_ifINS0_20is_rectangle_conceptINS0_16geometry_conceptIT_E4typeEE4typeEE4typeEE4typeENS0_25rectangle_difference_typeISA_E4typeEE4typeERKSA_NS0_14orientation_2dE$stub
	lwz r9,60(r1)
	mr r3,r27
	mr r4,r24
	add r2,r29,r9
	lfsx f30,r29,r9
	lfs f0,12(r2)
	lfs f13,8(r2)
	lfs f12,4(r2)
	stw r28,72(r1)
	fsubs f1,f1,f0
	fadds f31,f30,f13
	fsubs f29,f1,f12
	bl L__ZN5boost7polygon5deltaINS0_14rectangle_dataIfEEEENS_9enable_ifINS0_7gtl_andINS0_9y_r_deltaENS0_6gtl_ifINS0_20is_rectangle_conceptINS0_16geometry_conceptIT_E4typeEE4typeEE4typeEE4typeENS0_25rectangle_difference_typeISA_E4typeEE4typeERKSA_NS0_14orientation_2dE$stub
	lwz r2,60(r1)
	fcmpu cr7,f30,f31
	add r2,r2,r29
	lfs f0,4(r2)
	fsubs f1,f1,f0
	bng cr7,L1515
	fmr f12,f31
	fmr f13,f30
	b L1518
	.p2align 4,,15
L1515:
	fmr f12,f30
	fmr f13,f31
L1518:
	fcmpu cr7,f29,f1
	fmr f0,f29
	bng cr7,L1522
	fmr f0,f1
	fmr f1,f29
L1522:
	stfs f12,80(r1)
	stfs f13,84(r1)
	mr r3,r25
	mr r4,r26
	stfs f0,88(r1)
	stfs f1,92(r1)
	bl L__ZN5boost7polygon9operatorspLIfNS0_14rectangle_dataIfEEEERNS_9enable_ifINS0_7gtl_andINS1_9y_ps90_peENS0_22is_polygon_90_set_typeIT0_E4typeEE4typeENS0_19polygon_90_set_dataIT_EEE4typeERSG_RKS9_$stub
	lwz r0,64(r1)
	addi r30,r30,1
	cmpw cr7,r0,r30
	bgt cr7,L1514
L1512:
	addis r3,r31,ha16(L_ZL24_OBJC_CLASS_REFERENCES_1-"L00000000066$pb")
	addis r4,r31,ha16(L_ZL28_OBJC_SELECTOR_REFERENCES_14-"L00000000066$pb")
	lwz r3,lo16(L_ZL24_OBJC_CLASS_REFERENCES_1-"L00000000066$pb")(r3)
	lwz r4,lo16(L_ZL28_OBJC_SELECTOR_REFERENCES_14-"L00000000066$pb")(r4)
	bla 0xfffeff00
	addis r4,r31,ha16(L_ZL28_OBJC_SELECTOR_REFERENCES_15-"L00000000066$pb")
	lwz r4,lo16(L_ZL28_OBJC_SELECTOR_REFERENCES_15-"L00000000066$pb")(r4)
	bla 0xfffeff00
	mr r29,r3
	bl L_CGContextSaveGState$stub
	li r0,1
	addi r3,r22,16
	addi r4,r1,76
	stw r0,76(r1)
	bl L__ZN5boost7polygon5deltaINS0_14rectangle_dataIfEEEENS_9enable_ifINS0_7gtl_andINS0_9y_r_deltaENS0_6gtl_ifINS0_20is_rectangle_conceptINS0_16geometry_conceptIT_E4typeEE4typeEE4typeEE4typeENS0_25rectangle_difference_typeISA_E4typeEE4typeERKSA_NS0_14orientation_2dE$stub
	addis r9,r31,ha16(LC13-"L00000000066$pb")
	addis r2,r31,ha16(LC12-"L00000000066$pb")
	li r0,0
	stfs f1,140(r1)
	mr r3,r29
	lfs f0,lo16(LC13-"L00000000066$pb")(r9)
	lfs f13,lo16(LC12-"L00000000066$pb")(r2)
	stw r0,136(r1)
	stw r0,124(r1)
	stw r0,128(r1)
	stfs f13,120(r1)
	stfs f0,132(r1)
	lwz r9,140(r1)
	lwz r8,136(r1)
	lwz r5,124(r1)
	lwz r6,128(r1)
	lwz r4,120(r1)
	lwz r7,132(r1)
	bl L_CGContextConcatCTM$stub
	addi r30,r1,80
	mr r4,r29
	mr r3,r30
	bl L__ZN8Fielding14GContextQuartzC1EP9CGContext$stub
	lwz r3,8(r22)
	mr r4,r30
	addi r5,r1,96
	lwz r2,0(r3)
	lwz r0,16(r2)
	mtctr r0
	mr r12,r0
	bctrl
	mr r3,r29
	bl L_CGContextRestoreGState$stub
LEHE77:
	b L1533
L1530:
L1524:
	mr r30,r3
	lwz r4,104(r1)
	lwz r3,100(r1)
	addi r5,r1,56
	bl L__ZSt8_DestroyIPSt4pairIfS0_IfiEESaIS2_EEvT_S5_T0_$stub
	lwz r3,100(r1)
	cmpwi cr7,r3,0
	beq cr7,L1525
	bl L__ZdlPv$stub
L1525:
	mr r3,r30
LEHB78:
	bl L__Unwind_Resume$stub
LEHE78:
L1533:
	lwz r3,100(r1)
	lwz r4,104(r1)
	addi r5,r1,57
	bl L__ZSt8_DestroyIPSt4pairIfS0_IfiEESaIS2_EEvT_S5_T0_$stub
	lwz r3,100(r1)
	cmpwi cr7,r3,0
	beq cr7,L1529
	bl L__ZdlPv$stub
L1529:
	addi r1,r1,224
	lwz r0,8(r1)
	lfd f29,-24(r1)
	lmw r22,-64(r1)
	lfd f30,-16(r1)
	lfd f31,-8(r1)
	mtlr r0
	blr
LFE8456:
	.section __DATA,__gcc_except_tab
GCC_except_table28:
LLSDA8456:
	.byte	0xff
	.byte	0xff
	.byte	0x3
	.byte	0x1a
	.set L$set$197,LEHB77-LFB8456
	.long L$set$197
	.set L$set$198,LEHE77-LEHB77
	.long L$set$198
	.set L$set$199,L1530-LFB8456
	.long L$set$199
	.byte	0x0
	.set L$set$200,LEHB78-LFB8456
	.long L$set$200
	.set L$set$201,LEHE78-LEHB78
	.long L$set$201
	.long	0x0
	.byte	0x0
	.section __TEXT,__textcoal_nt,coalesced,pure_instructions
	.align 2
	.p2align 4,,15
	.globl __ZThn28_N5boost16exception_detail10clone_implINS0_19error_info_injectorINS_10lock_errorEEEED0Ev
	.weak_definition __ZThn28_N5boost16exception_detail10clone_implINS0_19error_info_injectorINS_10lock_errorEEEED0Ev
	.private_extern __ZThn28_N5boost16exception_detail10clone_implINS0_19error_info_injectorINS_10lock_errorEEEED0Ev
__ZThn28_N5boost16exception_detail10clone_implINS0_19error_info_injectorINS_10lock_errorEEEED0Ev:
LFB14288:
	addi r3,r3,-28
	b L__ZN5boost16exception_detail10clone_implINS0_19error_info_injectorINS_10lock_errorEEEED0Ev$stub
LFE14288:
	.align 2
	.p2align 4,,15
	.globl __ZThn8_N5boost16exception_detail10clone_implINS0_19error_info_injectorINS_10lock_errorEEEED0Ev
	.weak_definition __ZThn8_N5boost16exception_detail10clone_implINS0_19error_info_injectorINS_10lock_errorEEEED0Ev
	.private_extern __ZThn8_N5boost16exception_detail10clone_implINS0_19error_info_injectorINS_10lock_errorEEEED0Ev
__ZThn8_N5boost16exception_detail10clone_implINS0_19error_info_injectorINS_10lock_errorEEEED0Ev:
LFB14289:
	addi r3,r3,-8
	b L__ZN5boost16exception_detail10clone_implINS0_19error_info_injectorINS_10lock_errorEEEED0Ev$stub
LFE14289:
	.align 2
	.p2align 4,,15
	.globl __ZN5boost16exception_detail10clone_implINS0_19error_info_injectorINS_10lock_errorEEEED0Ev
	.weak_definition __ZN5boost16exception_detail10clone_implINS0_19error_info_injectorINS_10lock_errorEEEED0Ev
	.private_extern __ZN5boost16exception_detail10clone_implINS0_19error_info_injectorINS_10lock_errorEEEED0Ev
__ZN5boost16exception_detail10clone_implINS0_19error_info_injectorINS_10lock_errorEEEED0Ev:
LFB9640:
	mflr r0
LCFI372:
	bcl 20,31,"L00000000067$pb"
"L00000000067$pb":
	stmw r29,-12(r1)
LCFI373:
	mflr r31
	stw r0,8(r1)
LCFI374:
	stwu r1,-80(r1)
LCFI375:
	addi r29,r3,8
	addis r2,r31,ha16(__ZTVN5boost16exception_detail10clone_baseE-"L00000000067$pb")
	addis r9,r31,ha16(__ZTVN5boost16exception_detail19error_info_injectorINS_10lock_errorEEE-"L00000000067$pb")
	mr r30,r3
	la r2,lo16(__ZTVN5boost16exception_detail10clone_baseE-"L00000000067$pb")(r2)
	la r9,lo16(__ZTVN5boost16exception_detail19error_info_injectorINS_10lock_errorEEE-"L00000000067$pb")(r9)
	addi r2,r2,8
	addi r0,r9,8
	addi r9,r9,28
	stw r2,28(r3)
	addis r2,r31,ha16(L__ZTVN5boost9exceptionE$non_lazy_ptr-"L00000000067$pb")
	stw r0,0(r3)
	stw r9,8(r3)
	lwz r2,lo16(L__ZTVN5boost9exceptionE$non_lazy_ptr-"L00000000067$pb")(r2)
	addi r2,r2,8
	stw r2,8(r3)
	lwz r3,4(r29)
	cmpwi cr7,r3,0
	beq cr7,L1536
	lwz r2,0(r3)
	lwz r0,16(r2)
	mtctr r0
	mr r12,r0
LEHB79:
	bctrl
LEHE79:
	cmpwi cr7,r3,0
	beq cr7,L1536
	li r0,0
	stw r0,4(r29)
	.p2align 4,,15
L1536:
	addis r2,r31,ha16(__ZTVN5boost16thread_exceptionE-"L00000000067$pb")
	mr r3,r30
	la r2,lo16(__ZTVN5boost16thread_exceptionE-"L00000000067$pb")(r2)
	addi r2,r2,8
	stw r2,0(r30)
	bl L__ZNSt9exceptionD2Ev$stub
	addi r1,r1,80
	mr r3,r30
	lwz r0,8(r1)
	lmw r29,-12(r1)
	mtlr r0
	b L__ZdlPv$stub
L1543:
	cmpwi cr7,r4,-1
	beq cr7,L1540
LEHB80:
	bl L__Unwind_Resume$stub
L1540:
	bl L___cxa_call_unexpected$stub
LEHE80:
LFE9640:
	.section __DATA,__gcc_except_tab
GCC_except_table29:
	.align 2
LLSDA9640:
	.byte	0xff
	.byte	0x0
	.byte	0x21
	.byte	0x3
	.byte	0x1a
	.set L$set$202,LEHB79-LFB9640
	.long L$set$202
	.set L$set$203,LEHE79-LEHB79
	.long L$set$203
	.set L$set$204,L1543-LFB9640
	.long L$set$204
	.byte	0x1
	.set L$set$205,LEHB80-LFB9640
	.long L$set$205
	.set L$set$206,LEHE80-LEHB80
	.long L$set$206
	.long	0x0
	.byte	0x0
	.byte	0x7f
	.byte	0x0
	.align 2
	.byte	0x0
	.section __TEXT,__textcoal_nt,coalesced,pure_instructions
	.text
	.align 2
	.p2align 4,,15
	.globl __ZN8Fielding13HostViewCocoa8setChildEPNS_4ViewE
	.private_extern __ZN8Fielding13HostViewCocoa8setChildEPNS_4ViewE
__ZN8Fielding13HostViewCocoa8setChildEPNS_4ViewE:
LFB8473:
	mflr r0
LCFI376:
	mfcr r2
LCFI377:
	stmw r22,-72(r1)
LCFI378:
	bl saveFP+56 ; save f28-f31
LCFI379:
	mr r27,r3
	bcl 20,31,"L00000000068$pb"
"L00000000068$pb":
	mr r25,r4
	mflr r31
	stw r2,4(r1)
LCFI380:
	stwu r1,-320(r1)
LCFI381:
	lwz r3,96(r3)
	cmpwi cr7,r3,0
	beq cr7,L1545
	lwz r30,8(r3)
	cmpw cr7,r30,r4
	beq cr7,L1610
	lwz r2,0(r3)
	lwz r0,4(r2)
	mtctr r0
	mr r12,r0
LEHB81:
	bctrl
	li r0,0
	mr r4,r30
	mr r3,r27
	li r5,0
	stw r0,96(r27)
	bl L__ZN8Fielding8HostView12setSuperViewEPNS_4ViewEPS0_$stub
L1545:
	cmpwi cr7,r25,0
	beq cr7,L1610
	addi r3,r1,100
	mr r4,r27
	mr r5,r25
	li r28,0
	bl L__ZN8Fielding8HostView11frameOfViewERKNS_4ViewE$stub
	li r3,128
	bl L__Znwm$stub
LEHE81:
	addis r2,r31,ha16(__ZTV17CocoaViewInstance-"L00000000068$pb")
	li r0,0
	lwz r24,100(r27)
	stw r27,4(r3)
	stw r25,8(r3)
	mr r30,r3
	stw r0,28(r3)
	stw r0,16(r3)
	stw r0,20(r3)
	stw r0,24(r3)
	stw r28,12(r3)
	la r2,lo16(__ZTV17CocoaViewInstance-"L00000000068$pb")(r2)
	addi r2,r2,8
	stw r2,0(r3)
	lfs f0,100(r1)
	stfs f0,16(r3)
	lfs f13,104(r1)
	stfs f13,20(r3)
	lfs f0,108(r1)
	stfs f0,24(r3)
	lfs f13,112(r1)
	stw r28,32(r3)
	stw r28,36(r3)
	stw r28,40(r3)
	stw r28,44(r3)
	stw r28,48(r3)
	stw r28,52(r3)
	stfs f13,28(r3)
LEHB82:
	bl L_CFRunLoopGetCurrent$stub
LEHE82:
	stw r3,56(r30)
	stw r28,60(r30)
	addi r23,r30,84
	li r4,0
	stw r28,64(r30)
	stw r28,72(r30)
	stw r28,76(r30)
	stw r28,80(r30)
	mr r3,r23
LEHB83:
	bl L_pthread_mutex_init$stub
LEHE83:
	mr. r26,r3
	beq cr0,L1550
	addis r2,r31,ha16(__ZTVN5boost16exception_detail19error_info_injectorINS_21thread_resource_errorEEE-"L00000000068$pb")
	addis r29,r31,ha16(__ZTVN5boost21thread_resource_errorE-"L00000000068$pb")
	stw r28,172(r1)
	stw r28,96(r1)
	stw r28,156(r1)
	stw r28,164(r1)
	stw r28,168(r1)
	la r2,lo16(__ZTVN5boost16exception_detail19error_info_injectorINS_21thread_resource_errorEEE-"L00000000068$pb")(r2)
	la r29,lo16(__ZTVN5boost21thread_resource_errorE-"L00000000068$pb")(r29)
	addis r9,r31,ha16(__ZTVN5boost16thread_exceptionE-"L00000000068$pb")
	addi r11,r2,28
	addi r27,r2,8
	addis r2,r31,ha16(L__ZTVN5boost9exceptionE$non_lazy_ptr-"L00000000068$pb")
	li r0,-1
	addi r29,r29,8
	la r9,lo16(__ZTVN5boost16thread_exceptionE-"L00000000068$pb")(r9)
	stw r11,160(r1)
	stw r27,152(r1)
	lwz r2,lo16(L__ZTVN5boost9exceptionE$non_lazy_ptr-"L00000000068$pb")(r2)
	stw r0,176(r1)
	li r3,32
	stw r29,92(r1)
	addi r25,r9,8
	addi r26,r2,8
	bl L___cxa_allocate_exception$stub
	lwz r0,156(r1)
	mr r28,r3
	lwz r3,164(r1)
	stw r29,0(r28)
	stw r26,8(r28)
	stw r0,4(r28)
	cmpwi cr7,r3,0
	stw r3,12(r28)
	beq cr7,L1552
	lwz r2,0(r3)
	lwz r0,12(r2)
	mtctr r0
	mr r12,r0
LEHB84:
	bctrl
LEHE84:
L1552:
	addis r2,r31,ha16(__ZTVN5boost16exception_detail10clone_implINS0_19error_info_injectorINS_21thread_resource_errorEEEEE-"L00000000068$pb")
	lwz r7,168(r1)
	lwz r8,172(r1)
	lwz r10,176(r1)
	addis r9,r31,ha16(__ZTVN5boost16exception_detail10clone_baseE-"L00000000068$pb")
	li r29,0
	la r2,lo16(__ZTVN5boost16exception_detail10clone_implINS0_19error_info_injectorINS_21thread_resource_errorEEEEE-"L00000000068$pb")(r2)
	la r9,lo16(__ZTVN5boost16exception_detail10clone_baseE-"L00000000068$pb")(r9)
	addi r0,r2,52
	addi r11,r2,8
	stw r7,16(r28)
	stw r8,20(r28)
	stw r10,24(r28)
	stw r0,28(r28)
	addi r2,r2,36
	stw r11,0(r28)
	stw r2,8(r28)
	addi r24,r9,8
	lwz r4,164(r1)
	cmpwi cr7,r4,0
	bne cr7,L1554
	mcrf cr4,cr7
	b L1555
L1619:
L1556:
	stw r25,0(r28)
	mr r22,r3
	mr r3,r28
	bl L__ZNSt9exceptionD2Ev$stub
	b L1579
	.p2align 4,,15
L1554:
	lwz r2,0(r4)
	addi r3,r1,88
	cmpwi cr4,r29,0
	lwz r0,20(r2)
	mtctr r0
	mr r12,r0
LEHB85:
	bctrl
LEHE85:
	lwz r29,88(r1)
	cmpwi cr4,r29,0
	beq cr4,L1555
	lwz r2,0(r29)
	mr r3,r29
	lwz r0,12(r2)
	mtctr r0
	mr r12,r0
LEHB86:
	bctrl
LEHE86:
	lwz r2,0(r29)
	mr r3,r29
	lwz r0,16(r2)
	mtctr r0
	mr r12,r0
LEHB87:
	bctrl
LEHE87:
	b L1555
L1617:
L1560:
	lwz r2,0(r29)
	mr r22,r3
	mr r3,r29
	lwz r0,16(r2)
	mtctr r0
	mr r12,r0
	bctrl
	b L1568
	.p2align 4,,15
L1555:
	lwz r3,12(r28)
	lwz r0,172(r1)
	lwz r2,176(r1)
	cmpwi cr7,r3,0
	stw r0,20(r28)
	lwz r0,168(r1)
	stw r2,24(r28)
	stw r0,16(r28)
	beq cr7,L1561
	lwz r2,0(r3)
	lwz r0,16(r2)
	mtctr r0
	mr r12,r0
LEHB88:
	bctrl
	cmpwi cr7,r3,0
	beq cr7,L1561
	li r0,0
	stw r0,12(r28)
	.p2align 4,,15
L1561:
	stw r29,12(r28)
	beq cr4,L1566
	lwz r2,0(r29)
	mr r3,r29
	lwz r0,12(r2)
	mtctr r0
	mr r12,r0
	bctrl
LEHE88:
	beq- cr4,L1566
	lwz r2,0(r29)
	mr r3,r29
	lwz r0,16(r2)
	mtctr r0
	mr r12,r0
LEHB89:
	bctrl
LEHE89:
	b L1566
L1618:
	mr r22,r3
L1568:
	beq cr4,L1571
	lwz r2,0(r29)
	mr r3,r29
	lwz r0,16(r2)
	mtctr r0
	mr r12,r0
	bctrl
	b L1571
L1620:
	mr r22,r3
L1571:
L1621:
L1573:
	stw r24,28(r28)
	stw r27,0(r28)
	addi r29,r28,8
	stw r26,8(r28)
	lwz r3,4(r29)
	cmpwi cr7,r3,0
	beq cr7,L1574
	lwz r2,0(r3)
	lwz r0,16(r2)
	mtctr r0
	mr r12,r0
LEHB90:
	bctrl
LEHE90:
	cmpwi cr7,r3,0
	beq cr7,L1574
	li r0,0
	stw r0,4(r29)
	b L1574
L1616:
	b L1633
L1578:
L1574:
	stw r25,0(r28)
	mr r3,r28
	bl L__ZNSt9exceptionD2Ev$stub
L1622:
L1579:
L1623:
L1580:
	mr r3,r28
	bl L___cxa_free_exception$stub
	lwz r3,164(r1)
	stw r27,152(r1)
	stw r26,160(r1)
	cmpwi cr7,r3,0
	beq cr7,L1581
	lwz r2,0(r3)
	lwz r0,16(r2)
	mtctr r0
	mr r12,r0
LEHB91:
	bctrl
LEHE91:
	cmpwi cr7,r3,0
	beq cr7,L1581
	li r0,0
	stw r0,164(r1)
L1581:
	addi r3,r1,152
	stw r25,152(r1)
	bl L__ZNSt9exceptionD2Ev$stub
	b L1591
L1615:
	b L1633
L1585:
	.p2align 4,,15
L1566:
	lwz r3,164(r1)
	stw r27,152(r1)
	stw r26,160(r1)
	cmpwi cr7,r3,0
	beq- cr7,L1586
	lwz r2,0(r3)
	lwz r0,16(r2)
	mtctr r0
	mr r12,r0
LEHB92:
	bctrl
LEHE92:
	cmpwi cr7,r3,0
	beq cr7,L1586
	li r0,0
	stw r0,164(r1)
L1586:
	addi r3,r1,152
	stw r25,152(r1)
	bl L__ZNSt9exceptionD2Ev$stub
	addis r4,r31,ha16(__ZTIN5boost16exception_detail10clone_implINS0_19error_info_injectorINS_21thread_resource_errorEEEEE-"L00000000068$pb")
	addis r5,r31,ha16(L__ZN5boost16exception_detail10clone_implINS0_19error_info_injectorINS_21thread_resource_errorEEEED1Ev$non_lazy_ptr-"L00000000068$pb")
	mr r3,r28
	la r4,lo16(__ZTIN5boost16exception_detail10clone_implINS0_19error_info_injectorINS_21thread_resource_errorEEEEE-"L00000000068$pb")(r4)
	lwz r5,lo16(L__ZN5boost16exception_detail10clone_implINS0_19error_info_injectorINS_21thread_resource_errorEEEED1Ev$non_lazy_ptr-"L00000000068$pb")(r5)
LEHB93:
	bl L___cxa_throw$stub
LEHE93:
L1614:
L1633:
	cmpwi cr7,r4,-1
	bne cr7,L1631
L1590:
LEHB94:
	bl L___cxa_call_unexpected$stub
LEHE94:
L1624:
	mr r22,r3
L1591:
	addi r3,r1,92
	stw r25,92(r1)
	bl L__ZNSt9exceptionD2Ev$stub
	b L1598
	.p2align 4,,15
L1550:
	addi r22,r1,132
	addis r5,r31,ha16(L_ZL27_OBJC_SELECTOR_REFERENCES_0-"L00000000068$pb")
	mr r4,r24
	mr r3,r22
	lwz r5,lo16(L_ZL27_OBJC_SELECTOR_REFERENCES_0-"L00000000068$pb")(r5)
LEHB95:
	bl L_objc_msgSend_stret$stub
	addi r29,r30,16
	li r28,1
	mr r3,r29
	bl L__ZN5boost7polygon2xlINS0_14rectangle_dataIfEEEENS_9enable_ifINS0_7gtl_andINS0_6y_r_xlENS0_6gtl_ifINS0_20is_rectangle_conceptINS0_16geometry_conceptIT_E4typeEE4typeEE4typeEE4typeENS0_25rectangle_coordinate_typeISA_E4typeEE4typeERKSA_$stub
	lfs f31,144(r1)
	mr r3,r29
	addi r4,r1,76
	fmr f28,f1
	stw r28,76(r1)
	bl L__ZN5boost7polygon5deltaINS0_14rectangle_dataIfEEEENS_9enable_ifINS0_7gtl_andINS0_9y_r_deltaENS0_6gtl_ifINS0_20is_rectangle_conceptINS0_16geometry_conceptIT_E4typeEE4typeEE4typeEE4typeENS0_25rectangle_difference_typeISA_E4typeEE4typeERKSA_NS0_14orientation_2dE$stub
	mr r3,r29
	addi r4,r1,80
	stw r26,80(r1)
	fsubs f29,f31,f1
	bl L__ZN5boost7polygon5deltaINS0_14rectangle_dataIfEEEENS_9enable_ifINS0_7gtl_andINS0_9y_r_deltaENS0_6gtl_ifINS0_20is_rectangle_conceptINS0_16geometry_conceptIT_E4typeEE4typeEE4typeEE4typeENS0_25rectangle_difference_typeISA_E4typeEE4typeERKSA_NS0_14orientation_2dE$stub
	mr r3,r29
	addi r4,r1,84
	stw r28,84(r1)
	fmr f30,f1
	bl L__ZN5boost7polygon5deltaINS0_14rectangle_dataIfEEEENS_9enable_ifINS0_7gtl_andINS0_9y_r_deltaENS0_6gtl_ifINS0_20is_rectangle_conceptINS0_16geometry_conceptIT_E4typeEE4typeEE4typeEE4typeENS0_25rectangle_difference_typeISA_E4typeEE4typeERKSA_NS0_14orientation_2dE$stub
	addis r3,r31,ha16(L_ZL24_OBJC_CLASS_REFERENCES_0-"L00000000068$pb")
	addis r4,r31,ha16(L_ZL27_OBJC_SELECTOR_REFERENCES_1-"L00000000068$pb")
	fmr f31,f1
	lwz r3,lo16(L_ZL24_OBJC_CLASS_REFERENCES_0-"L00000000068$pb")(r3)
	lwz r4,lo16(L_ZL27_OBJC_SELECTOR_REFERENCES_1-"L00000000068$pb")(r4)
	bla 0xfffeff00
	stfs f31,128(r1)
	stfs f30,124(r1)
	addis r4,r31,ha16(L_ZL27_OBJC_SELECTOR_REFERENCES_2-"L00000000068$pb")
	mr r9,r30
	stfs f29,120(r1)
	stfs f28,116(r1)
	lwz r4,lo16(L_ZL27_OBJC_SELECTOR_REFERENCES_2-"L00000000068$pb")(r4)
	lwz r8,128(r1)
	lwz r7,124(r1)
	lwz r6,120(r1)
	lwz r5,116(r1)
	bla 0xfffeff00
	stw r3,12(r30)
	addis r4,r31,ha16(L_ZL27_OBJC_SELECTOR_REFERENCES_3-"L00000000068$pb")
	mr r5,r3
	mr r3,r24
	lwz r4,lo16(L_ZL27_OBJC_SELECTOR_REFERENCES_3-"L00000000068$pb")(r4)
	bla 0xfffeff00
	addis r4,r31,ha16(L_ZL27_OBJC_SELECTOR_REFERENCES_4-"L00000000068$pb")
	lwz r3,12(r30)
	lwz r4,lo16(L_ZL27_OBJC_SELECTOR_REFERENCES_4-"L00000000068$pb")(r4)
	bla 0xfffeff00
	addi r29,r1,180
	li r4,0
	li r5,40
	mr r3,r29
	bl L_memset$stub
	addis r2,r31,ha16(L_kCFAllocatorDefault$non_lazy_ptr-"L00000000068$pb")
	addis r9,r31,ha16(L__ZN17CocoaViewInstance17runLoopFireStaticEPv$non_lazy_ptr-"L00000000068$pb")
	stw r30,184(r1)
	mr r5,r29
	lwz r2,lo16(L_kCFAllocatorDefault$non_lazy_ptr-"L00000000068$pb")(r2)
	lwz r9,lo16(L__ZN17CocoaViewInstance17runLoopFireStaticEPv$non_lazy_ptr-"L00000000068$pb")(r9)
	li r4,0
	lwz r29,0(r2)
	stw r9,216(r1)
	mr r3,r29
	bl L_CFRunLoopSourceCreate$stub
	cmpwi cr7,r3,0
	stw r3,68(r30)
	beq cr7,L1593
	addis r2,r31,ha16(L_kCFRunLoopCommonModes$non_lazy_ptr-"L00000000068$pb")
	mr r4,r3
	lwz r3,56(r30)
	lwz r2,lo16(L_kCFRunLoopCommonModes$non_lazy_ptr-"L00000000068$pb")(r2)
	lwz r5,0(r2)
	bl L_CFRunLoopAddSource$stub
LEHE95:
	b L1593
L1625:
L1595:
	mr r22,r3
	mr r3,r23
	bl L_pthread_mutex_destroy$stub
	cmpwi cr7,r3,0
	beq+ cr7,L1598
	addis r3,r31,ha16(LC7-"L00000000068$pb")
	addis r4,r31,ha16(LC8-"L00000000068$pb")
	addis r6,r31,ha16(LC11-"L00000000068$pb")
	li r5,47
	la r3,lo16(LC7-"L00000000068$pb")(r3)
	la r4,lo16(LC8-"L00000000068$pb")(r4)
	la r6,lo16(LC11-"L00000000068$pb")(r6)
	bl L___eprintf$stub
L1626:
	mr r22,r3
L1598:
	lwz r3,72(r30)
	lwz r4,76(r30)
	addi r5,r1,72
	bl L__ZSt8_DestroyIP18tSimpleCallbackArgSaIS0_EEvT_S3_T0_$stub
	lwz r3,72(r30)
	cmpwi cr7,r3,0
	beq cr7,L1601
	bl L__ZdlPv$stub
	b L1601
L1627:
	mr r22,r3
L1601:
	addi r29,r30,32
	addi r5,r1,73
	lwz r3,4(r29)
	lwz r4,8(r29)
	bl L__ZSt8_DestroyIPSt4pairIfS0_IfiEESaIS2_EEvT_S5_T0_$stub
	lwz r3,4(r29)
	cmpwi cr7,r3,0
	beq cr7,L1602
	bl L__ZdlPv$stub
L1602:
L1628:
L1604:
L1629:
L1605:
	mr r3,r30
	bl __ZN18CocoaViewInterfaceD2Ev
	mr r3,r30
	bl L__ZdlPv$stub
	mr r3,r22
L1631:
LEHB96:
	bl L__Unwind_Resume$stub
	.p2align 4,,15
L1593:
	stw r30,96(r27)
	lfd f31,108(r27)
	lwz r3,60(r30)
	cmpwi cr7,r3,0
	beq cr7,L1606
	bl L_CFRunLoopTimerInvalidate$stub
	lwz r3,60(r30)
	bl L_CFRelease$stub
	li r0,0
	stw r0,60(r30)
L1606:
	li r0,0
	stw r30,136(r1)
	stw r0,148(r1)
	stw r0,132(r1)
	stw r0,140(r1)
	stw r0,144(r1)
	bl L_CFAbsoluteTimeGetCurrent$stub
	fmr f2,f31
	stw r22,56(r1)
	fadd f1,f31,f1
	addis r10,r31,ha16(L__ZN17CocoaViewInstance18EventLoopTimerProcEP16__CFRunLoopTimerPv$non_lazy_ptr-"L00000000068$pb")
	mr r3,r29
	li r8,0
	lwz r10,lo16(L__ZN17CocoaViewInstance18EventLoopTimerProcEP16__CFRunLoopTimerPv$non_lazy_ptr-"L00000000068$pb")(r10)
	li r9,0
	bl L_CFRunLoopTimerCreate$stub
	cmpwi cr7,r3,0
	mr r4,r3
	stw r3,60(r30)
	beq cr7,L1608
	addis r2,r31,ha16(L_kCFRunLoopCommonModes$non_lazy_ptr-"L00000000068$pb")
	lwz r3,56(r30)
	lwz r2,lo16(L_kCFRunLoopCommonModes$non_lazy_ptr-"L00000000068$pb")(r2)
	lwz r5,0(r2)
	bl L_CFRunLoopAddTimer$stub
L1608:
	mr r3,r27
	mr r4,r25
	mr r5,r27
	bl L__ZN8Fielding8HostView12setSuperViewEPNS_4ViewEPS0_$stub
LEHE96:
L1610:
	addi r1,r1,320
	lwz r11,4(r1)
	lwz r0,8(r1)
	lmw r22,-72(r1)
	mtlr r0
	mtcrf 8,r11
	b restFP+56 ; restore f28-f31
LFE8473:
	.section __DATA,__gcc_except_tab
GCC_except_table30:
	.align 2
LLSDA8473:
	.byte	0xff
	.byte	0x0
	.byte	0xd8,0x1
	.byte	0x3
	.byte	0xd0,0x1
	.set L$set$207,LEHB81-LFB8473
	.long L$set$207
	.set L$set$208,LEHE81-LEHB81
	.long L$set$208
	.long	0x0
	.byte	0x0
	.set L$set$209,LEHB82-LFB8473
	.long L$set$209
	.set L$set$210,LEHE82-LEHB82
	.long L$set$210
	.set L$set$211,L1627-LFB8473
	.long L$set$211
	.byte	0x0
	.set L$set$212,LEHB83-LFB8473
	.long L$set$212
	.set L$set$213,LEHE83-LEHB83
	.long L$set$213
	.set L$set$214,L1626-LFB8473
	.long L$set$214
	.byte	0x0
	.set L$set$215,LEHB84-LFB8473
	.long L$set$215
	.set L$set$216,LEHE84-LEHB84
	.long L$set$216
	.set L$set$217,L1619-LFB8473
	.long L$set$217
	.byte	0x0
	.set L$set$218,LEHB85-LFB8473
	.long L$set$218
	.set L$set$219,LEHE85-LEHB85
	.long L$set$219
	.set L$set$220,L1618-LFB8473
	.long L$set$220
	.byte	0x0
	.set L$set$221,LEHB86-LFB8473
	.long L$set$221
	.set L$set$222,LEHE86-LEHB86
	.long L$set$222
	.set L$set$223,L1617-LFB8473
	.long L$set$223
	.byte	0x0
	.set L$set$224,LEHB87-LFB8473
	.long L$set$224
	.set L$set$225,LEHE87-LEHB87
	.long L$set$225
	.set L$set$226,L1618-LFB8473
	.long L$set$226
	.byte	0x0
	.set L$set$227,LEHB88-LFB8473
	.long L$set$227
	.set L$set$228,LEHE88-LEHB88
	.long L$set$228
	.set L$set$229,L1618-LFB8473
	.long L$set$229
	.byte	0x0
	.set L$set$230,LEHB89-LFB8473
	.long L$set$230
	.set L$set$231,LEHE89-LEHB89
	.long L$set$231
	.set L$set$232,L1620-LFB8473
	.long L$set$232
	.byte	0x0
	.set L$set$233,LEHB90-LFB8473
	.long L$set$233
	.set L$set$234,LEHE90-LEHB90
	.long L$set$234
	.set L$set$235,L1616-LFB8473
	.long L$set$235
	.byte	0x1
	.set L$set$236,LEHB91-LFB8473
	.long L$set$236
	.set L$set$237,LEHE91-LEHB91
	.long L$set$237
	.set L$set$238,L1615-LFB8473
	.long L$set$238
	.byte	0x1
	.set L$set$239,LEHB92-LFB8473
	.long L$set$239
	.set L$set$240,LEHE92-LEHB92
	.long L$set$240
	.set L$set$241,L1614-LFB8473
	.long L$set$241
	.byte	0x1
	.set L$set$242,LEHB93-LFB8473
	.long L$set$242
	.set L$set$243,LEHE93-LEHB93
	.long L$set$243
	.set L$set$244,L1624-LFB8473
	.long L$set$244
	.byte	0x0
	.set L$set$245,LEHB94-LFB8473
	.long L$set$245
	.set L$set$246,LEHE94-LEHB94
	.long L$set$246
	.long	0x0
	.byte	0x0
	.set L$set$247,LEHB95-LFB8473
	.long L$set$247
	.set L$set$248,LEHE95-LEHB95
	.long L$set$248
	.set L$set$249,L1625-LFB8473
	.long L$set$249
	.byte	0x0
	.set L$set$250,LEHB96-LFB8473
	.long L$set$250
	.set L$set$251,LEHE96-LEHB96
	.long L$set$251
	.long	0x0
	.byte	0x0
	.byte	0x7f
	.byte	0x0
	.align 2
	.byte	0x0
	.text
	.cstring
	.align 2
LC14:
	.ascii "/Developer/SDKs/MacOSX10.4u.modified.sdk/usr/include/boost/exception/detail/exception_ptr.hpp\0"
	.section __TEXT,__textcoal_nt,coalesced,pure_instructions
	.align 2
	.p2align 4,,15
	.globl __ZN5boost16exception_detail27get_static_exception_objectINS0_10bad_alloc_EEENS_13exception_ptrEv
	.weak_definition __ZN5boost16exception_detail27get_static_exception_objectINS0_10bad_alloc_EEENS_13exception_ptrEv
	.private_extern __ZN5boost16exception_detail27get_static_exception_objectINS0_10bad_alloc_EEENS_13exception_ptrEv
__ZN5boost16exception_detail27get_static_exception_objectINS0_10bad_alloc_EEENS_13exception_ptrEv:
LFB9010:
L1710:
L1642:
L1711:
L1650:
L1712:
L1653:
L1713:
L1655:
L1709:
L1659:
	mflr r0
LCFI382:
	li r10,-1
	bcl 20,31,"L00000000069$pb"
"L00000000069$pb":
	stmw r19,-52(r1)
LCFI383:
	mflr r31
	stw r0,8(r1)
LCFI384:
	stwu r1,-208(r1)
LCFI385:
	li r0,0
	addis r9,r31,ha16(__ZTVN5boost16exception_detail10bad_alloc_E-"L00000000069$pb")
	addis r2,r31,ha16(__ZTVN5boost16exception_detail10clone_implINS0_10bad_alloc_EEE-"L00000000069$pb")
	addis r11,r31,ha16(__ZTVN5boost16exception_detail10clone_baseE-"L00000000069$pb")
	la r9,lo16(__ZTVN5boost16exception_detail10bad_alloc_E-"L00000000069$pb")(r9)
	mr r24,r3
	la r2,lo16(__ZTVN5boost16exception_detail10clone_implINS0_10bad_alloc_EEE-"L00000000069$pb")(r2)
	la r11,lo16(__ZTVN5boost16exception_detail10clone_baseE-"L00000000069$pb")(r11)
	addi r22,r9,24
	addi r23,r9,8
	addis r9,r31,ha16(L__ZTVN5boost9exceptionE$non_lazy_ptr-"L00000000069$pb")
	addi r27,r2,52
	addi r30,r2,8
	addi r28,r2,32
	lwz r9,lo16(L__ZTVN5boost9exceptionE$non_lazy_ptr-"L00000000069$pb")(r9)
	addis r2,r31,ha16(__ZZN5boost16exception_detail27get_static_exception_objectINS0_10bad_alloc_EEENS_13exception_ptrEvE19__PRETTY_FUNCTION__-"L00000000069$pb")
	addi r20,r11,8
	la r2,lo16(__ZZN5boost16exception_detail27get_static_exception_objectINS0_10bad_alloc_EEENS_13exception_ptrEvE19__PRETTY_FUNCTION__-"L00000000069$pb")(r2)
	addi r4,r1,64
	addi r3,r1,96
	stw r10,112(r1)
	stw r10,88(r1)
	stw r0,100(r1)
	stw r0,76(r1)
	stw r0,80(r1)
	stw r0,84(r1)
	stw r0,108(r1)
	stw r0,104(r1)
	stw r2,64(r1)
	stw r23,72(r1)
	stw r22,92(r1)
	stw r30,96(r1)
	stw r28,116(r1)
	stw r27,120(r1)
	addi r21,r9,8
	bl L__ZN5boost16exception_detail8set_infoINS0_10clone_implINS0_10bad_alloc_EEEEERKT_S7_RKNS_10error_infoINS_15throw_function_EPKcEE$stub
	addis r2,r31,ha16(LC14-"L00000000069$pb")
	addi r4,r1,60
	la r2,lo16(LC14-"L00000000069$pb")(r2)
	stw r2,60(r1)
	bl L__ZN5boost16exception_detail8set_infoINS0_10clone_implINS0_10bad_alloc_EEEEERKT_S7_RKNS_10error_infoINS_11throw_file_EPKcEE$stub
	li r0,124
	addi r4,r1,56
	stw r0,56(r1)
	bl L__ZN5boost16exception_detail8set_infoINS0_10clone_implINS0_10bad_alloc_EEEEERKT_S7_RKNS_10error_infoINS_11throw_line_EiEE$stub
	addis r2,r31,ha16(__ZGVZN5boost16exception_detail27get_static_exception_objectINS0_10bad_alloc_EEENS_13exception_ptrEvE2ep-"L00000000069$pb")
	la r25,lo16(__ZGVZN5boost16exception_detail27get_static_exception_objectINS0_10bad_alloc_EEENS_13exception_ptrEvE2ep-"L00000000069$pb")(r2)
	mr r3,r25
	bl L___cxa_guard_acquire$stub
	cmpwi cr7,r3,0
	beq cr7,L1719
	li r19,0
	li r3,28
LEHB97:
	bl L__Znwm$stub
LEHE97:
	mr r29,r3
	lwz r3,100(r1)
	stw r21,0(r29)
	cmpwi cr7,r3,0
	stw r3,4(r29)
	beq cr7,L1662
	lwz r2,0(r3)
	lwz r0,12(r2)
	mtctr r0
	mr r12,r0
LEHB98:
	bctrl
LEHE98:
L1662:
	lwz r0,104(r1)
	lwz r2,108(r1)
	li r3,16
	stw r27,24(r29)
	stw r30,0(r29)
	addi r27,r29,24
	stw r28,20(r29)
	stw r0,8(r29)
	lwz r0,112(r1)
	stw r2,12(r29)
	stw r0,16(r29)
LEHB99:
	bl L__Znwm$stub
LEHE99:
	b L1727
L1714:
L1665:
	mr r30,r3
	mr r3,r29
	bl L__ZdlPv$stub
	b L1671
L1727:
	addis r2,r31,ha16(__ZTVN5boost6detail17sp_counted_impl_pINS_16exception_detail10clone_implINS2_10bad_alloc_EEEEE-"L00000000069$pb")
	li r0,1
	stw r29,12(r3)
	addis r28,r31,ha16(__ZZN5boost16exception_detail27get_static_exception_objectINS0_10bad_alloc_EEENS_13exception_ptrEvE2ep-"L00000000069$pb")
	la r2,lo16(__ZTVN5boost6detail17sp_counted_impl_pINS_16exception_detail10clone_implINS2_10bad_alloc_EEEEE-"L00000000069$pb")(r2)
	stw r0,8(r3)
	stw r0,4(r3)
	addi r2,r2,8
	mr r30,r3
	la r26,lo16(__ZZN5boost16exception_detail27get_static_exception_objectINS0_10bad_alloc_EEENS_13exception_ptrEvE2ep-"L00000000069$pb")(r28)
	li r19,1
	stw r2,0(r3)
	mr r3,r25
	stw r27,lo16(__ZZN5boost16exception_detail27get_static_exception_objectINS0_10bad_alloc_EEENS_13exception_ptrEvE2ep-"L00000000069$pb")(r28)
	addi r29,r30,4
	stw r30,4(r26)
	0:
	lwarx r2, 0, r29
	addi r2, r2, 1
	stwcx. r2, 0, r29
	bne- 0b
	bl L___cxa_guard_release$stub
	addis r5,r31,ha16(L___dso_handle$non_lazy_ptr-"L00000000069$pb")
	addis r3,r31,ha16(___tcf_0-"L00000000069$pb")
	li r4,0
	lwz r5,lo16(L___dso_handle$non_lazy_ptr-"L00000000069$pb")(r5)
	la r3,lo16(___tcf_0-"L00000000069$pb")(r3)
	bl L___cxa_atexit$stub
	sync
	0:
	lwarx r2, 0, r29
	addi r2, r2, -1
	stwcx. r2, 0, r29
	bne- 0b
	isync
	cmpwi cr7,r2,0
	bne cr7,L1660
	b L1728
L1708:
L1667:
	bl L___cxa_begin_catch$stub
	lwz r2,0(r29)
	mr r3,r29
	lwz r0,4(r2)
	mtctr r0
	mr r12,r0
	bctrl
LEHB100:
	bl L___cxa_rethrow$stub
LEHE100:
L1707:
L1669:
	mr r30,r3
	bl L___cxa_end_catch$stub
	b L1671
L1728:
	lwz r2,0(r30)
	mr r3,r30
	lwz r0,8(r2)
	mtctr r0
	mr r12,r0
LEHB101:
	bctrl
	addi r2,r30,8
	sync
	0:
	lwarx r9, 0, r2
	addi r9, r9, -1
	stwcx. r9, 0, r2
	bne- 0b
	isync
	cmpwi cr7,r9,0
	bne cr7,L1660
	lwz r2,0(r30)
	mr r3,r30
	lwz r0,12(r2)
	mtctr r0
	mr r12,r0
	bctrl
LEHE101:
	b L1660
L1715:
	mr r30,r3
L1671:
	cmpwi cr7,r19,0
	bne cr7,L1672
	mr r3,r25
	bl L___cxa_guard_abort$stub
	b L1672
	.p2align 4,,15
L1719:
	addis r28,r31,ha16(__ZZN5boost16exception_detail27get_static_exception_objectINS0_10bad_alloc_EEENS_13exception_ptrEvE2ep-"L00000000069$pb")
	la r26,lo16(__ZZN5boost16exception_detail27get_static_exception_objectINS0_10bad_alloc_EEENS_13exception_ptrEvE2ep-"L00000000069$pb")(r28)
L1660:
	lwz r2,4(r26)
	lwz r0,lo16(__ZZN5boost16exception_detail27get_static_exception_objectINS0_10bad_alloc_EEENS_13exception_ptrEvE2ep-"L00000000069$pb")(r28)
	cmpwi cr7,r2,0
	stw r0,0(r24)
	stw r2,4(r24)
	beq cr7,L1674
	addi r2,r2,4
	0:
	lwarx r9, 0, r2
	addi r9, r9, 1
	stwcx. r9, 0, r2
	bne- 0b
	b L1674
L1716:
L1672:
L1676:
	addi r3,r1,116
	stw r20,120(r1)
	stw r23,96(r1)
	stw r22,116(r1)
	bl L__ZNSt9bad_allocD2Ev$stub
	lwz r3,100(r1)
	stw r21,96(r1)
	cmpwi cr7,r3,0
	beq cr7,L1678
	lwz r2,0(r3)
	lwz r0,16(r2)
	mtctr r0
	mr r12,r0
LEHB102:
	bctrl
LEHE102:
	cmpwi cr7,r3,0
	beq cr7,L1678
	li r0,0
	stw r0,100(r1)
	b L1678
L1706:
	b L1724
L1681:
	.p2align 4,,15
L1674:
	addi r3,r1,116
	stw r20,120(r1)
	stw r23,96(r1)
	stw r22,116(r1)
	bl L__ZNSt9bad_allocD2Ev$stub
	lwz r3,100(r1)
	stw r21,96(r1)
	cmpwi cr7,r3,0
	beq cr7,L1683
	lwz r2,0(r3)
	lwz r0,16(r2)
	mtctr r0
	mr r12,r0
LEHB103:
	bctrl
LEHE103:
	cmpwi cr7,r3,0
	beq cr7,L1683
	li r0,0
	stw r0,100(r1)
	b L1683
L1705:
	b L1724
L1686:
	.p2align 4,,15
L1683:
	addi r3,r1,92
	stw r23,72(r1)
	stw r22,92(r1)
	bl L__ZNSt9bad_allocD2Ev$stub
	lwz r3,76(r1)
	stw r21,72(r1)
	cmpwi cr7,r3,0
	beq cr7,L1635
	lwz r2,0(r3)
	lwz r0,16(r2)
	mtctr r0
	mr r12,r0
LEHB104:
	bctrl
LEHE104:
	cmpwi cr7,r3,0
	beq cr7,L1635
	li r0,0
	stw r0,76(r1)
	b L1635
L1704:
	b L1724
L1690:
L1717:
L1678:
L1691:
	addi r3,r1,92
	stw r23,72(r1)
	stw r22,92(r1)
	bl L__ZNSt9bad_allocD2Ev$stub
	lwz r3,76(r1)
	stw r21,72(r1)
	cmpwi cr7,r3,0
	beq cr7,L1692
	lwz r2,0(r3)
	lwz r0,16(r2)
	mtctr r0
	mr r12,r0
LEHB105:
	bctrl
LEHE105:
	cmpwi cr7,r3,0
	beq cr7,L1692
	li r0,0
	stw r0,76(r1)
	b L1692
L1703:
L1724:
	cmpwi cr7,r4,-1
	bne cr7,L1722
L1695:
LEHB106:
	bl L___cxa_call_unexpected$stub
L1692:
	mr r3,r30
L1722:
	bl L__Unwind_Resume$stub
LEHE106:
	.p2align 4,,15
L1635:
	addi r1,r1,208
	mr r3,r24
	lwz r0,8(r1)
	lmw r19,-52(r1)
	mtlr r0
	blr
LFE9010:
	.section __DATA,__gcc_except_tab
GCC_except_table31:
	.align 2
LLSDA9010:
	.byte	0xff
	.byte	0x0
	.byte	0x90,0x1
	.byte	0x3
	.byte	0x82,0x1
	.set L$set$252,LEHB97-LFB9010
	.long L$set$252
	.set L$set$253,LEHE97-LEHB97
	.long L$set$253
	.set L$set$254,L1715-LFB9010
	.long L$set$254
	.byte	0x0
	.set L$set$255,LEHB98-LFB9010
	.long L$set$255
	.set L$set$256,LEHE98-LEHB98
	.long L$set$256
	.set L$set$257,L1714-LFB9010
	.long L$set$257
	.byte	0x0
	.set L$set$258,LEHB99-LFB9010
	.long L$set$258
	.set L$set$259,LEHE99-LEHB99
	.long L$set$259
	.set L$set$260,L1708-LFB9010
	.long L$set$260
	.byte	0x1
	.set L$set$261,LEHB100-LFB9010
	.long L$set$261
	.set L$set$262,LEHE100-LEHB100
	.long L$set$262
	.set L$set$263,L1707-LFB9010
	.long L$set$263
	.byte	0x0
	.set L$set$264,LEHB101-LFB9010
	.long L$set$264
	.set L$set$265,LEHE101-LEHB101
	.long L$set$265
	.set L$set$266,L1715-LFB9010
	.long L$set$266
	.byte	0x0
	.set L$set$267,LEHB102-LFB9010
	.long L$set$267
	.set L$set$268,LEHE102-LEHB102
	.long L$set$268
	.set L$set$269,L1706-LFB9010
	.long L$set$269
	.byte	0x3
	.set L$set$270,LEHB103-LFB9010
	.long L$set$270
	.set L$set$271,LEHE103-LEHB103
	.long L$set$271
	.set L$set$272,L1705-LFB9010
	.long L$set$272
	.byte	0x3
	.set L$set$273,LEHB104-LFB9010
	.long L$set$273
	.set L$set$274,LEHE104-LEHB104
	.long L$set$274
	.set L$set$275,L1704-LFB9010
	.long L$set$275
	.byte	0x3
	.set L$set$276,LEHB105-LFB9010
	.long L$set$276
	.set L$set$277,LEHE105-LEHB105
	.long L$set$277
	.set L$set$278,L1703-LFB9010
	.long L$set$278
	.byte	0x3
	.set L$set$279,LEHB106-LFB9010
	.long L$set$279
	.set L$set$280,LEHE106-LEHB106
	.long L$set$280
	.long	0x0
	.byte	0x0
	.byte	0x1
	.byte	0x0
	.byte	0x7f
	.byte	0x0
	.align 2
	.long	0
	.byte	0x0
	.section __TEXT,__textcoal_nt,coalesced,pure_instructions
	.align 2
	.p2align 4,,15
	.globl __ZThn24_N5boost16exception_detail10clone_implINS0_14bad_exception_EED0Ev
	.weak_definition __ZThn24_N5boost16exception_detail10clone_implINS0_14bad_exception_EED0Ev
	.private_extern __ZThn24_N5boost16exception_detail10clone_implINS0_14bad_exception_EED0Ev
__ZThn24_N5boost16exception_detail10clone_implINS0_14bad_exception_EED0Ev:
LFB14290:
	addi r3,r3,-24
	b L__ZN5boost16exception_detail10clone_implINS0_14bad_exception_EED0Ev$stub
LFE14290:
	.align 2
	.p2align 4,,15
	.globl __ZThn20_N5boost16exception_detail10clone_implINS0_14bad_exception_EED0Ev
	.weak_definition __ZThn20_N5boost16exception_detail10clone_implINS0_14bad_exception_EED0Ev
	.private_extern __ZThn20_N5boost16exception_detail10clone_implINS0_14bad_exception_EED0Ev
__ZThn20_N5boost16exception_detail10clone_implINS0_14bad_exception_EED0Ev:
LFB14291:
	addi r3,r3,-20
	b L__ZN5boost16exception_detail10clone_implINS0_14bad_exception_EED0Ev$stub
LFE14291:
	.align 2
	.p2align 4,,15
	.globl __ZN5boost16exception_detail10clone_implINS0_14bad_exception_EED0Ev
	.weak_definition __ZN5boost16exception_detail10clone_implINS0_14bad_exception_EED0Ev
	.private_extern __ZN5boost16exception_detail10clone_implINS0_14bad_exception_EED0Ev
__ZN5boost16exception_detail10clone_implINS0_14bad_exception_EED0Ev:
LFB9824:
	mflr r0
LCFI386:
	bcl 20,31,"L00000000070$pb"
"L00000000070$pb":
	stmw r30,-8(r1)
LCFI387:
	mflr r31
	stw r0,8(r1)
LCFI388:
	stwu r1,-80(r1)
LCFI389:
	mr r30,r3
	addis r9,r31,ha16(__ZTVN5boost16exception_detail10clone_baseE-"L00000000070$pb")
	addis r2,r31,ha16(__ZTVN5boost16exception_detail14bad_exception_E-"L00000000070$pb")
	la r9,lo16(__ZTVN5boost16exception_detail10clone_baseE-"L00000000070$pb")(r9)
	la r2,lo16(__ZTVN5boost16exception_detail14bad_exception_E-"L00000000070$pb")(r2)
	addi r9,r9,8
	addi r0,r2,24
	addi r2,r2,8
	stw r9,24(r3)
	stw r2,0(r3)
	stw r0,20(r3)
	addi r3,r3,20
	bl L__ZNSt13bad_exceptionD2Ev$stub
	lwz r3,4(r30)
	addis r2,r31,ha16(L__ZTVN5boost9exceptionE$non_lazy_ptr-"L00000000070$pb")
	lwz r2,lo16(L__ZTVN5boost9exceptionE$non_lazy_ptr-"L00000000070$pb")(r2)
	cmpwi cr7,r3,0
	addi r2,r2,8
	stw r2,0(r30)
	beq cr7,L1731
	lwz r2,0(r3)
	lwz r0,16(r2)
	mtctr r0
	mr r12,r0
LEHB107:
	bctrl
LEHE107:
	cmpwi cr7,r3,0
	beq cr7,L1731
	li r0,0
	stw r0,4(r30)
	b L1731
L1737:
	cmpwi cr7,r4,-1
	beq cr7,L1734
LEHB108:
	bl L__Unwind_Resume$stub
L1734:
	bl L___cxa_call_unexpected$stub
LEHE108:
	.p2align 4,,15
L1731:
	addi r1,r1,80
	mr r3,r30
	lwz r0,8(r1)
	lmw r30,-8(r1)
	mtlr r0
	b L__ZdlPv$stub
LFE9824:
	.section __DATA,__gcc_except_tab
GCC_except_table32:
	.align 2
LLSDA9824:
	.byte	0xff
	.byte	0x0
	.byte	0x21
	.byte	0x3
	.byte	0x1a
	.set L$set$281,LEHB107-LFB9824
	.long L$set$281
	.set L$set$282,LEHE107-LEHB107
	.long L$set$282
	.set L$set$283,L1737-LFB9824
	.long L$set$283
	.byte	0x1
	.set L$set$284,LEHB108-LFB9824
	.long L$set$284
	.set L$set$285,LEHE108-LEHB108
	.long L$set$285
	.long	0x0
	.byte	0x0
	.byte	0x7f
	.byte	0x0
	.align 2
	.byte	0x0
	.section __TEXT,__textcoal_nt,coalesced,pure_instructions
	.align 2
	.p2align 4,,15
	.globl __ZN5boost16exception_detail27get_static_exception_objectINS0_14bad_exception_EEENS_13exception_ptrEv
	.weak_definition __ZN5boost16exception_detail27get_static_exception_objectINS0_14bad_exception_EEENS_13exception_ptrEv
	.private_extern __ZN5boost16exception_detail27get_static_exception_objectINS0_14bad_exception_EEENS_13exception_ptrEv
__ZN5boost16exception_detail27get_static_exception_objectINS0_14bad_exception_EEENS_13exception_ptrEv:
LFB9024:
L1813:
L1745:
L1814:
L1753:
L1815:
L1756:
L1816:
L1758:
L1812:
L1762:
	mflr r0
LCFI390:
	li r10,-1
	bcl 20,31,"L00000000071$pb"
"L00000000071$pb":
	stmw r19,-52(r1)
LCFI391:
	mflr r31
	stw r0,8(r1)
LCFI392:
	stwu r1,-208(r1)
LCFI393:
	li r0,0
	addis r9,r31,ha16(__ZTVN5boost16exception_detail14bad_exception_E-"L00000000071$pb")
	addis r2,r31,ha16(__ZTVN5boost16exception_detail10clone_implINS0_14bad_exception_EEE-"L00000000071$pb")
	addis r11,r31,ha16(__ZTVN5boost16exception_detail10clone_baseE-"L00000000071$pb")
	la r9,lo16(__ZTVN5boost16exception_detail14bad_exception_E-"L00000000071$pb")(r9)
	mr r24,r3
	la r2,lo16(__ZTVN5boost16exception_detail10clone_implINS0_14bad_exception_EEE-"L00000000071$pb")(r2)
	la r11,lo16(__ZTVN5boost16exception_detail10clone_baseE-"L00000000071$pb")(r11)
	addi r22,r9,24
	addi r23,r9,8
	addis r9,r31,ha16(L__ZTVN5boost9exceptionE$non_lazy_ptr-"L00000000071$pb")
	addi r27,r2,52
	addi r30,r2,8
	addi r28,r2,32
	lwz r9,lo16(L__ZTVN5boost9exceptionE$non_lazy_ptr-"L00000000071$pb")(r9)
	addis r2,r31,ha16(__ZZN5boost16exception_detail27get_static_exception_objectINS0_14bad_exception_EEENS_13exception_ptrEvE19__PRETTY_FUNCTION__-"L00000000071$pb")
	addi r20,r11,8
	la r2,lo16(__ZZN5boost16exception_detail27get_static_exception_objectINS0_14bad_exception_EEENS_13exception_ptrEvE19__PRETTY_FUNCTION__-"L00000000071$pb")(r2)
	addi r4,r1,64
	addi r3,r1,96
	stw r10,112(r1)
	stw r10,88(r1)
	stw r0,100(r1)
	stw r0,76(r1)
	stw r0,80(r1)
	stw r0,84(r1)
	stw r0,108(r1)
	stw r0,104(r1)
	stw r2,64(r1)
	stw r23,72(r1)
	stw r22,92(r1)
	stw r30,96(r1)
	stw r28,116(r1)
	stw r27,120(r1)
	addi r21,r9,8
	bl L__ZN5boost16exception_detail8set_infoINS0_10clone_implINS0_14bad_exception_EEEEERKT_S7_RKNS_10error_infoINS_15throw_function_EPKcEE$stub
	addis r2,r31,ha16(LC14-"L00000000071$pb")
	addi r4,r1,60
	la r2,lo16(LC14-"L00000000071$pb")(r2)
	stw r2,60(r1)
	bl L__ZN5boost16exception_detail8set_infoINS0_10clone_implINS0_14bad_exception_EEEEERKT_S7_RKNS_10error_infoINS_11throw_file_EPKcEE$stub
	li r0,124
	addi r4,r1,56
	stw r0,56(r1)
	bl L__ZN5boost16exception_detail8set_infoINS0_10clone_implINS0_14bad_exception_EEEEERKT_S7_RKNS_10error_infoINS_11throw_line_EiEE$stub
	addis r2,r31,ha16(__ZGVZN5boost16exception_detail27get_static_exception_objectINS0_14bad_exception_EEENS_13exception_ptrEvE2ep-"L00000000071$pb")
	la r25,lo16(__ZGVZN5boost16exception_detail27get_static_exception_objectINS0_14bad_exception_EEENS_13exception_ptrEvE2ep-"L00000000071$pb")(r2)
	mr r3,r25
	bl L___cxa_guard_acquire$stub
	cmpwi cr7,r3,0
	beq cr7,L1822
	li r19,0
	li r3,28
LEHB109:
	bl L__Znwm$stub
LEHE109:
	mr r29,r3
	lwz r3,100(r1)
	stw r21,0(r29)
	cmpwi cr7,r3,0
	stw r3,4(r29)
	beq cr7,L1765
	lwz r2,0(r3)
	lwz r0,12(r2)
	mtctr r0
	mr r12,r0
LEHB110:
	bctrl
LEHE110:
L1765:
	lwz r0,104(r1)
	lwz r2,108(r1)
	li r3,16
	stw r27,24(r29)
	stw r30,0(r29)
	addi r27,r29,24
	stw r28,20(r29)
	stw r0,8(r29)
	lwz r0,112(r1)
	stw r2,12(r29)
	stw r0,16(r29)
LEHB111:
	bl L__Znwm$stub
LEHE111:
	b L1830
L1817:
L1768:
	mr r30,r3
	mr r3,r29
	bl L__ZdlPv$stub
	b L1774
L1830:
	addis r2,r31,ha16(__ZTVN5boost6detail17sp_counted_impl_pINS_16exception_detail10clone_implINS2_14bad_exception_EEEEE-"L00000000071$pb")
	li r0,1
	stw r29,12(r3)
	addis r28,r31,ha16(__ZZN5boost16exception_detail27get_static_exception_objectINS0_14bad_exception_EEENS_13exception_ptrEvE2ep-"L00000000071$pb")
	la r2,lo16(__ZTVN5boost6detail17sp_counted_impl_pINS_16exception_detail10clone_implINS2_14bad_exception_EEEEE-"L00000000071$pb")(r2)
	stw r0,8(r3)
	stw r0,4(r3)
	addi r2,r2,8
	mr r30,r3
	la r26,lo16(__ZZN5boost16exception_detail27get_static_exception_objectINS0_14bad_exception_EEENS_13exception_ptrEvE2ep-"L00000000071$pb")(r28)
	li r19,1
	stw r2,0(r3)
	mr r3,r25
	stw r27,lo16(__ZZN5boost16exception_detail27get_static_exception_objectINS0_14bad_exception_EEENS_13exception_ptrEvE2ep-"L00000000071$pb")(r28)
	addi r29,r30,4
	stw r30,4(r26)
	0:
	lwarx r2, 0, r29
	addi r2, r2, 1
	stwcx. r2, 0, r29
	bne- 0b
	bl L___cxa_guard_release$stub
	addis r5,r31,ha16(L___dso_handle$non_lazy_ptr-"L00000000071$pb")
	addis r3,r31,ha16(___tcf_1-"L00000000071$pb")
	li r4,0
	lwz r5,lo16(L___dso_handle$non_lazy_ptr-"L00000000071$pb")(r5)
	la r3,lo16(___tcf_1-"L00000000071$pb")(r3)
	bl L___cxa_atexit$stub
	sync
	0:
	lwarx r2, 0, r29
	addi r2, r2, -1
	stwcx. r2, 0, r29
	bne- 0b
	isync
	cmpwi cr7,r2,0
	bne cr7,L1763
	b L1831
L1811:
L1770:
	bl L___cxa_begin_catch$stub
	lwz r2,0(r29)
	mr r3,r29
	lwz r0,4(r2)
	mtctr r0
	mr r12,r0
	bctrl
LEHB112:
	bl L___cxa_rethrow$stub
LEHE112:
L1810:
L1772:
	mr r30,r3
	bl L___cxa_end_catch$stub
	b L1774
L1831:
	lwz r2,0(r30)
	mr r3,r30
	lwz r0,8(r2)
	mtctr r0
	mr r12,r0
LEHB113:
	bctrl
	addi r2,r30,8
	sync
	0:
	lwarx r9, 0, r2
	addi r9, r9, -1
	stwcx. r9, 0, r2
	bne- 0b
	isync
	cmpwi cr7,r9,0
	bne cr7,L1763
	lwz r2,0(r30)
	mr r3,r30
	lwz r0,12(r2)
	mtctr r0
	mr r12,r0
	bctrl
LEHE113:
	b L1763
L1818:
	mr r30,r3
L1774:
	cmpwi cr7,r19,0
	bne cr7,L1775
	mr r3,r25
	bl L___cxa_guard_abort$stub
	b L1775
	.p2align 4,,15
L1822:
	addis r28,r31,ha16(__ZZN5boost16exception_detail27get_static_exception_objectINS0_14bad_exception_EEENS_13exception_ptrEvE2ep-"L00000000071$pb")
	la r26,lo16(__ZZN5boost16exception_detail27get_static_exception_objectINS0_14bad_exception_EEENS_13exception_ptrEvE2ep-"L00000000071$pb")(r28)
L1763:
	lwz r2,4(r26)
	lwz r0,lo16(__ZZN5boost16exception_detail27get_static_exception_objectINS0_14bad_exception_EEENS_13exception_ptrEvE2ep-"L00000000071$pb")(r28)
	cmpwi cr7,r2,0
	stw r0,0(r24)
	stw r2,4(r24)
	beq cr7,L1777
	addi r2,r2,4
	0:
	lwarx r9, 0, r2
	addi r9, r9, 1
	stwcx. r9, 0, r2
	bne- 0b
	b L1777
L1819:
L1775:
L1779:
	addi r3,r1,116
	stw r20,120(r1)
	stw r23,96(r1)
	stw r22,116(r1)
	bl L__ZNSt13bad_exceptionD2Ev$stub
	lwz r3,100(r1)
	stw r21,96(r1)
	cmpwi cr7,r3,0
	beq cr7,L1781
	lwz r2,0(r3)
	lwz r0,16(r2)
	mtctr r0
	mr r12,r0
LEHB114:
	bctrl
LEHE114:
	cmpwi cr7,r3,0
	beq cr7,L1781
	li r0,0
	stw r0,100(r1)
	b L1781
L1809:
	b L1827
L1784:
	.p2align 4,,15
L1777:
	addi r3,r1,116
	stw r20,120(r1)
	stw r23,96(r1)
	stw r22,116(r1)
	bl L__ZNSt13bad_exceptionD2Ev$stub
	lwz r3,100(r1)
	stw r21,96(r1)
	cmpwi cr7,r3,0
	beq cr7,L1786
	lwz r2,0(r3)
	lwz r0,16(r2)
	mtctr r0
	mr r12,r0
LEHB115:
	bctrl
LEHE115:
	cmpwi cr7,r3,0
	beq cr7,L1786
	li r0,0
	stw r0,100(r1)
	b L1786
L1808:
	b L1827
L1789:
	.p2align 4,,15
L1786:
	addi r3,r1,92
	stw r23,72(r1)
	stw r22,92(r1)
	bl L__ZNSt13bad_exceptionD2Ev$stub
	lwz r3,76(r1)
	stw r21,72(r1)
	cmpwi cr7,r3,0
	beq cr7,L1738
	lwz r2,0(r3)
	lwz r0,16(r2)
	mtctr r0
	mr r12,r0
LEHB116:
	bctrl
LEHE116:
	cmpwi cr7,r3,0
	beq cr7,L1738
	li r0,0
	stw r0,76(r1)
	b L1738
L1807:
	b L1827
L1793:
L1820:
L1781:
L1794:
	addi r3,r1,92
	stw r23,72(r1)
	stw r22,92(r1)
	bl L__ZNSt13bad_exceptionD2Ev$stub
	lwz r3,76(r1)
	stw r21,72(r1)
	cmpwi cr7,r3,0
	beq cr7,L1795
	lwz r2,0(r3)
	lwz r0,16(r2)
	mtctr r0
	mr r12,r0
LEHB117:
	bctrl
LEHE117:
	cmpwi cr7,r3,0
	beq cr7,L1795
	li r0,0
	stw r0,76(r1)
	b L1795
L1806:
L1827:
	cmpwi cr7,r4,-1
	bne cr7,L1825
L1798:
LEHB118:
	bl L___cxa_call_unexpected$stub
L1795:
	mr r3,r30
L1825:
	bl L__Unwind_Resume$stub
LEHE118:
	.p2align 4,,15
L1738:
	addi r1,r1,208
	mr r3,r24
	lwz r0,8(r1)
	lmw r19,-52(r1)
	mtlr r0
	blr
LFE9024:
	.section __DATA,__gcc_except_tab
GCC_except_table33:
	.align 2
LLSDA9024:
	.byte	0xff
	.byte	0x0
	.byte	0x90,0x1
	.byte	0x3
	.byte	0x82,0x1
	.set L$set$286,LEHB109-LFB9024
	.long L$set$286
	.set L$set$287,LEHE109-LEHB109
	.long L$set$287
	.set L$set$288,L1818-LFB9024
	.long L$set$288
	.byte	0x0
	.set L$set$289,LEHB110-LFB9024
	.long L$set$289
	.set L$set$290,LEHE110-LEHB110
	.long L$set$290
	.set L$set$291,L1817-LFB9024
	.long L$set$291
	.byte	0x0
	.set L$set$292,LEHB111-LFB9024
	.long L$set$292
	.set L$set$293,LEHE111-LEHB111
	.long L$set$293
	.set L$set$294,L1811-LFB9024
	.long L$set$294
	.byte	0x1
	.set L$set$295,LEHB112-LFB9024
	.long L$set$295
	.set L$set$296,LEHE112-LEHB112
	.long L$set$296
	.set L$set$297,L1810-LFB9024
	.long L$set$297
	.byte	0x0
	.set L$set$298,LEHB113-LFB9024
	.long L$set$298
	.set L$set$299,LEHE113-LEHB113
	.long L$set$299
	.set L$set$300,L1818-LFB9024
	.long L$set$300
	.byte	0x0
	.set L$set$301,LEHB114-LFB9024
	.long L$set$301
	.set L$set$302,LEHE114-LEHB114
	.long L$set$302
	.set L$set$303,L1809-LFB9024
	.long L$set$303
	.byte	0x3
	.set L$set$304,LEHB115-LFB9024
	.long L$set$304
	.set L$set$305,LEHE115-LEHB115
	.long L$set$305
	.set L$set$306,L1808-LFB9024
	.long L$set$306
	.byte	0x3
	.set L$set$307,LEHB116-LFB9024
	.long L$set$307
	.set L$set$308,LEHE116-LEHB116
	.long L$set$308
	.set L$set$309,L1807-LFB9024
	.long L$set$309
	.byte	0x3
	.set L$set$310,LEHB117-LFB9024
	.long L$set$310
	.set L$set$311,LEHE117-LEHB117
	.long L$set$311
	.set L$set$312,L1806-LFB9024
	.long L$set$312
	.byte	0x3
	.set L$set$313,LEHB118-LFB9024
	.long L$set$313
	.set L$set$314,LEHE118-LEHB118
	.long L$set$314
	.long	0x0
	.byte	0x0
	.byte	0x1
	.byte	0x0
	.byte	0x7f
	.byte	0x0
	.align 2
	.long	0
	.byte	0x0
	.section __TEXT,__textcoal_nt,coalesced,pure_instructions
	.section __TEXT,__StaticInit,regular,pure_instructions
	.align 2
	.p2align 4,,15
__Z41__static_initialization_and_destruction_0ii:
LFB14133:
	mflr r0
LCFI394:
	cmpwi cr7,r3,1
	bcl 20,31,"L00000000072$pb"
"L00000000072$pb":
	stmw r29,-12(r1)
LCFI395:
	mflr r31
	stw r0,8(r1)
LCFI396:
	stwu r1,-80(r1)
LCFI397:
	mr r30,r3
	bne cr7,L1839
	xoris r0,r4,0xffff
	cmpwi cr7,r0,-1
	bne cr7,L1839
	addis r3,r31,ha16(__ZStL8__ioinit-"L00000000072$pb")
	la r3,lo16(__ZStL8__ioinit-"L00000000072$pb")(r3)
	bl L__ZNSt8ios_base4InitC1Ev$stub
	addis r2,r31,ha16(L___dso_handle$non_lazy_ptr-"L00000000072$pb")
	addis r3,r31,ha16(___tcf_2-"L00000000072$pb")
	li r4,0
	lwz r29,lo16(L___dso_handle$non_lazy_ptr-"L00000000072$pb")(r2)
	la r3,lo16(___tcf_2-"L00000000072$pb")(r3)
	mr r5,r29
	bl L___cxa_atexit$stub
	addis r2,r31,ha16(__ZGVN5boost16exception_detail37exception_ptr_static_exception_objectINS0_10bad_alloc_EE1eE-"L00000000072$pb")
	lbz r0,lo16(__ZGVN5boost16exception_detail37exception_ptr_static_exception_objectINS0_10bad_alloc_EE1eE-"L00000000072$pb")(r2)
	cmpwi cr7,r0,0
	bne cr7,L1836
	addis r3,r31,ha16(__ZN5boost16exception_detail37exception_ptr_static_exception_objectINS0_10bad_alloc_EE1eE-"L00000000072$pb")
	stb r30,lo16(__ZGVN5boost16exception_detail37exception_ptr_static_exception_objectINS0_10bad_alloc_EE1eE-"L00000000072$pb")(r2)
	la r3,lo16(__ZN5boost16exception_detail37exception_ptr_static_exception_objectINS0_10bad_alloc_EE1eE-"L00000000072$pb")(r3)
	bl L__ZN5boost16exception_detail27get_static_exception_objectINS0_10bad_alloc_EEENS_13exception_ptrEv$stub
	addis r3,r31,ha16(___tcf_3-"L00000000072$pb")
	li r4,0
	mr r5,r29
	la r3,lo16(___tcf_3-"L00000000072$pb")(r3)
	bl L___cxa_atexit$stub
	.p2align 4,,15
L1836:
	addis r2,r31,ha16(__ZGVN5boost16exception_detail37exception_ptr_static_exception_objectINS0_14bad_exception_EE1eE-"L00000000072$pb")
	lbz r0,lo16(__ZGVN5boost16exception_detail37exception_ptr_static_exception_objectINS0_14bad_exception_EE1eE-"L00000000072$pb")(r2)
	cmpwi cr7,r0,0
	bne cr7,L1839
	addis r3,r31,ha16(__ZN5boost16exception_detail37exception_ptr_static_exception_objectINS0_14bad_exception_EE1eE-"L00000000072$pb")
	stb r30,lo16(__ZGVN5boost16exception_detail37exception_ptr_static_exception_objectINS0_14bad_exception_EE1eE-"L00000000072$pb")(r2)
	la r3,lo16(__ZN5boost16exception_detail37exception_ptr_static_exception_objectINS0_14bad_exception_EE1eE-"L00000000072$pb")(r3)
	bl L__ZN5boost16exception_detail27get_static_exception_objectINS0_14bad_exception_EEENS_13exception_ptrEv$stub
	addi r1,r1,80
	addis r3,r31,ha16(___tcf_4-"L00000000072$pb")
	mr r5,r29
	li r4,0
	lwz r0,8(r1)
	la r3,lo16(___tcf_4-"L00000000072$pb")(r3)
	lmw r29,-12(r1)
	mtlr r0
	b L___cxa_atexit$stub
	.p2align 4,,15
L1839:
	addi r1,r1,80
	lwz r0,8(r1)
	lmw r29,-12(r1)
	mtlr r0
	blr
LFE14133:
	.align 2
	.p2align 4,,15
__GLOBAL__I__ZN12_GLOBAL__N_12_1E:
LFB14261:
	li r4,0
	li r3,1
	ori r4,r4,65535
	b __Z41__static_initialization_and_destruction_0ii
LFE14261:
	.section __TEXT,__textcoal_nt,coalesced,pure_instructions
	.align 2
	.p2align 4,,15
	.globl __ZThn24_N5boost16exception_detail10clone_implINS0_10bad_alloc_EED1Ev
	.weak_definition __ZThn24_N5boost16exception_detail10clone_implINS0_10bad_alloc_EED1Ev
	.private_extern __ZThn24_N5boost16exception_detail10clone_implINS0_10bad_alloc_EED1Ev
__ZThn24_N5boost16exception_detail10clone_implINS0_10bad_alloc_EED1Ev:
LFB14292:
	addi r3,r3,-24
	b L__ZN5boost16exception_detail10clone_implINS0_10bad_alloc_EED1Ev$stub
LFE14292:
	.align 2
	.p2align 4,,15
	.globl __ZThn20_N5boost16exception_detail10clone_implINS0_10bad_alloc_EED1Ev
	.weak_definition __ZThn20_N5boost16exception_detail10clone_implINS0_10bad_alloc_EED1Ev
	.private_extern __ZThn20_N5boost16exception_detail10clone_implINS0_10bad_alloc_EED1Ev
__ZThn20_N5boost16exception_detail10clone_implINS0_10bad_alloc_EED1Ev:
LFB14293:
	addi r3,r3,-20
	b L__ZN5boost16exception_detail10clone_implINS0_10bad_alloc_EED1Ev$stub
LFE14293:
	.align 2
	.p2align 4,,15
	.globl __ZN5boost16exception_detail10clone_implINS0_10bad_alloc_EED1Ev
	.weak_definition __ZN5boost16exception_detail10clone_implINS0_10bad_alloc_EED1Ev
	.private_extern __ZN5boost16exception_detail10clone_implINS0_10bad_alloc_EED1Ev
__ZN5boost16exception_detail10clone_implINS0_10bad_alloc_EED1Ev:
LFB9810:
	mflr r0
LCFI398:
	bcl 20,31,"L00000000073$pb"
"L00000000073$pb":
	stmw r30,-8(r1)
LCFI399:
	mflr r31
	stw r0,8(r1)
LCFI400:
	stwu r1,-80(r1)
LCFI401:
	mr r30,r3
	addis r9,r31,ha16(__ZTVN5boost16exception_detail10clone_baseE-"L00000000073$pb")
	addis r2,r31,ha16(__ZTVN5boost16exception_detail10bad_alloc_E-"L00000000073$pb")
	la r9,lo16(__ZTVN5boost16exception_detail10clone_baseE-"L00000000073$pb")(r9)
	la r2,lo16(__ZTVN5boost16exception_detail10bad_alloc_E-"L00000000073$pb")(r2)
	addi r9,r9,8
	addi r0,r2,24
	addi r2,r2,8
	stw r9,24(r3)
	stw r2,0(r3)
	stw r0,20(r3)
	addi r3,r3,20
	bl L__ZNSt9bad_allocD2Ev$stub
	lwz r3,4(r30)
	addis r2,r31,ha16(L__ZTVN5boost9exceptionE$non_lazy_ptr-"L00000000073$pb")
	lwz r2,lo16(L__ZTVN5boost9exceptionE$non_lazy_ptr-"L00000000073$pb")(r2)
	cmpwi cr7,r3,0
	addi r2,r2,8
	stw r2,0(r30)
	beq cr7,L1848
	lwz r2,0(r3)
	lwz r0,16(r2)
	mtctr r0
	mr r12,r0
LEHB119:
	bctrl
LEHE119:
	cmpwi cr7,r3,0
	beq cr7,L1848
	li r0,0
	stw r0,4(r30)
	b L1848
L1850:
	cmpwi cr7,r4,-1
	beq cr7,L1847
LEHB120:
	bl L__Unwind_Resume$stub
L1847:
	bl L___cxa_call_unexpected$stub
LEHE120:
	.p2align 4,,15
L1848:
	addi r1,r1,80
	lwz r0,8(r1)
	lmw r30,-8(r1)
	mtlr r0
	blr
LFE9810:
	.section __DATA,__gcc_except_tab
GCC_except_table34:
	.align 2
LLSDA9810:
	.byte	0xff
	.byte	0x0
	.byte	0x21
	.byte	0x3
	.byte	0x1a
	.set L$set$315,LEHB119-LFB9810
	.long L$set$315
	.set L$set$316,LEHE119-LEHB119
	.long L$set$316
	.set L$set$317,L1850-LFB9810
	.long L$set$317
	.byte	0x1
	.set L$set$318,LEHB120-LFB9810
	.long L$set$318
	.set L$set$319,LEHE120-LEHB120
	.long L$set$319
	.long	0x0
	.byte	0x0
	.byte	0x7f
	.byte	0x0
	.align 2
	.byte	0x0
	.section __TEXT,__textcoal_nt,coalesced,pure_instructions
	.align 2
	.p2align 4,,15
	.globl __ZNSt8_Rb_treeIN5boost7polygon14rectangle_dataIfEES3_St9_IdentityIS3_ENS1_22less_rectangle_conceptIS3_S3_EESaIS3_EE11lower_boundERKS3_
	.weak_definition __ZNSt8_Rb_treeIN5boost7polygon14rectangle_dataIfEES3_St9_IdentityIS3_ENS1_22less_rectangle_conceptIS3_S3_EESaIS3_EE11lower_boundERKS3_
	.private_extern __ZNSt8_Rb_treeIN5boost7polygon14rectangle_dataIfEES3_St9_IdentityIS3_ENS1_22less_rectangle_conceptIS3_S3_EESaIS3_EE11lower_boundERKS3_
__ZNSt8_Rb_treeIN5boost7polygon14rectangle_dataIfEES3_St9_IdentityIS3_ENS1_22less_rectangle_conceptIS3_S3_EESaIS3_EE11lower_boundERKS3_:
LFB12776:
	mflr r0
LCFI402:
	stfd f31,-8(r1)
LCFI403:
	stmw r13,-84(r1)
LCFI404:
	mr r27,r4
	stw r0,8(r1)
LCFI405:
	stwu r1,-336(r1)
LCFI406:
	mr r15,r3
	mr r25,r5
	addi r22,r4,4
	lwz r0,8(r4)
	cmpwi cr7,r0,0
	beq cr7,L1852
	mr r30,r0
	addi r0,r1,80
	addi r23,r1,120
	addi r20,r1,56
	stw r0,184(r1)
	addi r0,r1,84
	addi r19,r1,60
	addi r24,r1,128
	stw r0,188(r1)
	addi r0,r1,152
	addi r18,r1,64
	addi r21,r1,68
	stw r0,192(r1)
	addi r0,r1,88
	addi r17,r1,136
	addi r14,r1,72
	stw r0,196(r1)
	addi r0,r1,92
	addi r13,r1,76
	addi r16,r1,144
	stw r0,200(r1)
	addi r0,r1,160
	stw r0,204(r1)
	addi r0,r1,96
	stw r0,208(r1)
	addi r0,r1,100
	stw r0,212(r1)
	addi r0,r1,168
	stw r0,216(r1)
	addi r0,r1,104
	stw r0,220(r1)
	addi r0,r1,108
	stw r0,224(r1)
	addi r0,r1,176
	stw r0,228(r1)
	addi r0,r1,112
	stw r0,232(r1)
	addi r0,r1,116
	stw r0,236(r1)
	.p2align 4,,15
L1854:
	lwz r0,0(r27)
	addi r28,r30,16
	li r6,0
	mr r3,r23
	mr r5,r20
	mr r4,r28
	li r29,0
	stw r0,56(r1)
	bl L__ZN5boost7polygon3getINS0_14rectangle_dataIfEEEENS0_23rectangle_interval_typeIT_E4typeERKS5_NS0_14orientation_2dEPNS_9enable_ifINS0_6gtl_ifINS0_20is_rectangle_conceptINS0_16geometry_conceptIS5_E4typeEE4typeEE4typeEvE4typeE$stub
	mr r3,r23
	stw r29,60(r1)
	mr r4,r19
	li r5,0
	bl L__ZN5boost7polygon3getINS0_13interval_dataIfEEEENS0_24interval_coordinate_typeIT_E4typeERKS5_NS0_12direction_1dEPNS_9enable_ifINS0_6gtl_ifINS0_19is_interval_conceptINS0_16geometry_conceptIS5_E4typeEE4typeEE4typeEvE4typeE$stub
	lwz r0,0(r27)
	mr r3,r24
	mr r4,r25
	fmr f31,f1
	mr r5,r18
	li r6,0
	stw r0,64(r1)
	bl L__ZN5boost7polygon3getINS0_14rectangle_dataIfEEEENS0_23rectangle_interval_typeIT_E4typeERKS5_NS0_14orientation_2dEPNS_9enable_ifINS0_6gtl_ifINS0_20is_rectangle_conceptINS0_16geometry_conceptIS5_E4typeEE4typeEE4typeEvE4typeE$stub
	mr r3,r24
	stw r29,68(r1)
	mr r4,r21
	li r5,0
	bl L__ZN5boost7polygon3getINS0_13interval_dataIfEEEENS0_24interval_coordinate_typeIT_E4typeERKS5_NS0_12direction_1dEPNS_9enable_ifINS0_6gtl_ifINS0_19is_interval_conceptINS0_16geometry_conceptIS5_E4typeEE4typeEE4typeEvE4typeE$stub
	fcmpu cr7,f31,f1
	bgt cr7,L1855
	bne cr7,L1857
	lwz r0,0(r27)
	li r6,0
	mr r3,r17
	mr r4,r28
	mr r5,r14
	xori r26,r0,1
	stw r26,72(r1)
	bl L__ZN5boost7polygon3getINS0_14rectangle_dataIfEEEENS0_23rectangle_interval_typeIT_E4typeERKS5_NS0_14orientation_2dEPNS_9enable_ifINS0_6gtl_ifINS0_20is_rectangle_conceptINS0_16geometry_conceptIS5_E4typeEE4typeEE4typeEvE4typeE$stub
	mr r3,r17
	stw r29,76(r1)
	mr r4,r13
	li r5,0
	bl L__ZN5boost7polygon3getINS0_13interval_dataIfEEEENS0_24interval_coordinate_typeIT_E4typeERKS5_NS0_12direction_1dEPNS_9enable_ifINS0_6gtl_ifINS0_19is_interval_conceptINS0_16geometry_conceptIS5_E4typeEE4typeEE4typeEvE4typeE$stub
	lwz r5,184(r1)
	mr r3,r16
	mr r4,r25
	li r6,0
	fmr f31,f1
	stw r26,80(r1)
	bl L__ZN5boost7polygon3getINS0_14rectangle_dataIfEEEENS0_23rectangle_interval_typeIT_E4typeERKS5_NS0_14orientation_2dEPNS_9enable_ifINS0_6gtl_ifINS0_20is_rectangle_conceptINS0_16geometry_conceptIS5_E4typeEE4typeEE4typeEvE4typeE$stub
	lwz r4,188(r1)
	mr r3,r16
	li r5,0
	stw r29,84(r1)
	bl L__ZN5boost7polygon3getINS0_13interval_dataIfEEEENS0_24interval_coordinate_typeIT_E4typeERKS5_NS0_12direction_1dEPNS_9enable_ifINS0_6gtl_ifINS0_19is_interval_conceptINS0_16geometry_conceptIS5_E4typeEE4typeEE4typeEvE4typeE$stub
	fcmpu cr7,f31,f1
	bgt cr7,L1855
	bne cr7,L1857
	lwz r0,0(r27)
	lwz r3,192(r1)
	li r6,0
	mr r4,r28
	lwz r5,196(r1)
	li r29,1
	stw r0,88(r1)
	bl L__ZN5boost7polygon3getINS0_14rectangle_dataIfEEEENS0_23rectangle_interval_typeIT_E4typeERKS5_NS0_14orientation_2dEPNS_9enable_ifINS0_6gtl_ifINS0_20is_rectangle_conceptINS0_16geometry_conceptIS5_E4typeEE4typeEE4typeEvE4typeE$stub
	lwz r3,192(r1)
	lwz r4,200(r1)
	li r5,0
	stw r29,92(r1)
	bl L__ZN5boost7polygon3getINS0_13interval_dataIfEEEENS0_24interval_coordinate_typeIT_E4typeERKS5_NS0_12direction_1dEPNS_9enable_ifINS0_6gtl_ifINS0_19is_interval_conceptINS0_16geometry_conceptIS5_E4typeEE4typeEE4typeEvE4typeE$stub
	lwz r0,0(r27)
	lwz r3,204(r1)
	mr r4,r25
	li r6,0
	lwz r5,208(r1)
	fmr f31,f1
	stw r0,96(r1)
	bl L__ZN5boost7polygon3getINS0_14rectangle_dataIfEEEENS0_23rectangle_interval_typeIT_E4typeERKS5_NS0_14orientation_2dEPNS_9enable_ifINS0_6gtl_ifINS0_20is_rectangle_conceptINS0_16geometry_conceptIS5_E4typeEE4typeEE4typeEvE4typeE$stub
	lwz r3,204(r1)
	lwz r4,212(r1)
	li r5,0
	stw r29,100(r1)
	bl L__ZN5boost7polygon3getINS0_13interval_dataIfEEEENS0_24interval_coordinate_typeIT_E4typeERKS5_NS0_12direction_1dEPNS_9enable_ifINS0_6gtl_ifINS0_19is_interval_conceptINS0_16geometry_conceptIS5_E4typeEE4typeEE4typeEvE4typeE$stub
	fcmpu cr7,f31,f1
	bgt cr7,L1855
	bne cr7,L1857
	lwz r3,216(r1)
	lwz r5,220(r1)
	li r6,0
	mr r4,r28
	stw r26,104(r1)
	bl L__ZN5boost7polygon3getINS0_14rectangle_dataIfEEEENS0_23rectangle_interval_typeIT_E4typeERKS5_NS0_14orientation_2dEPNS_9enable_ifINS0_6gtl_ifINS0_20is_rectangle_conceptINS0_16geometry_conceptIS5_E4typeEE4typeEE4typeEvE4typeE$stub
	lwz r3,216(r1)
	lwz r4,224(r1)
	li r5,0
	stw r29,108(r1)
	bl L__ZN5boost7polygon3getINS0_13interval_dataIfEEEENS0_24interval_coordinate_typeIT_E4typeERKS5_NS0_12direction_1dEPNS_9enable_ifINS0_6gtl_ifINS0_19is_interval_conceptINS0_16geometry_conceptIS5_E4typeEE4typeEE4typeEvE4typeE$stub
	lwz r3,228(r1)
	lwz r5,232(r1)
	mr r4,r25
	li r6,0
	fmr f31,f1
	stw r26,112(r1)
	bl L__ZN5boost7polygon3getINS0_14rectangle_dataIfEEEENS0_23rectangle_interval_typeIT_E4typeERKS5_NS0_14orientation_2dEPNS_9enable_ifINS0_6gtl_ifINS0_20is_rectangle_conceptINS0_16geometry_conceptIS5_E4typeEE4typeEE4typeEvE4typeE$stub
	lwz r3,228(r1)
	lwz r4,236(r1)
	li r5,0
	stw r29,116(r1)
	bl L__ZN5boost7polygon3getINS0_13interval_dataIfEEEENS0_24interval_coordinate_typeIT_E4typeERKS5_NS0_12direction_1dEPNS_9enable_ifINS0_6gtl_ifINS0_19is_interval_conceptINS0_16geometry_conceptIS5_E4typeEE4typeEE4typeEvE4typeE$stub
	fcmpu cr7,f31,f1
	blt cr7,L1857
	.p2align 4,,15
L1855:
	mr r22,r30
	lwz r30,8(r30)
	b L1867
	.p2align 4,,15
L1857:
	lwz r30,12(r30)
L1867:
	cmpwi cr7,r30,0
	bne cr7,L1854
L1852:
	stw r22,0(r15)
	addi r1,r1,336
	mr r3,r15
	lwz r0,8(r1)
	lmw r13,-84(r1)
	mtlr r0
	lfd f31,-8(r1)
	blr
LFE12776:
	.align 2
	.p2align 4,,15
	.globl __ZNSt8_Rb_treeIN5boost7polygon14rectangle_dataIfEES3_St9_IdentityIS3_ENS1_22less_rectangle_conceptIS3_S3_EESaIS3_EE9_M_insertEPSt18_Rb_tree_node_baseSB_RKS3_
	.weak_definition __ZNSt8_Rb_treeIN5boost7polygon14rectangle_dataIfEES3_St9_IdentityIS3_ENS1_22less_rectangle_conceptIS3_S3_EESaIS3_EE9_M_insertEPSt18_Rb_tree_node_baseSB_RKS3_
	.private_extern __ZNSt8_Rb_treeIN5boost7polygon14rectangle_dataIfEES3_St9_IdentityIS3_ENS1_22less_rectangle_conceptIS3_S3_EESaIS3_EE9_M_insertEPSt18_Rb_tree_node_baseSB_RKS3_
__ZNSt8_Rb_treeIN5boost7polygon14rectangle_dataIfEES3_St9_IdentityIS3_ENS1_22less_rectangle_conceptIS3_S3_EESaIS3_EE9_M_insertEPSt18_Rb_tree_node_baseSB_RKS3_:
LFB12772:
	mflr r0
LCFI407:
	stfd f31,-8(r1)
LCFI408:
	stmw r21,-52(r1)
LCFI409:
	mr r22,r3
	stw r0,8(r1)
LCFI410:
	stwu r1,-256(r1)
LCFI411:
	li r3,32
	mr r27,r4
	mr r25,r5
	mr r24,r6
	mr r28,r7
	bl L__Znwm$stub
	cmpwi cr7,r3,-16
	mr r30,r3
	beq cr7,L1871
	li r0,0
	stw r0,28(r3)
	stw r0,16(r3)
	stw r0,20(r3)
	stw r0,24(r3)
	lfs f0,0(r28)
	stfs f0,16(r3)
	lfs f13,4(r28)
	stfs f13,20(r3)
	lfs f0,8(r28)
	stfs f0,24(r3)
	lfs f13,12(r28)
	stfs f13,28(r3)
L1871:
	cmpwi cr7,r25,0
	addi r26,r27,4
	bne cr7,L1873
	cmpw cr7,r26,r24
	beq cr7,L1873
	lwz r0,0(r27)
	addi r29,r1,120
	li r6,0
	mr r4,r28
	addi r5,r1,56
	mr r3,r29
	addi r23,r24,16
	stw r0,56(r1)
	bl L__ZN5boost7polygon3getINS0_14rectangle_dataIfEEEENS0_23rectangle_interval_typeIT_E4typeERKS5_NS0_14orientation_2dEPNS_9enable_ifINS0_6gtl_ifINS0_20is_rectangle_conceptINS0_16geometry_conceptIS5_E4typeEE4typeEE4typeEvE4typeE$stub
	mr r3,r29
	stw r25,60(r1)
	addi r4,r1,60
	li r5,0
	addi r29,r1,128
	bl L__ZN5boost7polygon3getINS0_13interval_dataIfEEEENS0_24interval_coordinate_typeIT_E4typeERKS5_NS0_12direction_1dEPNS_9enable_ifINS0_6gtl_ifINS0_19is_interval_conceptINS0_16geometry_conceptIS5_E4typeEE4typeEE4typeEvE4typeE$stub
	lwz r0,0(r27)
	mr r3,r29
	mr r4,r23
	fmr f31,f1
	addi r5,r1,64
	li r6,0
	stw r0,64(r1)
	bl L__ZN5boost7polygon3getINS0_14rectangle_dataIfEEEENS0_23rectangle_interval_typeIT_E4typeERKS5_NS0_14orientation_2dEPNS_9enable_ifINS0_6gtl_ifINS0_20is_rectangle_conceptINS0_16geometry_conceptIS5_E4typeEE4typeEE4typeEvE4typeE$stub
	mr r3,r29
	stw r25,68(r1)
	addi r4,r1,68
	li r5,0
	bl L__ZN5boost7polygon3getINS0_13interval_dataIfEEEENS0_24interval_coordinate_typeIT_E4typeERKS5_NS0_12direction_1dEPNS_9enable_ifINS0_6gtl_ifINS0_19is_interval_conceptINS0_16geometry_conceptIS5_E4typeEE4typeEE4typeEvE4typeE$stub
	fcmpu cr7,f31,f1
	bgt cr7,L1876
	bne cr7,L1873
	lwz r0,0(r27)
	addi r29,r1,136
	li r6,0
	mr r4,r28
	addi r5,r1,72
	mr r3,r29
	xori r21,r0,1
	stw r21,72(r1)
	bl L__ZN5boost7polygon3getINS0_14rectangle_dataIfEEEENS0_23rectangle_interval_typeIT_E4typeERKS5_NS0_14orientation_2dEPNS_9enable_ifINS0_6gtl_ifINS0_20is_rectangle_conceptINS0_16geometry_conceptIS5_E4typeEE4typeEE4typeEvE4typeE$stub
	mr r3,r29
	stw r25,76(r1)
	addi r4,r1,76
	li r5,0
	addi r29,r1,144
	bl L__ZN5boost7polygon3getINS0_13interval_dataIfEEEENS0_24interval_coordinate_typeIT_E4typeERKS5_NS0_12direction_1dEPNS_9enable_ifINS0_6gtl_ifINS0_19is_interval_conceptINS0_16geometry_conceptIS5_E4typeEE4typeEE4typeEvE4typeE$stub
	mr r3,r29
	mr r4,r23
	stw r21,80(r1)
	fmr f31,f1
	addi r5,r1,80
	li r6,0
	bl L__ZN5boost7polygon3getINS0_14rectangle_dataIfEEEENS0_23rectangle_interval_typeIT_E4typeERKS5_NS0_14orientation_2dEPNS_9enable_ifINS0_6gtl_ifINS0_20is_rectangle_conceptINS0_16geometry_conceptIS5_E4typeEE4typeEE4typeEvE4typeE$stub
	mr r3,r29
	addi r4,r1,84
	stw r25,84(r1)
	li r5,0
	bl L__ZN5boost7polygon3getINS0_13interval_dataIfEEEENS0_24interval_coordinate_typeIT_E4typeERKS5_NS0_12direction_1dEPNS_9enable_ifINS0_6gtl_ifINS0_19is_interval_conceptINS0_16geometry_conceptIS5_E4typeEE4typeEE4typeEvE4typeE$stub
	fcmpu cr7,f31,f1
	bgt cr7,L1876
	bne cr7,L1873
	lwz r0,0(r27)
	addi r29,r1,152
	li r6,0
	mr r4,r28
	addi r5,r1,88
	mr r3,r29
	li r25,1
	stw r0,88(r1)
	bl L__ZN5boost7polygon3getINS0_14rectangle_dataIfEEEENS0_23rectangle_interval_typeIT_E4typeERKS5_NS0_14orientation_2dEPNS_9enable_ifINS0_6gtl_ifINS0_20is_rectangle_conceptINS0_16geometry_conceptIS5_E4typeEE4typeEE4typeEvE4typeE$stub
	mr r3,r29
	stw r25,92(r1)
	addi r4,r1,92
	li r5,0
	addi r29,r1,160
	bl L__ZN5boost7polygon3getINS0_13interval_dataIfEEEENS0_24interval_coordinate_typeIT_E4typeERKS5_NS0_12direction_1dEPNS_9enable_ifINS0_6gtl_ifINS0_19is_interval_conceptINS0_16geometry_conceptIS5_E4typeEE4typeEE4typeEvE4typeE$stub
	lwz r0,0(r27)
	mr r4,r23
	mr r3,r29
	fmr f31,f1
	addi r5,r1,96
	li r6,0
	stw r0,96(r1)
	bl L__ZN5boost7polygon3getINS0_14rectangle_dataIfEEEENS0_23rectangle_interval_typeIT_E4typeERKS5_NS0_14orientation_2dEPNS_9enable_ifINS0_6gtl_ifINS0_20is_rectangle_conceptINS0_16geometry_conceptIS5_E4typeEE4typeEE4typeEvE4typeE$stub
	mr r3,r29
	stw r25,100(r1)
	addi r4,r1,100
	li r5,0
	bl L__ZN5boost7polygon3getINS0_13interval_dataIfEEEENS0_24interval_coordinate_typeIT_E4typeERKS5_NS0_12direction_1dEPNS_9enable_ifINS0_6gtl_ifINS0_19is_interval_conceptINS0_16geometry_conceptIS5_E4typeEE4typeEE4typeEvE4typeE$stub
	fcmpu cr7,f31,f1
	bgt cr7,L1876
	bne cr7,L1873
	addi r29,r1,168
	li r6,0
	stw r21,104(r1)
	mr r4,r28
	mr r3,r29
	addi r5,r1,104
	bl L__ZN5boost7polygon3getINS0_14rectangle_dataIfEEEENS0_23rectangle_interval_typeIT_E4typeERKS5_NS0_14orientation_2dEPNS_9enable_ifINS0_6gtl_ifINS0_20is_rectangle_conceptINS0_16geometry_conceptIS5_E4typeEE4typeEE4typeEvE4typeE$stub
	mr r3,r29
	addi r4,r1,108
	stw r25,108(r1)
	li r5,0
	addi r29,r1,176
	bl L__ZN5boost7polygon3getINS0_13interval_dataIfEEEENS0_24interval_coordinate_typeIT_E4typeERKS5_NS0_12direction_1dEPNS_9enable_ifINS0_6gtl_ifINS0_19is_interval_conceptINS0_16geometry_conceptIS5_E4typeEE4typeEE4typeEvE4typeE$stub
	mr r4,r23
	mr r3,r29
	stw r21,112(r1)
	fmr f31,f1
	addi r5,r1,112
	li r6,0
	bl L__ZN5boost7polygon3getINS0_14rectangle_dataIfEEEENS0_23rectangle_interval_typeIT_E4typeERKS5_NS0_14orientation_2dEPNS_9enable_ifINS0_6gtl_ifINS0_20is_rectangle_conceptINS0_16geometry_conceptIS5_E4typeEE4typeEE4typeEvE4typeE$stub
	mr r3,r29
	addi r4,r1,116
	stw r25,116(r1)
	li r5,0
	bl L__ZN5boost7polygon3getINS0_13interval_dataIfEEEENS0_24interval_coordinate_typeIT_E4typeERKS5_NS0_12direction_1dEPNS_9enable_ifINS0_6gtl_ifINS0_19is_interval_conceptINS0_16geometry_conceptIS5_E4typeEE4typeEE4typeEvE4typeE$stub
	fcmpu cr7,f31,f1
	bnl cr7,L1876
	.p2align 4,,15
L1873:
	li r3,1
	b L1887
L1876:
	li r3,0
	.p2align 4,,15
L1887:
	mr r5,r24
	mr r6,r26
	mr r4,r30
	bl L__ZSt29_Rb_tree_insert_and_rebalancebPSt18_Rb_tree_node_baseS0_RS_$stub
	lwz r2,20(r27)
	addi r1,r1,256
	mr r3,r22
	addi r2,r2,1
	stw r2,20(r27)
	stw r30,0(r22)
	lwz r0,8(r1)
	lmw r21,-52(r1)
	mtlr r0
	lfd f31,-8(r1)
	blr
LFE12772:
	.align 2
	.p2align 4,,15
	.globl __ZNSt8_Rb_treeIN5boost7polygon14rectangle_dataIfEES3_St9_IdentityIS3_ENS1_22less_rectangle_conceptIS3_S3_EESaIS3_EE13insert_uniqueERKS3_
	.weak_definition __ZNSt8_Rb_treeIN5boost7polygon14rectangle_dataIfEES3_St9_IdentityIS3_ENS1_22less_rectangle_conceptIS3_S3_EESaIS3_EE13insert_uniqueERKS3_
	.private_extern __ZNSt8_Rb_treeIN5boost7polygon14rectangle_dataIfEES3_St9_IdentityIS3_ENS1_22less_rectangle_conceptIS3_S3_EESaIS3_EE13insert_uniqueERKS3_
__ZNSt8_Rb_treeIN5boost7polygon14rectangle_dataIfEES3_St9_IdentityIS3_ENS1_22less_rectangle_conceptIS3_S3_EESaIS3_EE13insert_uniqueERKS3_:
LFB12773:
	mflr r0
LCFI412:
	stfd f31,-8(r1)
LCFI413:
	stmw r13,-84(r1)
LCFI414:
	mr r27,r4
	stw r0,8(r1)
LCFI415:
	stwu r1,-464(r1)
LCFI416:
	mr r18,r3
	mr r25,r5
	addi r30,r4,4
	lwz r0,8(r4)
	cmpwi cr7,r0,0
	beq cr7,L1891
	mr r28,r0
	addi r0,r1,72
	addi r23,r1,184
	addi r20,r1,56
	stw r0,316(r1)
	addi r0,r1,216
	addi r19,r1,60
	addi r24,r1,192
	stw r0,320(r1)
	addi r0,r1,88
	addi r22,r1,64
	addi r21,r1,68
	stw r0,324(r1)
	addi r0,r1,92
	addi r17,r1,200
	addi r15,r1,76
	stw r0,328(r1)
	addi r0,r1,224
	addi r16,r1,208
	addi r14,r1,80
	stw r0,332(r1)
	addi r0,r1,96
	addi r13,r1,84
	stw r0,336(r1)
	addi r0,r1,100
	stw r0,340(r1)
	addi r0,r1,232
	stw r0,344(r1)
	addi r0,r1,104
	stw r0,348(r1)
	addi r0,r1,108
	stw r0,352(r1)
	addi r0,r1,240
	stw r0,356(r1)
	addi r0,r1,112
	stw r0,360(r1)
	addi r0,r1,116
	stw r0,364(r1)
	.p2align 4,,15
L1893:
	lwz r0,0(r27)
	li r6,0
	mr r3,r23
	mr r4,r25
	mr r5,r20
	li r29,0
	addi r30,r28,16
	stw r0,56(r1)
	bl L__ZN5boost7polygon3getINS0_14rectangle_dataIfEEEENS0_23rectangle_interval_typeIT_E4typeERKS5_NS0_14orientation_2dEPNS_9enable_ifINS0_6gtl_ifINS0_20is_rectangle_conceptINS0_16geometry_conceptIS5_E4typeEE4typeEE4typeEvE4typeE$stub
	mr r3,r23
	stw r29,60(r1)
	mr r4,r19
	li r5,0
	bl L__ZN5boost7polygon3getINS0_13interval_dataIfEEEENS0_24interval_coordinate_typeIT_E4typeERKS5_NS0_12direction_1dEPNS_9enable_ifINS0_6gtl_ifINS0_19is_interval_conceptINS0_16geometry_conceptIS5_E4typeEE4typeEE4typeEvE4typeE$stub
	lwz r0,0(r27)
	mr r3,r24
	mr r4,r30
	fmr f31,f1
	mr r5,r22
	li r6,0
	stw r0,64(r1)
	bl L__ZN5boost7polygon3getINS0_14rectangle_dataIfEEEENS0_23rectangle_interval_typeIT_E4typeERKS5_NS0_14orientation_2dEPNS_9enable_ifINS0_6gtl_ifINS0_20is_rectangle_conceptINS0_16geometry_conceptIS5_E4typeEE4typeEE4typeEvE4typeE$stub
	mr r3,r24
	stw r29,68(r1)
	mr r4,r21
	li r5,0
	bl L__ZN5boost7polygon3getINS0_13interval_dataIfEEEENS0_24interval_coordinate_typeIT_E4typeERKS5_NS0_12direction_1dEPNS_9enable_ifINS0_6gtl_ifINS0_19is_interval_conceptINS0_16geometry_conceptIS5_E4typeEE4typeEE4typeEvE4typeE$stub
	fcmpu cr7,f31,f1
	bgt cr7,L1894
	bne cr7,L1896
	lwz r0,0(r27)
	lwz r5,316(r1)
	li r6,0
	mr r3,r17
	mr r4,r25
	xori r26,r0,1
	stw r26,72(r1)
	bl L__ZN5boost7polygon3getINS0_14rectangle_dataIfEEEENS0_23rectangle_interval_typeIT_E4typeERKS5_NS0_14orientation_2dEPNS_9enable_ifINS0_6gtl_ifINS0_20is_rectangle_conceptINS0_16geometry_conceptIS5_E4typeEE4typeEE4typeEvE4typeE$stub
	mr r3,r17
	stw r29,76(r1)
	mr r4,r15
	li r5,0
	bl L__ZN5boost7polygon3getINS0_13interval_dataIfEEEENS0_24interval_coordinate_typeIT_E4typeERKS5_NS0_12direction_1dEPNS_9enable_ifINS0_6gtl_ifINS0_19is_interval_conceptINS0_16geometry_conceptIS5_E4typeEE4typeEE4typeEvE4typeE$stub
	mr r3,r16
	mr r4,r30
	stw r26,80(r1)
	fmr f31,f1
	mr r5,r14
	li r6,0
	bl L__ZN5boost7polygon3getINS0_14rectangle_dataIfEEEENS0_23rectangle_interval_typeIT_E4typeERKS5_NS0_14orientation_2dEPNS_9enable_ifINS0_6gtl_ifINS0_20is_rectangle_conceptINS0_16geometry_conceptIS5_E4typeEE4typeEE4typeEvE4typeE$stub
	mr r3,r16
	mr r4,r13
	stw r29,84(r1)
	li r5,0
	bl L__ZN5boost7polygon3getINS0_13interval_dataIfEEEENS0_24interval_coordinate_typeIT_E4typeERKS5_NS0_12direction_1dEPNS_9enable_ifINS0_6gtl_ifINS0_19is_interval_conceptINS0_16geometry_conceptIS5_E4typeEE4typeEE4typeEvE4typeE$stub
	fcmpu cr7,f31,f1
	bgt cr7,L1894
	bne cr7,L1896
	lwz r0,0(r27)
	lwz r3,320(r1)
	li r6,0
	mr r4,r25
	lwz r5,324(r1)
	li r29,1
	stw r0,88(r1)
	bl L__ZN5boost7polygon3getINS0_14rectangle_dataIfEEEENS0_23rectangle_interval_typeIT_E4typeERKS5_NS0_14orientation_2dEPNS_9enable_ifINS0_6gtl_ifINS0_20is_rectangle_conceptINS0_16geometry_conceptIS5_E4typeEE4typeEE4typeEvE4typeE$stub
	lwz r3,320(r1)
	lwz r4,328(r1)
	li r5,0
	stw r29,92(r1)
	bl L__ZN5boost7polygon3getINS0_13interval_dataIfEEEENS0_24interval_coordinate_typeIT_E4typeERKS5_NS0_12direction_1dEPNS_9enable_ifINS0_6gtl_ifINS0_19is_interval_conceptINS0_16geometry_conceptIS5_E4typeEE4typeEE4typeEvE4typeE$stub
	lwz r0,0(r27)
	lwz r3,332(r1)
	mr r4,r30
	li r6,0
	lwz r5,336(r1)
	fmr f31,f1
	stw r0,96(r1)
	bl L__ZN5boost7polygon3getINS0_14rectangle_dataIfEEEENS0_23rectangle_interval_typeIT_E4typeERKS5_NS0_14orientation_2dEPNS_9enable_ifINS0_6gtl_ifINS0_20is_rectangle_conceptINS0_16geometry_conceptIS5_E4typeEE4typeEE4typeEvE4typeE$stub
	lwz r3,332(r1)
	lwz r4,340(r1)
	li r5,0
	stw r29,100(r1)
	bl L__ZN5boost7polygon3getINS0_13interval_dataIfEEEENS0_24interval_coordinate_typeIT_E4typeERKS5_NS0_12direction_1dEPNS_9enable_ifINS0_6gtl_ifINS0_19is_interval_conceptINS0_16geometry_conceptIS5_E4typeEE4typeEE4typeEvE4typeE$stub
	fcmpu cr7,f31,f1
	bgt cr7,L1894
	bne cr7,L1896
	lwz r3,344(r1)
	lwz r5,348(r1)
	li r6,0
	mr r4,r25
	stw r26,104(r1)
	bl L__ZN5boost7polygon3getINS0_14rectangle_dataIfEEEENS0_23rectangle_interval_typeIT_E4typeERKS5_NS0_14orientation_2dEPNS_9enable_ifINS0_6gtl_ifINS0_20is_rectangle_conceptINS0_16geometry_conceptIS5_E4typeEE4typeEE4typeEvE4typeE$stub
	lwz r3,344(r1)
	lwz r4,352(r1)
	li r5,0
	stw r29,108(r1)
	bl L__ZN5boost7polygon3getINS0_13interval_dataIfEEEENS0_24interval_coordinate_typeIT_E4typeERKS5_NS0_12direction_1dEPNS_9enable_ifINS0_6gtl_ifINS0_19is_interval_conceptINS0_16geometry_conceptIS5_E4typeEE4typeEE4typeEvE4typeE$stub
	lwz r3,356(r1)
	lwz r5,360(r1)
	mr r4,r30
	li r6,0
	fmr f31,f1
	stw r26,112(r1)
	bl L__ZN5boost7polygon3getINS0_14rectangle_dataIfEEEENS0_23rectangle_interval_typeIT_E4typeERKS5_NS0_14orientation_2dEPNS_9enable_ifINS0_6gtl_ifINS0_20is_rectangle_conceptINS0_16geometry_conceptIS5_E4typeEE4typeEE4typeEvE4typeE$stub
	lwz r3,356(r1)
	lwz r4,364(r1)
	li r5,0
	stw r29,116(r1)
	bl L__ZN5boost7polygon3getINS0_13interval_dataIfEEEENS0_24interval_coordinate_typeIT_E4typeERKS5_NS0_12direction_1dEPNS_9enable_ifINS0_6gtl_ifINS0_19is_interval_conceptINS0_16geometry_conceptIS5_E4typeEE4typeEE4typeEvE4typeE$stub
	fcmpu cr7,f31,f1
	mfcr r2
	rlwinm r2,r2,29,1
	bnl cr7,L1905
	.p2align 4,,15
L1906:
	lwz r0,8(r28)
	b L1907
	.p2align 4,,15
L1905:
	lwz r0,12(r28)
L1907:
	cmpwi cr7,r0,0
	beq cr7,L1908
	mr r28,r0
	b L1893
L1908:
	cmpwi cr7,r2,0
	mr r30,r28
	mr r26,r28
	beq cr7,L1911
L1891:
	lwz r0,12(r27)
	cmpw cr7,r30,r0
	beq cr7,L1917
	mr r3,r30
	bl L__ZSt18_Rb_tree_decrementPSt18_Rb_tree_node_base$stub
	mr r26,r3
L1911:
	lwz r0,0(r27)
	addi r29,r1,248
	addi r24,r26,16
	li r6,0
	addi r5,r1,120
	mr r3,r29
	mr r4,r24
	li r28,0
	stw r0,120(r1)
	bl L__ZN5boost7polygon3getINS0_14rectangle_dataIfEEEENS0_23rectangle_interval_typeIT_E4typeERKS5_NS0_14orientation_2dEPNS_9enable_ifINS0_6gtl_ifINS0_20is_rectangle_conceptINS0_16geometry_conceptIS5_E4typeEE4typeEE4typeEvE4typeE$stub
	mr r3,r29
	stw r28,124(r1)
	addi r4,r1,124
	li r5,0
	addi r29,r1,256
	bl L__ZN5boost7polygon3getINS0_13interval_dataIfEEEENS0_24interval_coordinate_typeIT_E4typeERKS5_NS0_12direction_1dEPNS_9enable_ifINS0_6gtl_ifINS0_19is_interval_conceptINS0_16geometry_conceptIS5_E4typeEE4typeEE4typeEvE4typeE$stub
	lwz r0,0(r27)
	mr r4,r25
	mr r3,r29
	fmr f31,f1
	addi r5,r1,128
	li r6,0
	stw r0,128(r1)
	bl L__ZN5boost7polygon3getINS0_14rectangle_dataIfEEEENS0_23rectangle_interval_typeIT_E4typeERKS5_NS0_14orientation_2dEPNS_9enable_ifINS0_6gtl_ifINS0_20is_rectangle_conceptINS0_16geometry_conceptIS5_E4typeEE4typeEE4typeEvE4typeE$stub
	mr r3,r29
	stw r28,132(r1)
	addi r4,r1,132
	li r5,0
	bl L__ZN5boost7polygon3getINS0_13interval_dataIfEEEENS0_24interval_coordinate_typeIT_E4typeERKS5_NS0_12direction_1dEPNS_9enable_ifINS0_6gtl_ifINS0_19is_interval_conceptINS0_16geometry_conceptIS5_E4typeEE4typeEE4typeEvE4typeE$stub
	fcmpu cr7,f31,f1
	bgt cr7,L1915
	bne cr7,L1917
	lwz r0,0(r27)
	addi r29,r1,264
	li r6,0
	mr r4,r24
	addi r5,r1,136
	mr r3,r29
	xori r23,r0,1
	stw r23,136(r1)
	bl L__ZN5boost7polygon3getINS0_14rectangle_dataIfEEEENS0_23rectangle_interval_typeIT_E4typeERKS5_NS0_14orientation_2dEPNS_9enable_ifINS0_6gtl_ifINS0_20is_rectangle_conceptINS0_16geometry_conceptIS5_E4typeEE4typeEE4typeEvE4typeE$stub
	mr r3,r29
	stw r28,140(r1)
	addi r4,r1,140
	li r5,0
	addi r29,r1,272
	bl L__ZN5boost7polygon3getINS0_13interval_dataIfEEEENS0_24interval_coordinate_typeIT_E4typeERKS5_NS0_12direction_1dEPNS_9enable_ifINS0_6gtl_ifINS0_19is_interval_conceptINS0_16geometry_conceptIS5_E4typeEE4typeEE4typeEvE4typeE$stub
	mr r3,r29
	mr r4,r25
	stw r23,144(r1)
	fmr f31,f1
	addi r5,r1,144
	li r6,0
	bl L__ZN5boost7polygon3getINS0_14rectangle_dataIfEEEENS0_23rectangle_interval_typeIT_E4typeERKS5_NS0_14orientation_2dEPNS_9enable_ifINS0_6gtl_ifINS0_20is_rectangle_conceptINS0_16geometry_conceptIS5_E4typeEE4typeEE4typeEvE4typeE$stub
	mr r3,r29
	addi r4,r1,148
	stw r28,148(r1)
	li r5,0
	bl L__ZN5boost7polygon3getINS0_13interval_dataIfEEEENS0_24interval_coordinate_typeIT_E4typeERKS5_NS0_12direction_1dEPNS_9enable_ifINS0_6gtl_ifINS0_19is_interval_conceptINS0_16geometry_conceptIS5_E4typeEE4typeEE4typeEvE4typeE$stub
	fcmpu cr7,f31,f1
	bgt cr7,L1915
	bne cr7,L1917
	lwz r0,0(r27)
	addi r29,r1,280
	li r6,0
	mr r4,r24
	addi r5,r1,152
	mr r3,r29
	li r28,1
	stw r0,152(r1)
	bl L__ZN5boost7polygon3getINS0_14rectangle_dataIfEEEENS0_23rectangle_interval_typeIT_E4typeERKS5_NS0_14orientation_2dEPNS_9enable_ifINS0_6gtl_ifINS0_20is_rectangle_conceptINS0_16geometry_conceptIS5_E4typeEE4typeEE4typeEvE4typeE$stub
	mr r3,r29
	stw r28,156(r1)
	addi r4,r1,156
	li r5,0
	addi r29,r1,288
	bl L__ZN5boost7polygon3getINS0_13interval_dataIfEEEENS0_24interval_coordinate_typeIT_E4typeERKS5_NS0_12direction_1dEPNS_9enable_ifINS0_6gtl_ifINS0_19is_interval_conceptINS0_16geometry_conceptIS5_E4typeEE4typeEE4typeEvE4typeE$stub
	lwz r0,0(r27)
	mr r4,r25
	mr r3,r29
	fmr f31,f1
	addi r5,r1,160
	li r6,0
	stw r0,160(r1)
	bl L__ZN5boost7polygon3getINS0_14rectangle_dataIfEEEENS0_23rectangle_interval_typeIT_E4typeERKS5_NS0_14orientation_2dEPNS_9enable_ifINS0_6gtl_ifINS0_20is_rectangle_conceptINS0_16geometry_conceptIS5_E4typeEE4typeEE4typeEvE4typeE$stub
	mr r3,r29
	stw r28,164(r1)
	addi r4,r1,164
	li r5,0
	bl L__ZN5boost7polygon3getINS0_13interval_dataIfEEEENS0_24interval_coordinate_typeIT_E4typeERKS5_NS0_12direction_1dEPNS_9enable_ifINS0_6gtl_ifINS0_19is_interval_conceptINS0_16geometry_conceptIS5_E4typeEE4typeEE4typeEvE4typeE$stub
	fcmpu cr7,f31,f1
	bgt cr7,L1915
	bne cr7,L1917
	addi r29,r1,296
	li r6,0
	stw r23,168(r1)
	mr r4,r24
	mr r3,r29
	addi r5,r1,168
	bl L__ZN5boost7polygon3getINS0_14rectangle_dataIfEEEENS0_23rectangle_interval_typeIT_E4typeERKS5_NS0_14orientation_2dEPNS_9enable_ifINS0_6gtl_ifINS0_20is_rectangle_conceptINS0_16geometry_conceptIS5_E4typeEE4typeEE4typeEvE4typeE$stub
	mr r3,r29
	addi r4,r1,172
	stw r28,172(r1)
	li r5,0
	addi r29,r1,304
	bl L__ZN5boost7polygon3getINS0_13interval_dataIfEEEENS0_24interval_coordinate_typeIT_E4typeERKS5_NS0_12direction_1dEPNS_9enable_ifINS0_6gtl_ifINS0_19is_interval_conceptINS0_16geometry_conceptIS5_E4typeEE4typeEE4typeEvE4typeE$stub
	mr r3,r29
	mr r4,r25
	stw r23,176(r1)
	fmr f31,f1
	addi r5,r1,176
	li r6,0
	bl L__ZN5boost7polygon3getINS0_14rectangle_dataIfEEEENS0_23rectangle_interval_typeIT_E4typeERKS5_NS0_14orientation_2dEPNS_9enable_ifINS0_6gtl_ifINS0_20is_rectangle_conceptINS0_16geometry_conceptIS5_E4typeEE4typeEE4typeEvE4typeE$stub
	mr r3,r29
	addi r4,r1,180
	stw r28,180(r1)
	li r5,0
	bl L__ZN5boost7polygon3getINS0_13interval_dataIfEEEENS0_24interval_coordinate_typeIT_E4typeERKS5_NS0_12direction_1dEPNS_9enable_ifINS0_6gtl_ifINS0_19is_interval_conceptINS0_16geometry_conceptIS5_E4typeEE4typeEE4typeEvE4typeE$stub
	fcmpu cr7,f31,f1
	bnl cr7,L1915
L1917:
	mr r4,r27
	mr r6,r30
	mr r7,r25
	addi r3,r1,312
	li r5,0
	bl L__ZNSt8_Rb_treeIN5boost7polygon14rectangle_dataIfEES3_St9_IdentityIS3_ENS1_22less_rectangle_conceptIS3_S3_EESaIS3_EE9_M_insertEPSt18_Rb_tree_node_baseSB_RKS3_$stub
	lwz r2,312(r1)
	li r0,1
	stw r0,4(r18)
	stw r2,0(r18)
	b L1890
L1915:
	li r0,0
	stw r26,0(r18)
	stw r0,4(r18)
	b L1890
	.p2align 4,,15
L1896:
	li r2,1
	b L1906
	.p2align 4,,15
L1894:
	li r2,0
	b L1905
L1890:
	addi r1,r1,464
	mr r3,r18
	lwz r0,8(r1)
	lfd f31,-8(r1)
	lmw r13,-84(r1)
	mtlr r0
	blr
LFE12773:
	.align 2
	.p2align 4,,15
	.globl __ZNSt8_Rb_treeIN5boost7polygon14rectangle_dataIfEES3_St9_IdentityIS3_ENS1_22less_rectangle_conceptIS3_S3_EESaIS3_EE13insert_uniqueESt17_Rb_tree_iteratorIS3_ERKS3_
	.weak_definition __ZNSt8_Rb_treeIN5boost7polygon14rectangle_dataIfEES3_St9_IdentityIS3_ENS1_22less_rectangle_conceptIS3_S3_EESaIS3_EE13insert_uniqueESt17_Rb_tree_iteratorIS3_ERKS3_
	.private_extern __ZNSt8_Rb_treeIN5boost7polygon14rectangle_dataIfEES3_St9_IdentityIS3_ENS1_22less_rectangle_conceptIS3_S3_EESaIS3_EE13insert_uniqueESt17_Rb_tree_iteratorIS3_ERKS3_
__ZNSt8_Rb_treeIN5boost7polygon14rectangle_dataIfEES3_St9_IdentityIS3_ENS1_22less_rectangle_conceptIS3_S3_EESaIS3_EE13insert_uniqueESt17_Rb_tree_iteratorIS3_ERKS3_:
LFB12190:
	mflr r0
LCFI417:
	stfd f31,-8(r1)
LCFI418:
	stmw r22,-48(r1)
LCFI419:
	mr r30,r4
	stw r0,8(r1)
LCFI420:
	addi r0,r4,4
	stwu r1,-512(r1)
LCFI421:
	cmpw cr7,r5,r0
	mr r25,r5
	mr r24,r3
	mr r26,r6
	beq cr7,L1929
	lwz r0,16(r4)
	cmpw cr7,r5,r0
	bne cr7,L1931
L1929:
	lwz r0,20(r30)
	cmpwi cr7,r0,0
	beq cr7,L1932
	lwz r2,16(r30)
	lwz r0,0(r30)
	addi r29,r1,264
	li r6,0
	addi r5,r1,56
	li r28,0
	mr r3,r29
	addi r27,r2,16
	stw r0,56(r1)
	mr r4,r27
	bl L__ZN5boost7polygon3getINS0_14rectangle_dataIfEEEENS0_23rectangle_interval_typeIT_E4typeERKS5_NS0_14orientation_2dEPNS_9enable_ifINS0_6gtl_ifINS0_20is_rectangle_conceptINS0_16geometry_conceptIS5_E4typeEE4typeEE4typeEvE4typeE$stub
	mr r3,r29
	addi r4,r1,60
	stw r28,60(r1)
	li r5,0
	addi r29,r1,272
	bl L__ZN5boost7polygon3getINS0_13interval_dataIfEEEENS0_24interval_coordinate_typeIT_E4typeERKS5_NS0_12direction_1dEPNS_9enable_ifINS0_6gtl_ifINS0_19is_interval_conceptINS0_16geometry_conceptIS5_E4typeEE4typeEE4typeEvE4typeE$stub
	lwz r0,0(r30)
	mr r4,r26
	mr r3,r29
	fmr f31,f1
	addi r5,r1,64
	li r6,0
	stw r0,64(r1)
	bl L__ZN5boost7polygon3getINS0_14rectangle_dataIfEEEENS0_23rectangle_interval_typeIT_E4typeERKS5_NS0_14orientation_2dEPNS_9enable_ifINS0_6gtl_ifINS0_20is_rectangle_conceptINS0_16geometry_conceptIS5_E4typeEE4typeEE4typeEvE4typeE$stub
	mr r3,r29
	stw r28,68(r1)
	addi r4,r1,68
	li r5,0
	bl L__ZN5boost7polygon3getINS0_13interval_dataIfEEEENS0_24interval_coordinate_typeIT_E4typeERKS5_NS0_12direction_1dEPNS_9enable_ifINS0_6gtl_ifINS0_19is_interval_conceptINS0_16geometry_conceptIS5_E4typeEE4typeEE4typeEvE4typeE$stub
	fcmpu cr7,f31,f1
	bgt cr7,L1932
	bne cr7,L1935
	lwz r0,0(r30)
	addi r29,r1,280
	li r6,0
	mr r4,r27
	addi r5,r1,72
	mr r3,r29
	xori r25,r0,1
	stw r25,72(r1)
	bl L__ZN5boost7polygon3getINS0_14rectangle_dataIfEEEENS0_23rectangle_interval_typeIT_E4typeERKS5_NS0_14orientation_2dEPNS_9enable_ifINS0_6gtl_ifINS0_20is_rectangle_conceptINS0_16geometry_conceptIS5_E4typeEE4typeEE4typeEvE4typeE$stub
	mr r3,r29
	stw r28,76(r1)
	addi r4,r1,76
	li r5,0
	addi r29,r1,288
	bl L__ZN5boost7polygon3getINS0_13interval_dataIfEEEENS0_24interval_coordinate_typeIT_E4typeERKS5_NS0_12direction_1dEPNS_9enable_ifINS0_6gtl_ifINS0_19is_interval_conceptINS0_16geometry_conceptIS5_E4typeEE4typeEE4typeEvE4typeE$stub
	mr r3,r29
	mr r4,r26
	stw r25,80(r1)
	fmr f31,f1
	addi r5,r1,80
	li r6,0
	bl L__ZN5boost7polygon3getINS0_14rectangle_dataIfEEEENS0_23rectangle_interval_typeIT_E4typeERKS5_NS0_14orientation_2dEPNS_9enable_ifINS0_6gtl_ifINS0_20is_rectangle_conceptINS0_16geometry_conceptIS5_E4typeEE4typeEE4typeEvE4typeE$stub
	mr r3,r29
	addi r4,r1,84
	stw r28,84(r1)
	li r5,0
	bl L__ZN5boost7polygon3getINS0_13interval_dataIfEEEENS0_24interval_coordinate_typeIT_E4typeERKS5_NS0_12direction_1dEPNS_9enable_ifINS0_6gtl_ifINS0_19is_interval_conceptINS0_16geometry_conceptIS5_E4typeEE4typeEE4typeEvE4typeE$stub
	fcmpu cr7,f31,f1
	bgt cr7,L1932
	bne cr7,L1935
	lwz r0,0(r30)
	addi r29,r1,296
	li r6,0
	mr r4,r27
	addi r5,r1,88
	mr r3,r29
	li r28,1
	stw r0,88(r1)
	bl L__ZN5boost7polygon3getINS0_14rectangle_dataIfEEEENS0_23rectangle_interval_typeIT_E4typeERKS5_NS0_14orientation_2dEPNS_9enable_ifINS0_6gtl_ifINS0_20is_rectangle_conceptINS0_16geometry_conceptIS5_E4typeEE4typeEE4typeEvE4typeE$stub
	mr r3,r29
	stw r28,92(r1)
	addi r4,r1,92
	li r5,0
	addi r29,r1,304
	bl L__ZN5boost7polygon3getINS0_13interval_dataIfEEEENS0_24interval_coordinate_typeIT_E4typeERKS5_NS0_12direction_1dEPNS_9enable_ifINS0_6gtl_ifINS0_19is_interval_conceptINS0_16geometry_conceptIS5_E4typeEE4typeEE4typeEvE4typeE$stub
	lwz r0,0(r30)
	mr r4,r26
	mr r3,r29
	fmr f31,f1
	addi r5,r1,96
	li r6,0
	stw r0,96(r1)
	bl L__ZN5boost7polygon3getINS0_14rectangle_dataIfEEEENS0_23rectangle_interval_typeIT_E4typeERKS5_NS0_14orientation_2dEPNS_9enable_ifINS0_6gtl_ifINS0_20is_rectangle_conceptINS0_16geometry_conceptIS5_E4typeEE4typeEE4typeEvE4typeE$stub
	mr r3,r29
	stw r28,100(r1)
	addi r4,r1,100
	li r5,0
	bl L__ZN5boost7polygon3getINS0_13interval_dataIfEEEENS0_24interval_coordinate_typeIT_E4typeERKS5_NS0_12direction_1dEPNS_9enable_ifINS0_6gtl_ifINS0_19is_interval_conceptINS0_16geometry_conceptIS5_E4typeEE4typeEE4typeEvE4typeE$stub
	fcmpu cr7,f31,f1
	bgt cr7,L1932
	bne cr7,L1935
	addi r29,r1,312
	li r6,0
	stw r25,104(r1)
	mr r4,r27
	mr r3,r29
	addi r5,r1,104
	bl L__ZN5boost7polygon3getINS0_14rectangle_dataIfEEEENS0_23rectangle_interval_typeIT_E4typeERKS5_NS0_14orientation_2dEPNS_9enable_ifINS0_6gtl_ifINS0_20is_rectangle_conceptINS0_16geometry_conceptIS5_E4typeEE4typeEE4typeEvE4typeE$stub
	mr r3,r29
	addi r4,r1,108
	stw r28,108(r1)
	li r5,0
	addi r29,r1,320
	bl L__ZN5boost7polygon3getINS0_13interval_dataIfEEEENS0_24interval_coordinate_typeIT_E4typeERKS5_NS0_12direction_1dEPNS_9enable_ifINS0_6gtl_ifINS0_19is_interval_conceptINS0_16geometry_conceptIS5_E4typeEE4typeEE4typeEvE4typeE$stub
	mr r3,r29
	mr r4,r26
	stw r25,112(r1)
	fmr f31,f1
	addi r5,r1,112
	li r6,0
	bl L__ZN5boost7polygon3getINS0_14rectangle_dataIfEEEENS0_23rectangle_interval_typeIT_E4typeERKS5_NS0_14orientation_2dEPNS_9enable_ifINS0_6gtl_ifINS0_20is_rectangle_conceptINS0_16geometry_conceptIS5_E4typeEE4typeEE4typeEvE4typeE$stub
	mr r3,r29
	addi r4,r1,116
	stw r28,116(r1)
	li r5,0
	bl L__ZN5boost7polygon3getINS0_13interval_dataIfEEEENS0_24interval_coordinate_typeIT_E4typeERKS5_NS0_12direction_1dEPNS_9enable_ifINS0_6gtl_ifINS0_19is_interval_conceptINS0_16geometry_conceptIS5_E4typeEE4typeEE4typeEvE4typeE$stub
	fcmpu cr7,f31,f1
	bnl cr7,L1932
L1935:
	lwz r6,16(r30)
	mr r4,r30
	mr r7,r26
	mr r3,r24
	li r5,0
	bl L__ZNSt8_Rb_treeIN5boost7polygon14rectangle_dataIfEES3_St9_IdentityIS3_ENS1_22less_rectangle_conceptIS3_S3_EESaIS3_EE9_M_insertEPSt18_Rb_tree_node_baseSB_RKS3_$stub
	b L1928
L1970:
	fcmpu cr7,f31,f1
	bne cr7,L1946
	lwz r0,0(r30)
	addi r29,r1,344
	li r6,0
	mr r4,r27
	addi r5,r1,136
	mr r3,r29
	li r28,0
	xori r23,r0,1
	stw r23,136(r1)
	bl L__ZN5boost7polygon3getINS0_14rectangle_dataIfEEEENS0_23rectangle_interval_typeIT_E4typeERKS5_NS0_14orientation_2dEPNS_9enable_ifINS0_6gtl_ifINS0_20is_rectangle_conceptINS0_16geometry_conceptIS5_E4typeEE4typeEE4typeEvE4typeE$stub
	mr r3,r29
	stw r28,140(r1)
	addi r4,r1,140
	li r5,0
	addi r29,r1,352
	bl L__ZN5boost7polygon3getINS0_13interval_dataIfEEEENS0_24interval_coordinate_typeIT_E4typeERKS5_NS0_12direction_1dEPNS_9enable_ifINS0_6gtl_ifINS0_19is_interval_conceptINS0_16geometry_conceptIS5_E4typeEE4typeEE4typeEvE4typeE$stub
	mr r3,r29
	mr r4,r26
	stw r23,144(r1)
	fmr f31,f1
	addi r5,r1,144
	li r6,0
	bl L__ZN5boost7polygon3getINS0_14rectangle_dataIfEEEENS0_23rectangle_interval_typeIT_E4typeERKS5_NS0_14orientation_2dEPNS_9enable_ifINS0_6gtl_ifINS0_20is_rectangle_conceptINS0_16geometry_conceptIS5_E4typeEE4typeEE4typeEvE4typeE$stub
	mr r3,r29
	addi r4,r1,148
	stw r28,148(r1)
	li r5,0
	bl L__ZN5boost7polygon3getINS0_13interval_dataIfEEEENS0_24interval_coordinate_typeIT_E4typeERKS5_NS0_12direction_1dEPNS_9enable_ifINS0_6gtl_ifINS0_19is_interval_conceptINS0_16geometry_conceptIS5_E4typeEE4typeEE4typeEvE4typeE$stub
	fcmpu cr7,f31,f1
	bgt cr7,L1949
	bne cr7,L1946
	lwz r0,0(r30)
	addi r29,r1,360
	li r6,0
	mr r4,r27
	addi r5,r1,152
	mr r3,r29
	li r28,1
	stw r0,152(r1)
	bl L__ZN5boost7polygon3getINS0_14rectangle_dataIfEEEENS0_23rectangle_interval_typeIT_E4typeERKS5_NS0_14orientation_2dEPNS_9enable_ifINS0_6gtl_ifINS0_20is_rectangle_conceptINS0_16geometry_conceptIS5_E4typeEE4typeEE4typeEvE4typeE$stub
	mr r3,r29
	stw r28,156(r1)
	addi r4,r1,156
	li r5,0
	addi r29,r1,368
	bl L__ZN5boost7polygon3getINS0_13interval_dataIfEEEENS0_24interval_coordinate_typeIT_E4typeERKS5_NS0_12direction_1dEPNS_9enable_ifINS0_6gtl_ifINS0_19is_interval_conceptINS0_16geometry_conceptIS5_E4typeEE4typeEE4typeEvE4typeE$stub
	lwz r0,0(r30)
	mr r4,r26
	mr r3,r29
	fmr f31,f1
	addi r5,r1,160
	li r6,0
	stw r0,160(r1)
	bl L__ZN5boost7polygon3getINS0_14rectangle_dataIfEEEENS0_23rectangle_interval_typeIT_E4typeERKS5_NS0_14orientation_2dEPNS_9enable_ifINS0_6gtl_ifINS0_20is_rectangle_conceptINS0_16geometry_conceptIS5_E4typeEE4typeEE4typeEvE4typeE$stub
	mr r3,r29
	stw r28,164(r1)
	addi r4,r1,164
	li r5,0
	bl L__ZN5boost7polygon3getINS0_13interval_dataIfEEEENS0_24interval_coordinate_typeIT_E4typeERKS5_NS0_12direction_1dEPNS_9enable_ifINS0_6gtl_ifINS0_19is_interval_conceptINS0_16geometry_conceptIS5_E4typeEE4typeEE4typeEvE4typeE$stub
	fcmpu cr7,f31,f1
	bgt cr7,L1949
	bne cr7,L1946
	addi r29,r1,376
	li r6,0
	stw r23,168(r1)
	mr r4,r27
	mr r3,r29
	addi r5,r1,168
	bl L__ZN5boost7polygon3getINS0_14rectangle_dataIfEEEENS0_23rectangle_interval_typeIT_E4typeERKS5_NS0_14orientation_2dEPNS_9enable_ifINS0_6gtl_ifINS0_20is_rectangle_conceptINS0_16geometry_conceptIS5_E4typeEE4typeEE4typeEvE4typeE$stub
	mr r3,r29
	addi r4,r1,172
	stw r28,172(r1)
	li r5,0
	addi r29,r1,384
	bl L__ZN5boost7polygon3getINS0_13interval_dataIfEEEENS0_24interval_coordinate_typeIT_E4typeERKS5_NS0_12direction_1dEPNS_9enable_ifINS0_6gtl_ifINS0_19is_interval_conceptINS0_16geometry_conceptIS5_E4typeEE4typeEE4typeEvE4typeE$stub
	mr r3,r29
	mr r4,r26
	stw r23,176(r1)
	fmr f31,f1
	addi r5,r1,176
	li r6,0
	bl L__ZN5boost7polygon3getINS0_14rectangle_dataIfEEEENS0_23rectangle_interval_typeIT_E4typeERKS5_NS0_14orientation_2dEPNS_9enable_ifINS0_6gtl_ifINS0_20is_rectangle_conceptINS0_16geometry_conceptIS5_E4typeEE4typeEE4typeEvE4typeE$stub
	mr r3,r29
	addi r4,r1,180
	stw r28,180(r1)
	li r5,0
	bl L__ZN5boost7polygon3getINS0_13interval_dataIfEEEENS0_24interval_coordinate_typeIT_E4typeERKS5_NS0_12direction_1dEPNS_9enable_ifINS0_6gtl_ifINS0_19is_interval_conceptINS0_16geometry_conceptIS5_E4typeEE4typeEE4typeEvE4typeE$stub
	fcmpu cr7,f31,f1
	bnl cr7,L1949
	.p2align 4,,15
L1946:
	lwz r0,0(r30)
	addi r29,r1,392
	li r6,0
	mr r4,r26
	addi r5,r1,184
	mr r3,r29
	li r28,0
	addi r27,r22,16
	stw r0,184(r1)
	bl L__ZN5boost7polygon3getINS0_14rectangle_dataIfEEEENS0_23rectangle_interval_typeIT_E4typeERKS5_NS0_14orientation_2dEPNS_9enable_ifINS0_6gtl_ifINS0_20is_rectangle_conceptINS0_16geometry_conceptIS5_E4typeEE4typeEE4typeEvE4typeE$stub
	mr r3,r29
	stw r28,188(r1)
	addi r4,r1,188
	li r5,0
	addi r29,r1,400
	bl L__ZN5boost7polygon3getINS0_13interval_dataIfEEEENS0_24interval_coordinate_typeIT_E4typeERKS5_NS0_12direction_1dEPNS_9enable_ifINS0_6gtl_ifINS0_19is_interval_conceptINS0_16geometry_conceptIS5_E4typeEE4typeEE4typeEvE4typeE$stub
	lwz r0,0(r30)
	mr r3,r29
	mr r4,r27
	fmr f31,f1
	addi r5,r1,192
	li r6,0
	stw r0,192(r1)
	bl L__ZN5boost7polygon3getINS0_14rectangle_dataIfEEEENS0_23rectangle_interval_typeIT_E4typeERKS5_NS0_14orientation_2dEPNS_9enable_ifINS0_6gtl_ifINS0_20is_rectangle_conceptINS0_16geometry_conceptIS5_E4typeEE4typeEE4typeEvE4typeE$stub
	mr r3,r29
	stw r28,196(r1)
	addi r4,r1,196
	li r5,0
	bl L__ZN5boost7polygon3getINS0_13interval_dataIfEEEENS0_24interval_coordinate_typeIT_E4typeERKS5_NS0_12direction_1dEPNS_9enable_ifINS0_6gtl_ifINS0_19is_interval_conceptINS0_16geometry_conceptIS5_E4typeEE4typeEE4typeEvE4typeE$stub
	fcmpu cr7,f31,f1
	bgt cr7,L1949
	bne cr7,L1957
	lwz r0,0(r30)
	addi r29,r1,408
	li r6,0
	mr r4,r26
	addi r5,r1,200
	mr r3,r29
	xori r23,r0,1
	stw r23,200(r1)
	bl L__ZN5boost7polygon3getINS0_14rectangle_dataIfEEEENS0_23rectangle_interval_typeIT_E4typeERKS5_NS0_14orientation_2dEPNS_9enable_ifINS0_6gtl_ifINS0_20is_rectangle_conceptINS0_16geometry_conceptIS5_E4typeEE4typeEE4typeEvE4typeE$stub
	mr r3,r29
	stw r28,204(r1)
	addi r4,r1,204
	li r5,0
	addi r29,r1,416
	bl L__ZN5boost7polygon3getINS0_13interval_dataIfEEEENS0_24interval_coordinate_typeIT_E4typeERKS5_NS0_12direction_1dEPNS_9enable_ifINS0_6gtl_ifINS0_19is_interval_conceptINS0_16geometry_conceptIS5_E4typeEE4typeEE4typeEvE4typeE$stub
	mr r3,r29
	mr r4,r27
	stw r23,208(r1)
	fmr f31,f1
	addi r5,r1,208
	li r6,0
	bl L__ZN5boost7polygon3getINS0_14rectangle_dataIfEEEENS0_23rectangle_interval_typeIT_E4typeERKS5_NS0_14orientation_2dEPNS_9enable_ifINS0_6gtl_ifINS0_20is_rectangle_conceptINS0_16geometry_conceptIS5_E4typeEE4typeEE4typeEvE4typeE$stub
	mr r3,r29
	addi r4,r1,212
	stw r28,212(r1)
	li r5,0
	bl L__ZN5boost7polygon3getINS0_13interval_dataIfEEEENS0_24interval_coordinate_typeIT_E4typeERKS5_NS0_12direction_1dEPNS_9enable_ifINS0_6gtl_ifINS0_19is_interval_conceptINS0_16geometry_conceptIS5_E4typeEE4typeEE4typeEvE4typeE$stub
	fcmpu cr7,f31,f1
	bgt cr7,L1949
	bne cr7,L1957
	lwz r0,0(r30)
	addi r29,r1,424
	li r6,0
	mr r4,r26
	addi r5,r1,216
	mr r3,r29
	li r28,1
	stw r0,216(r1)
	bl L__ZN5boost7polygon3getINS0_14rectangle_dataIfEEEENS0_23rectangle_interval_typeIT_E4typeERKS5_NS0_14orientation_2dEPNS_9enable_ifINS0_6gtl_ifINS0_20is_rectangle_conceptINS0_16geometry_conceptIS5_E4typeEE4typeEE4typeEvE4typeE$stub
	mr r3,r29
	stw r28,220(r1)
	addi r4,r1,220
	li r5,0
	addi r29,r1,432
	bl L__ZN5boost7polygon3getINS0_13interval_dataIfEEEENS0_24interval_coordinate_typeIT_E4typeERKS5_NS0_12direction_1dEPNS_9enable_ifINS0_6gtl_ifINS0_19is_interval_conceptINS0_16geometry_conceptIS5_E4typeEE4typeEE4typeEvE4typeE$stub
	lwz r0,0(r30)
	mr r4,r27
	mr r3,r29
	fmr f31,f1
	addi r5,r1,224
	li r6,0
	stw r0,224(r1)
	bl L__ZN5boost7polygon3getINS0_14rectangle_dataIfEEEENS0_23rectangle_interval_typeIT_E4typeERKS5_NS0_14orientation_2dEPNS_9enable_ifINS0_6gtl_ifINS0_20is_rectangle_conceptINS0_16geometry_conceptIS5_E4typeEE4typeEE4typeEvE4typeE$stub
	mr r3,r29
	stw r28,228(r1)
	addi r4,r1,228
	li r5,0
	bl L__ZN5boost7polygon3getINS0_13interval_dataIfEEEENS0_24interval_coordinate_typeIT_E4typeERKS5_NS0_12direction_1dEPNS_9enable_ifINS0_6gtl_ifINS0_19is_interval_conceptINS0_16geometry_conceptIS5_E4typeEE4typeEE4typeEvE4typeE$stub
	fcmpu cr7,f31,f1
	bgt cr7,L1949
	bne cr7,L1957
	addi r29,r1,440
	li r6,0
	stw r23,232(r1)
	mr r4,r26
	mr r3,r29
	addi r5,r1,232
	bl L__ZN5boost7polygon3getINS0_14rectangle_dataIfEEEENS0_23rectangle_interval_typeIT_E4typeERKS5_NS0_14orientation_2dEPNS_9enable_ifINS0_6gtl_ifINS0_20is_rectangle_conceptINS0_16geometry_conceptIS5_E4typeEE4typeEE4typeEvE4typeE$stub
	mr r3,r29
	addi r4,r1,236
	stw r28,236(r1)
	li r5,0
	addi r29,r1,448
	bl L__ZN5boost7polygon3getINS0_13interval_dataIfEEEENS0_24interval_coordinate_typeIT_E4typeERKS5_NS0_12direction_1dEPNS_9enable_ifINS0_6gtl_ifINS0_19is_interval_conceptINS0_16geometry_conceptIS5_E4typeEE4typeEE4typeEvE4typeE$stub
	mr r4,r27
	mr r3,r29
	stw r23,240(r1)
	fmr f31,f1
	addi r5,r1,240
	li r6,0
	bl L__ZN5boost7polygon3getINS0_14rectangle_dataIfEEEENS0_23rectangle_interval_typeIT_E4typeERKS5_NS0_14orientation_2dEPNS_9enable_ifINS0_6gtl_ifINS0_20is_rectangle_conceptINS0_16geometry_conceptIS5_E4typeEE4typeEE4typeEvE4typeE$stub
	mr r3,r29
	addi r4,r1,244
	stw r28,244(r1)
	li r5,0
	bl L__ZN5boost7polygon3getINS0_13interval_dataIfEEEENS0_24interval_coordinate_typeIT_E4typeERKS5_NS0_12direction_1dEPNS_9enable_ifINS0_6gtl_ifINS0_19is_interval_conceptINS0_16geometry_conceptIS5_E4typeEE4typeEE4typeEvE4typeE$stub
	fcmpu cr7,f31,f1
	bnl cr7,L1949
L1957:
	lwz r0,12(r25)
	cmpwi cr7,r0,0
	bne cr7,L1966
	mr r4,r30
	mr r6,r25
	mr r7,r26
	mr r3,r24
	li r5,0
	bl L__ZNSt8_Rb_treeIN5boost7polygon14rectangle_dataIfEES3_St9_IdentityIS3_ENS1_22less_rectangle_conceptIS3_S3_EESaIS3_EE9_M_insertEPSt18_Rb_tree_node_baseSB_RKS3_$stub
	b L1928
L1966:
	mr r5,r22
	mr r4,r30
	mr r7,r26
	mr r3,r24
	mr r6,r22
	bl L__ZNSt8_Rb_treeIN5boost7polygon14rectangle_dataIfEES3_St9_IdentityIS3_ENS1_22less_rectangle_conceptIS3_S3_EESaIS3_EE9_M_insertEPSt18_Rb_tree_node_baseSB_RKS3_$stub
	b L1928
	.p2align 4,,15
L1949:
	mr r4,r30
	mr r5,r26
	addi r3,r1,256
	bl L__ZNSt8_Rb_treeIN5boost7polygon14rectangle_dataIfEES3_St9_IdentityIS3_ENS1_22less_rectangle_conceptIS3_S3_EESaIS3_EE13insert_uniqueERKS3_$stub
	lwz r0,256(r1)
	stw r0,0(r24)
	b L1928
	.p2align 4,,15
L1931:
	mr r3,r5
	addi r29,r1,328
	addi r27,r25,16
	li r28,0
	bl L__ZSt18_Rb_tree_incrementPSt18_Rb_tree_node_base$stub
	lwz r0,0(r30)
	li r6,0
	mr r4,r27
	addi r5,r1,120
	mr r22,r3
	mr r3,r29
	stw r0,120(r1)
	bl L__ZN5boost7polygon3getINS0_14rectangle_dataIfEEEENS0_23rectangle_interval_typeIT_E4typeERKS5_NS0_14orientation_2dEPNS_9enable_ifINS0_6gtl_ifINS0_20is_rectangle_conceptINS0_16geometry_conceptIS5_E4typeEE4typeEE4typeEvE4typeE$stub
	mr r3,r29
	stw r28,124(r1)
	addi r4,r1,124
	li r5,0
	addi r29,r1,336
	bl L__ZN5boost7polygon3getINS0_13interval_dataIfEEEENS0_24interval_coordinate_typeIT_E4typeERKS5_NS0_12direction_1dEPNS_9enable_ifINS0_6gtl_ifINS0_19is_interval_conceptINS0_16geometry_conceptIS5_E4typeEE4typeEE4typeEvE4typeE$stub
	lwz r0,0(r30)
	mr r4,r26
	mr r3,r29
	fmr f31,f1
	addi r5,r1,128
	li r6,0
	stw r0,128(r1)
	bl L__ZN5boost7polygon3getINS0_14rectangle_dataIfEEEENS0_23rectangle_interval_typeIT_E4typeERKS5_NS0_14orientation_2dEPNS_9enable_ifINS0_6gtl_ifINS0_20is_rectangle_conceptINS0_16geometry_conceptIS5_E4typeEE4typeEE4typeEvE4typeE$stub
	mr r3,r29
	stw r28,132(r1)
	addi r4,r1,132
	li r5,0
	bl L__ZN5boost7polygon3getINS0_13interval_dataIfEEEENS0_24interval_coordinate_typeIT_E4typeERKS5_NS0_12direction_1dEPNS_9enable_ifINS0_6gtl_ifINS0_19is_interval_conceptINS0_16geometry_conceptIS5_E4typeEE4typeEE4typeEvE4typeE$stub
	fcmpu cr7,f31,f1
	bgt cr7,L1949
	b L1970
	.p2align 4,,15
L1932:
	mr r4,r30
	mr r5,r26
	addi r3,r1,248
	bl L__ZNSt8_Rb_treeIN5boost7polygon14rectangle_dataIfEES3_St9_IdentityIS3_ENS1_22less_rectangle_conceptIS3_S3_EESaIS3_EE13insert_uniqueERKS3_$stub
	lwz r0,248(r1)
	stw r0,0(r24)
L1928:
	addi r1,r1,512
	mr r3,r24
	lwz r0,8(r1)
	lfd f31,-8(r1)
	lmw r22,-48(r1)
	mtlr r0
	blr
LFE12190:
	.align 2
	.p2align 4,,15
	.globl __ZN5boost7polygon19rectangle_formation12processEdge_ISt6vectorINS0_14rectangle_dataIfEESaIS5_EESt3setIS5_NS0_22less_rectangle_conceptIS5_S5_EES6_ES5_NS0_13interval_dataIfEEfEERT_SF_RT0_RKT2_RbRT1_T3_NS0_14orientation_2dE
	.weak_definition __ZN5boost7polygon19rectangle_formation12processEdge_ISt6vectorINS0_14rectangle_dataIfEESaIS5_EESt3setIS5_NS0_22less_rectangle_conceptIS5_S5_EES6_ES5_NS0_13interval_dataIfEEfEERT_SF_RT0_RKT2_RbRT1_T3_NS0_14orientation_2dE
	.private_extern __ZN5boost7polygon19rectangle_formation12processEdge_ISt6vectorINS0_14rectangle_dataIfEESaIS5_EESt3setIS5_NS0_22less_rectangle_conceptIS5_S5_EES6_ES5_NS0_13interval_dataIfEEfEERT_SF_RT0_RKT2_RbRT1_T3_NS0_14orientation_2dE
__ZN5boost7polygon19rectangle_formation12processEdge_ISt6vectorINS0_14rectangle_dataIfEESaIS5_EESt3setIS5_NS0_22less_rectangle_conceptIS5_S5_EES6_ES5_NS0_13interval_dataIfEEfEERT_SF_RT0_RKT2_RbRT1_T3_NS0_14orientation_2dE:
LFB11607:
	mflr r0
LCFI422:
	stfd f31,-8(r1)
LCFI423:
	fmr f31,f1
	stmw r13,-84(r1)
LCFI424:
	mr r23,r4
	stw r0,8(r1)
LCFI425:
	stwu r1,-400(r1)
LCFI426:
	mr r18,r3
	mr r27,r5
	mr r20,r6
	mr r24,r7
	mr r25,r9
	lwz r0,20(r4)
	cmpwi cr7,r0,0
	bne cr7,L1972
	b L1973
	.p2align 4,,15
L1974:
	cmpw cr7,r26,r30
	beq cr7,L1975
	lwz r2,0(r25)
	lfs f13,0(r27)
	slwi r2,r2,3
	add r2,r2,r30
	lfs f0,16(r2)
	fcmpu cr7,f0,f13
	bgt cr7,L1975
L1977:
	addi r0,r1,88
	li r21,0
	li r29,0
	addi r17,r1,100
	stw r0,252(r1)
	addi r0,r1,92
	addi r22,r1,56
	addi r14,r1,148
	stw r0,256(r1)
	addi r0,r1,80
	addi r13,r1,156
	addi r16,r1,196
	stw r0,260(r1)
	addi r0,r1,84
	addi r15,r1,228
	stw r0,264(r1)
	addi r0,r1,132
	stw r0,268(r1)
	addi r0,r1,140
	stw r0,272(r1)
	addi r0,r1,72
	stw r0,276(r1)
	addi r0,r1,76
	stw r0,280(r1)
	addi r0,r1,64
	stw r0,284(r1)
	addi r0,r1,68
	stw r0,288(r1)
	addi r0,r1,60
	stw r0,292(r1)
	addi r0,r1,212
	stw r0,296(r1)
	addi r0,r1,124
	stw r0,300(r1)
	b L2044
	.p2align 4,,15
L1975:
	lwz r0,12(r23)
	cmpw cr7,r0,r30
	beq cr7,L1977
	mr r3,r30
	bl L__ZSt18_Rb_tree_decrementPKSt18_Rb_tree_node_base$stub
	mr r30,r3
	b L1974
	.p2align 4,,15
L1981:
	stw r29,100(r1)
	stw r29,104(r1)
	mr r3,r17
	mr r4,r27
	li r5,1
	li r6,0
	mr r28,r29
	lfs f0,16(r2)
	stfs f0,100(r1)
	lfs f13,20(r2)
	stfs f13,104(r1)
	bl L__ZN5boost7polygon8containsINS0_13interval_dataIfEES3_EEbRKT_RKT0_bPNS_9enable_ifINS0_7gtl_andINS0_19is_interval_conceptINS0_16geometry_conceptIS4_E4typeEE4typeENSC_INSD_IS7_E4typeEE4typeEE4typeEvE4typeE$stub
	cmpwi cr7,r3,0
	beq cr7,L2041
	b L2045
L2047:
	slwi r2,r0,3
	addi r24,r1,56
	addi r29,r1,196
	addi r4,r1,212
	add r2,r2,r24
	mr r3,r29
	stfs f31,160(r2)
	stw r28,208(r1)
	stw r28,196(r1)
	stw r28,200(r1)
	stw r28,204(r1)
	bl L__ZN5boost7polygon6assignINS0_14rectangle_dataIfEES3_EERNS_9enable_ifINS0_9gtl_and_3INS0_10y_r_assignENS0_28is_mutable_rectangle_conceptINS0_16geometry_conceptIT_E4typeEE4typeENS0_20is_rectangle_conceptINS8_IT0_E4typeEE4typeEE4typeES9_E4typeERS9_RKSF_$stub
	lwz r5,4(r18)
	mr r3,r19
	mr r4,r18
	mr r6,r29
	bl L__ZNSt6vectorIN5boost7polygon14rectangle_dataIfEESaIS3_EE6insertEN9__gnu_cxx17__normal_iteratorIPS3_S5_EERKS3_$stub
L1985:
	mr r3,r30
	bl L__ZSt18_Rb_tree_incrementPKSt18_Rb_tree_node_base$stub
	mr r4,r26
	stw r30,196(r1)
	mr r28,r3
	mr r3,r30
	bl L__ZSt28_Rb_tree_rebalance_for_erasePSt18_Rb_tree_node_baseRS_$stub
	bl L__ZdlPv$stub
	lwz r2,20(r23)
	addi r2,r2,-1
	stw r2,20(r23)
	lwz r3,0(r25)
	lfs f13,0(r27)
	slwi r0,r3,3
	add r2,r0,r24
	lfs f0,156(r2)
	fcmpu cr7,f0,f13
	blt cr7,L1986
L1987:
	add r2,r0,r24
	lfs f13,4(r27)
	lfs f0,160(r2)
	fcmpu cr7,f0,f13
	bgt cr7,L1988
	b L1989
	.p2align 4,,15
L1990:
	addi r2,r9,1
	mr r4,r15
	mr r3,r16
	slwi r2,r2,2
	add r2,r2,r22
	stfs f31,172(r2)
	stw r29,196(r1)
	stw r29,200(r1)
	stw r29,204(r1)
	stw r29,208(r1)
	bl L__ZN5boost7polygon6assignINS0_14rectangle_dataIfEES3_EERNS_9enable_ifINS0_9gtl_and_3INS0_10y_r_assignENS0_28is_mutable_rectangle_conceptINS0_16geometry_conceptIT_E4typeEE4typeENS0_20is_rectangle_conceptINS8_IT0_E4typeEE4typeEE4typeES9_E4typeERS9_RKSF_$stub
	lwz r5,4(r18)
	mr r3,r19
	mr r4,r18
	mr r6,r16
	bl L__ZNSt6vectorIN5boost7polygon14rectangle_dataIfEESaIS3_EE6insertEN9__gnu_cxx17__normal_iteratorIPS3_S5_EERKS3_$stub
L1991:
	mr r3,r30
	bl L__ZSt18_Rb_tree_incrementPKSt18_Rb_tree_node_base$stub
	mr r4,r26
	stw r30,196(r1)
	mr r28,r3
	mr r3,r30
	bl L__ZSt28_Rb_tree_rebalance_for_erasePSt18_Rb_tree_node_baseRS_$stub
	bl L__ZdlPv$stub
	lwz r2,20(r23)
	addi r2,r2,-1
	stw r2,20(r23)
	lwz r0,0(r20)
	cmpwi cr7,r0,0
	beq cr7,L1992
	lwz r3,0(r25)
	lfs f10,0(r27)
	slwi r2,r3,3
	add r2,r2,r24
	lfs f0,4(r2)
	fcmpu cr7,f0,f10
	cror 30,29,30
	bne cr7,L1994
	cmpwi cr7,r21,0
	slwi r9,r3,1
	bne cr7,L1997
	addi r0,r9,1
	slwi r0,r0,2
	lfsx f0,r24,r0
	fcmpu cr7,f0,f10
	bng cr7,L1997
	lfs f0,0(r24)
	lfs f13,4(r24)
	add r2,r0,r22
	mr r3,r19
	lfs f12,8(r24)
	lfs f11,12(r24)
	mr r4,r23
	mr r5,r28
	lwz r6,296(r1)
	stfs f0,212(r1)
	stfs f13,216(r1)
	stfs f12,220(r1)
	stfs f11,224(r1)
	stfs f10,156(r2)
	stw r28,196(r1)
	bl L__ZNSt8_Rb_treeIN5boost7polygon14rectangle_dataIfEES3_St9_IdentityIS3_ENS1_22less_rectangle_conceptIS3_S3_EESaIS3_EE13insert_uniqueESt17_Rb_tree_iteratorIS3_ERKS3_$stub
	lwz r3,0(r25)
	lfs f13,4(r27)
	slwi r2,r3,3
	addi r2,r2,4
	lfsx f0,r2,r24
	fcmpu cr7,f0,f13
	bng cr7,L2000
	slwi r3,r3,3
	lwz r4,300(r1)
	li r5,0
	stfs f13,124(r1)
	stfs f0,128(r1)
	mr r30,r28
	li r21,1
	add r3,r24,r3
	bl L__ZN5boost7polygon6assignINS0_13interval_dataIfEES3_EERT_S5_RKT0_PNS_9enable_ifINS0_7gtl_andINS0_27is_mutable_interval_conceptINS0_16geometry_conceptIS4_E4typeEE4typeENS0_19is_interval_conceptINSC_IS6_E4typeEE4typeEE4typeEvE4typeE$stub
	b L2044
L2000:
	stw r21,0(r20)
	mr r30,r28
	li r21,1
	b L2044
L2048:
	lwz r11,292(r1)
L2004:
	lfs f0,0(r11)
	addi r0,r9,1
	mr r30,r28
	li r21,1
	slwi r0,r0,2
	stfsx f0,r24,r0
	b L2044
L1994:
	mr r3,r19
	mr r4,r23
	stw r28,196(r1)
	mr r5,r28
	mr r6,r24
	bl L__ZNSt8_Rb_treeIN5boost7polygon14rectangle_dataIfEES3_St9_IdentityIS3_ENS1_22less_rectangle_conceptIS3_S3_EESaIS3_EE13insert_uniqueESt17_Rb_tree_iteratorIS3_ERKS3_$stub
	lwz r3,0(r25)
	lwz r4,268(r1)
	li r5,0
	stfs f31,132(r1)
	stfs f31,136(r1)
	xori r3,r3,1
	slwi r3,r3,3
	add r3,r24,r3
	bl L__ZN5boost7polygon6assignINS0_13interval_dataIfEES3_EERT_S5_RKT0_PNS_9enable_ifINS0_7gtl_andINS0_27is_mutable_interval_conceptINS0_16geometry_conceptIS4_E4typeEE4typeENS0_19is_interval_conceptINSC_IS6_E4typeEE4typeEE4typeEvE4typeE$stub
	lwz r3,0(r25)
	lfs f13,0(r27)
	lwz r9,288(r1)
	slwi r0,r3,3
	add r2,r0,r22
	lfs f0,172(r2)
	stfs f13,68(r1)
	fcmpu cr7,f13,f0
	stfs f0,64(r1)
	blt cr7,L2008
	lwz r9,284(r1)
L2008:
	slwi r2,r3,3
	lfs f13,4(r27)
	lfs f12,0(r9)
	add r2,r2,r22
	lfs f0,176(r2)
	lwz r2,280(r1)
	stfs f13,76(r1)
	fcmpu cr7,f13,f0
	stfs f0,72(r1)
	bgt cr7,L2012
	lwz r2,276(r1)
L2012:
	lfs f0,0(r2)
	lwz r4,272(r1)
	add r3,r24,r0
	li r5,0
	stfs f12,140(r1)
	mr r30,r28
	li r21,1
	stfs f0,144(r1)
	bl L__ZN5boost7polygon6assignINS0_13interval_dataIfEES3_EERT_S5_RKT0_PNS_9enable_ifINS0_7gtl_andINS0_27is_mutable_interval_conceptINS0_16geometry_conceptIS4_E4typeEE4typeENS0_19is_interval_conceptINSC_IS6_E4typeEE4typeEE4typeEvE4typeE$stub
	b L2044
	.p2align 4,,15
L1992:
	li r0,1
	mr r4,r14
	li r5,0
	stw r0,0(r20)
	stfs f31,148(r1)
	stfs f31,152(r1)
	lwz r3,0(r25)
	xori r3,r3,1
	slwi r3,r3,3
	add r3,r24,r3
	bl L__ZN5boost7polygon6assignINS0_13interval_dataIfEES3_EERT_S5_RKT0_PNS_9enable_ifINS0_7gtl_andINS0_27is_mutable_interval_conceptINS0_16geometry_conceptIS4_E4typeEE4typeENS0_19is_interval_conceptINSC_IS6_E4typeEE4typeEE4typeEvE4typeE$stub
	lwz r3,0(r25)
	lfs f13,0(r27)
	lwz r9,264(r1)
	slwi r0,r3,3
	add r2,r0,r22
	lfs f0,172(r2)
	stfs f13,84(r1)
	fcmpu cr7,f13,f0
	stfs f0,80(r1)
	blt cr7,L2016
	lwz r9,260(r1)
L2016:
	slwi r2,r3,3
	lfs f13,4(r27)
	lfs f12,0(r9)
	add r2,r2,r22
	lfs f0,176(r2)
	lwz r2,256(r1)
	stfs f13,92(r1)
	fcmpu cr7,f13,f0
	stfs f0,88(r1)
	bgt cr7,L2020
	lwz r2,252(r1)
L2020:
	lfs f0,0(r2)
	add r3,r24,r0
	mr r4,r13
	li r5,0
	stfs f12,156(r1)
	mr r30,r28
	li r21,1
	stfs f0,160(r1)
	bl L__ZN5boost7polygon6assignINS0_13interval_dataIfEES3_EERT_S5_RKT0_PNS_9enable_ifINS0_7gtl_andINS0_27is_mutable_interval_conceptINS0_16geometry_conceptIS4_E4typeEE4typeENS0_19is_interval_conceptINSC_IS6_E4typeEE4typeEE4typeEvE4typeE$stub
	b L2044
L2046:
	mr r3,r30
	bl L__ZSt18_Rb_tree_incrementPKSt18_Rb_tree_node_base$stub
	mr r30,r3
L2044:
	cmpw cr7,r26,r30
	beq cr7,L2022
	lwz r0,0(r25)
	lfs f13,4(r27)
	slwi r0,r0,3
	add r2,r0,r30
	lfs f0,16(r2)
	fcmpu cr7,f0,f13
	cror 30,31,29
	beq cr7,L2022
	lfs f13,20(r2)
	lfs f0,0(r27)
	fcmpu cr7,f13,f0
	cror 30,29,30
	beq cr7,L1981
	b L2046
	.p2align 4,,15
L1973:
	lwz r0,0(r20)
	cmpwi cr7,r0,0
	beq cr7,L2025
	lwz r0,0(r25)
	xori r2,r0,1
	slwi r2,r2,3
	addi r2,r2,4
	lfsx f0,r2,r24
	fcmpu cr7,f31,f0
	bne cr7,L2027
	slwi r2,r0,3
	lfs f10,0(r27)
	addi r2,r2,4
	lfsx f0,r2,r24
	fcmpu cr6,f0,f10
	cror 30,27,24
	beq cr7,L2027
	bng cr6,L2030
	lfs f0,0(r24)
	lfs f12,8(r24)
	add r2,r1,r2
	addi r0,r23,4
	lfs f13,4(r24)
	lfs f11,12(r24)
	mr r4,r23
	addi r3,r1,248
	mr r5,r0
	addi r6,r1,212
	stfs f0,212(r1)
	stfs f12,220(r1)
	stfs f13,216(r1)
	stfs f11,224(r1)
	stfs f10,212(r2)
	stw r0,196(r1)
	bl L__ZNSt8_Rb_treeIN5boost7polygon14rectangle_dataIfEES3_St9_IdentityIS3_ENS1_22less_rectangle_conceptIS3_S3_EESaIS3_EE13insert_uniqueESt17_Rb_tree_iteratorIS3_ERKS3_$stub
	lwz r0,0(r25)
	lfs f0,4(r27)
	slwi r2,r0,3
	addi r2,r2,4
	lfsx f12,r2,r24
	fcmpu cr7,f12,f0
	bng cr7,L2033
	slwi r3,r0,3
	addi r4,r1,164
	stfs f0,164(r1)
	stfs f12,168(r1)
	li r5,0
	add r3,r24,r3
	bl L__ZN5boost7polygon6assignINS0_13interval_dataIfEES3_EERT_S5_RKT0_PNS_9enable_ifINS0_7gtl_andINS0_27is_mutable_interval_conceptINS0_16geometry_conceptIS4_E4typeEE4typeENS0_19is_interval_conceptINSC_IS6_E4typeEE4typeEE4typeEvE4typeE$stub
	b L1989
L2033:
	li r0,0
	stw r0,0(r20)
	b L1989
L2030:
	lfs f0,4(r27)
	stfsx f0,r2,r24
	b L1989
L2025:
	lwz r3,0(r25)
	lfs f11,12(r24)
	addi r29,r1,228
	addi r4,r1,172
	lfs f12,0(r24)
	lfs f13,4(r24)
	li r5,0
	lfs f0,8(r24)
	stfs f31,176(r1)
	stfs f31,172(r1)
	xori r3,r3,1
	slwi r3,r3,3
	stfs f11,240(r1)
	stfs f12,228(r1)
	stfs f13,232(r1)
	add r3,r29,r3
	stfs f0,236(r1)
	bl L__ZN5boost7polygon6assignINS0_13interval_dataIfEES3_EERT_S5_RKT0_PNS_9enable_ifINS0_7gtl_andINS0_27is_mutable_interval_conceptINS0_16geometry_conceptIS4_E4typeEE4typeENS0_19is_interval_conceptINSC_IS6_E4typeEE4typeEE4typeEvE4typeE$stub
	lwz r3,0(r25)
	mr r4,r27
	li r5,0
	slwi r3,r3,3
	add r3,r29,r3
	bl L__ZN5boost7polygon6assignINS0_13interval_dataIfEES3_EERT_S5_RKT0_PNS_9enable_ifINS0_7gtl_andINS0_27is_mutable_interval_conceptINS0_16geometry_conceptIS4_E4typeEE4typeENS0_19is_interval_conceptINSC_IS6_E4typeEE4typeEE4typeEvE4typeE$stub
	mr r4,r23
	mr r5,r29
	addi r3,r1,196
	bl L__ZNSt8_Rb_treeIN5boost7polygon14rectangle_dataIfEES3_St9_IdentityIS3_ENS1_22less_rectangle_conceptIS3_S3_EESaIS3_EE13insert_uniqueERKS3_$stub
	lwz r0,196(r1)
	stw r0,96(r1)
	b L1989
L1972:
	addi r29,r1,180
	li r0,0
	mr r4,r5
	li r5,0
	mr r3,r29
	stw r0,192(r1)
	stw r0,180(r1)
	stw r0,184(r1)
	stw r0,188(r1)
	bl L__ZN5boost7polygon6assignINS0_13interval_dataIfEES3_EERT_S5_RKT0_PNS_9enable_ifINS0_7gtl_andINS0_27is_mutable_interval_conceptINS0_16geometry_conceptIS4_E4typeEE4typeENS0_19is_interval_conceptINSC_IS6_E4typeEE4typeEE4typeEvE4typeE$stub
	addi r19,r1,248
	mr r4,r27
	li r5,0
	addi r3,r1,188
	addi r26,r23,4
	bl L__ZN5boost7polygon6assignINS0_13interval_dataIfEES3_EERT_S5_RKT0_PNS_9enable_ifINS0_7gtl_andINS0_27is_mutable_interval_conceptINS0_16geometry_conceptIS4_E4typeEE4typeENS0_19is_interval_conceptINSC_IS6_E4typeEE4typeEE4typeEvE4typeE$stub
	mr r5,r29
	mr r3,r19
	mr r4,r23
	bl L__ZNSt8_Rb_treeIN5boost7polygon14rectangle_dataIfEES3_St9_IdentityIS3_ENS1_22less_rectangle_conceptIS3_S3_EESaIS3_EE11lower_boundERKS3_$stub
	lwz r30,248(r1)
	b L1974
L2045:
	stw r29,212(r1)
	stw r29,216(r1)
	addi r24,r1,56
	stw r29,220(r1)
	stw r29,224(r1)
	lfs f0,16(r30)
	lwz r0,0(r25)
	xori r0,r0,1
	stfs f0,212(r1)
	slwi r2,r0,3
	add r2,r2,r30
	lfs f13,20(r30)
	stfs f13,216(r1)
	lfs f0,24(r30)
	stfs f0,220(r1)
	lfs f13,28(r30)
	stfs f13,224(r1)
	lfs f0,16(r2)
	fcmpu cr7,f0,f31
	bnl cr7,L1985
	b L2047
L1986:
	lfs f0,212(r1)
	lfs f13,216(r1)
	xori r3,r3,1
	addi r29,r1,228
	addi r4,r1,108
	li r5,0
	stfs f31,108(r1)
	stfs f31,112(r1)
	slwi r3,r3,3
	add r3,r29,r3
	stfs f0,228(r1)
	stfs f13,232(r1)
	lfs f0,220(r1)
	lfs f13,224(r1)
	stfs f0,236(r1)
	stfs f13,240(r1)
	bl L__ZN5boost7polygon6assignINS0_13interval_dataIfEES3_EERT_S5_RKT0_PNS_9enable_ifINS0_7gtl_andINS0_27is_mutable_interval_conceptINS0_16geometry_conceptIS4_E4typeEE4typeENS0_19is_interval_conceptINSC_IS6_E4typeEE4typeEE4typeEvE4typeE$stub
	lwz r2,0(r25)
	lfs f0,0(r27)
	mr r3,r19
	mr r6,r29
	mr r4,r23
	mr r5,r28
	slwi r2,r2,3
	add r2,r2,r24
	stfs f0,176(r2)
	stw r28,196(r1)
	bl L__ZNSt8_Rb_treeIN5boost7polygon14rectangle_dataIfEES3_St9_IdentityIS3_ENS1_22less_rectangle_conceptIS3_S3_EESaIS3_EE13insert_uniqueESt17_Rb_tree_iteratorIS3_ERKS3_$stub
	lwz r3,0(r25)
	slwi r0,r3,3
	b L1987
L1988:
	lfs f0,212(r1)
	lfs f13,216(r1)
	xori r3,r3,1
	addi r29,r1,228
	addi r4,r1,116
	li r5,0
	stfs f31,120(r1)
	stfs f31,116(r1)
	slwi r3,r3,3
	add r3,r29,r3
	stfs f0,228(r1)
	stfs f13,232(r1)
	lfs f0,220(r1)
	lfs f13,224(r1)
	stfs f0,236(r1)
	stfs f13,240(r1)
	bl L__ZN5boost7polygon6assignINS0_13interval_dataIfEES3_EERT_S5_RKT0_PNS_9enable_ifINS0_7gtl_andINS0_27is_mutable_interval_conceptINS0_16geometry_conceptIS4_E4typeEE4typeENS0_19is_interval_conceptINSC_IS6_E4typeEE4typeEE4typeEvE4typeE$stub
	lwz r2,0(r25)
	lfs f0,4(r27)
	mr r3,r19
	mr r4,r23
	mr r5,r28
	mr r6,r29
	slwi r2,r2,3
	add r2,r2,r24
	stfs f0,172(r2)
	stw r28,196(r1)
	bl L__ZNSt8_Rb_treeIN5boost7polygon14rectangle_dataIfEES3_St9_IdentityIS3_ENS1_22less_rectangle_conceptIS3_S3_EESaIS3_EE13insert_uniqueESt17_Rb_tree_iteratorIS3_ERKS3_$stub
	b L1989
	.p2align 4,,15
L2041:
	stw r29,228(r1)
	stw r29,232(r1)
	stw r29,236(r1)
	stw r29,240(r1)
	lfs f0,16(r30)
	lwz r0,0(r25)
	xori r0,r0,1
	stfs f0,228(r1)
	slwi r9,r0,1
	slwi r2,r9,2
	add r2,r2,r22
	lfs f13,20(r30)
	stfs f13,232(r1)
	lfs f0,24(r30)
	stfs f0,236(r1)
	lfs f13,28(r30)
	stfs f13,240(r1)
	lfs f0,172(r2)
	fcmpu cr7,f31,f0
	bgt cr7,L1990
	b L1991
	.p2align 4,,15
L1997:
	lfs f13,4(r27)
	slwi r2,r3,3
	mr r11,r22
	add r2,r2,r22
	stfs f13,56(r1)
	lfs f0,176(r2)
	fcmpu cr7,f0,f13
	stfs f0,60(r1)
	bng cr7,L2004
	b L2048
L2022:
	cmpwi cr7,r21,0
	beq cr7,L1973
	b L1989
L2027:
	addi r0,r23,4
	addi r3,r1,248
	mr r4,r23
	mr r6,r24
	mr r5,r0
	stw r0,196(r1)
	bl L__ZNSt8_Rb_treeIN5boost7polygon14rectangle_dataIfEES3_St9_IdentityIS3_ENS1_22less_rectangle_conceptIS3_S3_EESaIS3_EE13insert_uniqueESt17_Rb_tree_iteratorIS3_ERKS3_$stub
	li r0,0
	stw r0,0(r20)
	b L2025
	.p2align 4,,15
L1989:
	addi r1,r1,400
	mr r3,r18
	lwz r0,8(r1)
	lfd f31,-8(r1)
	lmw r13,-84(r1)
	mtlr r0
	blr
LFE11607:
	.align 2
	.p2align 4,,15
	.globl __ZN5boost7polygon15form_rectanglesISt6vectorINS0_14rectangle_dataIfEESaIS4_EEN9__gnu_cxx17__normal_iteratorIPSt4pairIfS9_IfiEES2_ISB_SaISB_EEEENS0_17rectangle_conceptEEEvRT_T0_SJ_NS0_14orientation_2dET1_
	.weak_definition __ZN5boost7polygon15form_rectanglesISt6vectorINS0_14rectangle_dataIfEESaIS4_EEN9__gnu_cxx17__normal_iteratorIPSt4pairIfS9_IfiEES2_ISB_SaISB_EEEENS0_17rectangle_conceptEEEvRT_T0_SJ_NS0_14orientation_2dET1_
	.private_extern __ZN5boost7polygon15form_rectanglesISt6vectorINS0_14rectangle_dataIfEESaIS4_EEN9__gnu_cxx17__normal_iteratorIPSt4pairIfS9_IfiEES2_ISB_SaISB_EEEENS0_17rectangle_conceptEEEvRT_T0_SJ_NS0_14orientation_2dET1_
__ZN5boost7polygon15form_rectanglesISt6vectorINS0_14rectangle_dataIfEESaIS4_EEN9__gnu_cxx17__normal_iteratorIPSt4pairIfS9_IfiEES2_ISB_SaISB_EEEENS0_17rectangle_conceptEEEvRT_T0_SJ_NS0_14orientation_2dET1_:
LFB10213:
	mflr r0
LCFI427:
	stfd f30,-16(r1)
LCFI428:
	stfd f31,-8(r1)
LCFI429:
	stmw r20,-64(r1)
LCFI430:
	mr r2,r4
	bcl 20,31,"L00000000074$pb"
"L00000000074$pb":
	stw r0,8(r1)
LCFI431:
	stwu r1,-240(r1)
LCFI432:
	li r0,0
	mflr r31
	mr r29,r2
	li r9,0
	mr r21,r3
	mr r23,r5
	stw r0,76(r1)
	stw r0,80(r1)
	addi r28,r1,136
	addi r22,r1,112
	stw r0,84(r1)
	stw r0,88(r1)
	mr r3,r28
	addi r4,r1,92
	lwz r2,0(r6)
	stw r0,156(r1)
	stw r9,132(r1)
	stw r0,92(r1)
	stw r0,96(r1)
	stw r0,100(r1)
	stw r0,104(r1)
	stw r9,128(r1)
	stw r2,152(r1)
	stw r9,112(r1)
	stw r9,116(r1)
	addic r10,r2,-1
	subfe r11,r10,r2
	stw r11,108(r1)
	stw r11,56(r1)
	stw r22,120(r1)
	stw r22,124(r1)
	stw r0,136(r1)
	stw r0,140(r1)
	stw r0,144(r1)
	stw r0,148(r1)
	bl L__ZN5boost7polygon6assignINS0_14rectangle_dataIfEES3_EERNS_9enable_ifINS0_9gtl_and_3INS0_10y_r_assignENS0_28is_mutable_rectangle_conceptINS0_16geometry_conceptIT_E4typeEE4typeENS0_20is_rectangle_conceptINS8_IT0_E4typeEE4typeEE4typeES9_E4typeERS9_RKSF_$stub
	addis r2,r31,ha16(LC10-"L00000000074$pb")
	cmpw cr7,r29,r23
	lfs f0,lo16(LC10-"L00000000074$pb")(r2)
	stfs f0,156(r1)
	beq cr7,L2070
	fmr f30,f0
	addi r27,r1,108
	addi r20,r1,168
	addi r24,r1,68
	addi r25,r1,132
	addi r26,r1,64
	.p2align 4,,15
L2052:
	lfs f31,0(r29)
	fcmpu cr7,f31,f30
	beq cr7,L2053
	lwz r0,132(r1)
	cmpwi cr7,r0,0
	beq cr7,L2056
	stw r22,60(r1)
	mr r3,r20
	mr r4,r27
	mr r5,r22
	mr r6,r28
LEHB121:
	bl L__ZNSt8_Rb_treeIN5boost7polygon14rectangle_dataIfEES3_St9_IdentityIS3_ENS1_22less_rectangle_conceptIS3_S3_EESaIS3_EE13insert_uniqueESt17_Rb_tree_iteratorIS3_ERKS3_$stub
	li r0,0
	stw r0,132(r1)
	.p2align 4,,15
L2056:
	stfs f31,156(r1)
	fmr f30,f31
L2053:
	addi r30,r29,12
	lfs f0,4(r29)
	lwz r0,152(r1)
	lfs f1,156(r1)
	mr r3,r21
	mr r4,r27
	lfs f13,4(r30)
	mr r5,r24
	mr r6,r25
	mr r7,r28
	mr r9,r26
	stw r0,64(r1)
	stfs f0,68(r1)
	stfs f13,72(r1)
	bl L__ZN5boost7polygon19rectangle_formation12processEdge_ISt6vectorINS0_14rectangle_dataIfEESaIS5_EESt3setIS5_NS0_22less_rectangle_conceptIS5_S5_EES6_ES5_NS0_13interval_dataIfEEfEERT_SF_RT0_RKT2_RbRT1_T3_NS0_14orientation_2dE$stub
LEHE121:
	lwz r0,8(r30)
	srawi r9,r0,31
	xor r2,r9,r0
	subf r2,r9,r2
	cmpwi cr7,r2,1
	ble cr7,L2058
	mr r30,r29
L2058:
	addi r29,r30,12
	cmpw cr7,r29,r23
	bne cr7,L2052
	b L2050
L2069:
L2061:
	mr r30,r3
	lwz r4,116(r1)
	mr r3,r27
LEHB122:
	bl L__ZNSt8_Rb_treeIN5boost7polygon14rectangle_dataIfEES3_St9_IdentityIS3_ENS1_22less_rectangle_conceptIS3_S3_EESaIS3_EE8_M_eraseEPSt13_Rb_tree_nodeIS3_E$stub
LEHE122:
	b L2074
L2068:
	b L2073
L2063:
L2074:
	mr r3,r30
L2073:
LEHB123:
	bl L__Unwind_Resume$stub
LEHE123:
	.p2align 4,,15
L2070:
	addi r27,r1,108
L2050:
	mr r3,r27
	lwz r4,116(r1)
LEHB124:
	bl L__ZNSt8_Rb_treeIN5boost7polygon14rectangle_dataIfEES3_St9_IdentityIS3_ENS1_22less_rectangle_conceptIS3_S3_EESaIS3_EE8_M_eraseEPSt13_Rb_tree_nodeIS3_E$stub
LEHE124:
	b L2075
L2067:
	b L2073
L2065:
L2075:
	addi r1,r1,240
	lwz r0,8(r1)
	lfd f30,-16(r1)
	lmw r20,-64(r1)
	lfd f31,-8(r1)
	mtlr r0
	blr
LFE10213:
	.section __DATA,__gcc_except_tab
GCC_except_table35:
LLSDA10213:
	.byte	0xff
	.byte	0xff
	.byte	0x3
	.byte	0x34
	.set L$set$320,LEHB121-LFB10213
	.long L$set$320
	.set L$set$321,LEHE121-LEHB121
	.long L$set$321
	.set L$set$322,L2069-LFB10213
	.long L$set$322
	.byte	0x0
	.set L$set$323,LEHB122-LFB10213
	.long L$set$323
	.set L$set$324,LEHE122-LEHB122
	.long L$set$324
	.set L$set$325,L2068-LFB10213
	.long L$set$325
	.byte	0x0
	.set L$set$326,LEHB123-LFB10213
	.long L$set$326
	.set L$set$327,LEHE123-LEHB123
	.long L$set$327
	.long	0x0
	.byte	0x0
	.set L$set$328,LEHB124-LFB10213
	.long L$set$328
	.set L$set$329,LEHE124-LEHB124
	.long L$set$329
	.set L$set$330,L2067-LFB10213
	.long L$set$330
	.byte	0x0
	.section __TEXT,__textcoal_nt,coalesced,pure_instructions
	.align 2
	.p2align 4,,15
	.globl __ZN17CocoaViewInstance12needsDisplayERKN8Fielding6RegionE
	.weak_definition __ZN17CocoaViewInstance12needsDisplayERKN8Fielding6RegionE
	.private_extern __ZN17CocoaViewInstance12needsDisplayERKN8Fielding6RegionE
__ZN17CocoaViewInstance12needsDisplayERKN8Fielding6RegionE:
LFB8447:
	mflr r0
LCFI433:
	stmw r22,-80(r1)
LCFI434:
	mr r26,r3
	bl saveFP+52 ; save f27-f31
LCFI435:
	stwu r1,-240(r1)
LCFI436:
	bcl 20,31,"L00000000075$pb"
"L00000000075$pb":
	mr r30,r4
	mflr r31
LEHB125:
	bl L_pthread_main_np$stub
LEHE125:
	mr. r28,r3
	mfcr r27
	beq cr0,L2077
	lwz r0,20(r30)
	li r29,0
	li r3,0
	stw r29,96(r1)
	stw r3,92(r1)
	stw r29,100(r1)
	cmpwi cr7,r0,0
	beq cr7,L2079
	lwz r3,4(r30)
	lwz r4,8(r30)
LEHB126:
	bl L__ZN5boost7polygon7gtlsortIN9__gnu_cxx17__normal_iteratorIPSt4pairIfS4_IfiEESt6vectorIS6_SaIS6_EEEEEEvT_SC_$stub
	stw r29,20(r30)
L2079:
	lwz r0,16(r30)
	cmpwi cr7,r0,0
	beq cr7,L2081
	addi r3,r30,4
	bl L__ZN5boost7polygon10boolean_op22default_arg_workaroundIiE14applyBooleanOrIfEEvRSt6vectorISt4pairIT_S6_IS7_iEESaIS9_EE$stub
	stw r29,16(r30)
L2081:
	lwz r0,0(r30)
	lwz r4,4(r30)
	mr r7,r30
	addi r3,r1,92
	lwz r5,8(r30)
	addi r6,r1,76
	stw r0,76(r1)
	bl L__ZN5boost7polygon15form_rectanglesISt6vectorINS0_14rectangle_dataIfEESaIS4_EEN9__gnu_cxx17__normal_iteratorIPSt4pairIfS9_IfiEES2_ISB_SaISB_EEEENS0_17rectangle_conceptEEEvRT_T0_SJ_NS0_14orientation_2dET1_$stub
	lwz r3,92(r1)
	lwz r29,96(r1)
	cmpw cr7,r29,r3
	mr r30,r3
	beq cr7,L2084
	addis r2,r31,ha16(L_ZL27_OBJC_SELECTOR_REFERENCES_6-"L00000000075$pb")
	addi r27,r26,16
	addi r22,r1,60
	addi r23,r1,64
	lwz r28,lo16(L_ZL27_OBJC_SELECTOR_REFERENCES_6-"L00000000075$pb")(r2)
	addi r24,r1,68
	addi r25,r1,72
	.p2align 4,,15
L2086:
	mr r3,r30
	li r29,1
	bl L__ZN5boost7polygon2xlINS0_14rectangle_dataIfEEEENS_9enable_ifINS0_7gtl_andINS0_6y_r_xlENS0_6gtl_ifINS0_20is_rectangle_conceptINS0_16geometry_conceptIT_E4typeEE4typeEE4typeEE4typeENS0_25rectangle_coordinate_typeISA_E4typeEE4typeERKSA_$stub
	mr r4,r22
	mr r3,r27
	stw r29,60(r1)
	fmr f27,f1
	bl L__ZN5boost7polygon5deltaINS0_14rectangle_dataIfEEEENS_9enable_ifINS0_7gtl_andINS0_9y_r_deltaENS0_6gtl_ifINS0_20is_rectangle_conceptINS0_16geometry_conceptIT_E4typeEE4typeEE4typeEE4typeENS0_25rectangle_difference_typeISA_E4typeEE4typeERKSA_NS0_14orientation_2dE$stub
	mr r3,r30
	fmr f31,f1
	bl L__ZN5boost7polygon2ylINS0_14rectangle_dataIfEEEENS_9enable_ifINS0_7gtl_andINS0_6y_r_ylENS0_6gtl_ifINS0_20is_rectangle_conceptINS0_16geometry_conceptIT_E4typeEE4typeEE4typeEE4typeENS0_25rectangle_coordinate_typeISA_E4typeEE4typeERKSA_$stub
	mr r3,r30
	mr r4,r23
	stw r29,64(r1)
	fmr f29,f1
	bl L__ZN5boost7polygon5deltaINS0_14rectangle_dataIfEEEENS_9enable_ifINS0_7gtl_andINS0_9y_r_deltaENS0_6gtl_ifINS0_20is_rectangle_conceptINS0_16geometry_conceptIT_E4typeEE4typeEE4typeEE4typeENS0_25rectangle_difference_typeISA_E4typeEE4typeERKSA_NS0_14orientation_2dE$stub
	li r0,0
	mr r3,r30
	mr r4,r24
	fmr f28,f1
	stw r0,68(r1)
	bl L__ZN5boost7polygon5deltaINS0_14rectangle_dataIfEEEENS_9enable_ifINS0_7gtl_andINS0_9y_r_deltaENS0_6gtl_ifINS0_20is_rectangle_conceptINS0_16geometry_conceptIT_E4typeEE4typeEE4typeEE4typeENS0_25rectangle_difference_typeISA_E4typeEE4typeERKSA_NS0_14orientation_2dE$stub
	mr r3,r30
	mr r4,r25
	stw r29,72(r1)
	fsubs f31,f31,f29
	fmr f30,f1
	bl L__ZN5boost7polygon5deltaINS0_14rectangle_dataIfEEEENS_9enable_ifINS0_7gtl_andINS0_9y_r_deltaENS0_6gtl_ifINS0_20is_rectangle_conceptINS0_16geometry_conceptIT_E4typeEE4typeEE4typeEE4typeENS0_25rectangle_difference_typeISA_E4typeEE4typeERKSA_NS0_14orientation_2dE$stub
	stfs f27,104(r1)
	mr r4,r28
	stfs f1,116(r1)
	fsubs f31,f31,f28
	stfs f30,112(r1)
	lwz r5,104(r1)
	lwz r8,116(r1)
	lwz r3,12(r26)
	stfs f31,108(r1)
	lwz r7,112(r1)
	nop
	nop
	lwz r6,108(r1)
	bla 0xfffeff00
LEHE126:
	lwz r29,96(r1)
	addi r30,r30,16
	cmpw cr7,r29,r30
	bne cr7,L2086
	b L2154
L2153:
L2088:
	mr r28,r3
	lwz r4,96(r1)
	lwz r3,92(r1)
	addi r5,r1,56
	bl L__ZSt8_DestroyIPN5boost7polygon14rectangle_dataIfEESaIS3_EEvT_S6_T0_$stub
	lwz r3,92(r1)
	cmpwi cr7,r3,0
	beq cr7,L2089
	bl L__ZdlPv$stub
L2089:
	mr r3,r28
LEHB127:
	bl L__Unwind_Resume$stub
	.p2align 4,,15
L2154:
	lwz r3,92(r1)
L2084:
	mr r4,r29
	addi r5,r1,57
	bl L__ZSt8_DestroyIPN5boost7polygon14rectangle_dataIfEESaIS3_EEvT_S6_T0_$stub
	lwz r3,92(r1)
	cmpwi cr7,r3,0
	beq cr7,L2138
	bl L__ZdlPv$stub
	b L2138
L2077:
	addi r29,r26,84
	mr r3,r29
	bl L_pthread_mutex_lock$stub
LEHE127:
	mr. r10,r3
	beq cr0,L2093
	addis r2,r31,ha16(__ZTVN5boost16exception_detail19error_info_injectorINS_10lock_errorEEE-"L00000000075$pb")
	addis r29,r31,ha16(__ZTVN5boost10lock_errorE-"L00000000075$pb")
	stw r10,124(r1)
	stw r28,140(r1)
	stw r10,88(r1)
	stw r28,132(r1)
	stw r28,136(r1)
	la r2,lo16(__ZTVN5boost16exception_detail19error_info_injectorINS_10lock_errorEEE-"L00000000075$pb")(r2)
	la r29,lo16(__ZTVN5boost10lock_errorE-"L00000000075$pb")(r29)
	addis r9,r31,ha16(__ZTVN5boost16thread_exceptionE-"L00000000075$pb")
	addi r11,r2,28
	addi r24,r2,8
	addis r2,r31,ha16(L__ZTVN5boost9exceptionE$non_lazy_ptr-"L00000000075$pb")
	li r0,-1
	addi r29,r29,8
	la r9,lo16(__ZTVN5boost16thread_exceptionE-"L00000000075$pb")(r9)
	stw r11,128(r1)
	stw r24,120(r1)
	lwz r2,lo16(L__ZTVN5boost9exceptionE$non_lazy_ptr-"L00000000075$pb")(r2)
	stw r0,144(r1)
	li r3,32
	stw r29,84(r1)
	addi r25,r9,8
	addi r26,r2,8
	bl L___cxa_allocate_exception$stub
	lwz r0,124(r1)
	mr r30,r3
	lwz r3,132(r1)
	stw r29,0(r30)
	stw r26,8(r30)
	stw r0,4(r30)
	cmpwi cr7,r3,0
	stw r3,12(r30)
	beq cr7,L2095
	lwz r2,0(r3)
	lwz r0,12(r2)
	mtctr r0
	mr r12,r0
LEHB128:
	bctrl
LEHE128:
L2095:
	addis r2,r31,ha16(__ZTVN5boost16exception_detail10clone_implINS0_19error_info_injectorINS_10lock_errorEEEEE-"L00000000075$pb")
	lwz r7,136(r1)
	lwz r8,140(r1)
	lwz r10,144(r1)
	addis r9,r31,ha16(__ZTVN5boost16exception_detail10clone_baseE-"L00000000075$pb")
	li r29,0
	la r2,lo16(__ZTVN5boost16exception_detail10clone_implINS0_19error_info_injectorINS_10lock_errorEEEEE-"L00000000075$pb")(r2)
	la r9,lo16(__ZTVN5boost16exception_detail10clone_baseE-"L00000000075$pb")(r9)
	addi r0,r2,52
	addi r11,r2,8
	stw r7,16(r30)
	stw r8,20(r30)
	stw r10,24(r30)
	stw r0,28(r30)
	addi r2,r2,36
	stw r11,0(r30)
	stw r2,8(r30)
	addi r23,r9,8
	lwz r4,132(r1)
	cmpwi cr7,r4,0
	bne cr7,L2097
	mfcr r27
	rlwinm r27,r27,28,0xf0000000
	b L2098
L2147:
L2099:
	stw r25,0(r30)
	mr r28,r3
	mr r3,r30
	bl L__ZNSt9exceptionD2Ev$stub
	b L2122
	.p2align 4,,15
L2097:
	lwz r2,0(r4)
	addi r3,r1,80
	lwz r0,20(r2)
	mtctr r0
	mr r12,r0
LEHB129:
	bctrl
LEHE129:
	lwz r29,80(r1)
	cmpwi cr0,r29,0
	mfcr r27
	beq cr0,L2098
	lwz r2,0(r29)
	mr r3,r29
	lwz r0,12(r2)
	mtctr r0
	mr r12,r0
LEHB130:
	bctrl
LEHE130:
	lwz r2,0(r29)
	mr r3,r29
	lwz r0,16(r2)
	mtctr r0
	mr r12,r0
LEHB131:
	bctrl
LEHE131:
	b L2098
L2145:
L2103:
	lwz r2,0(r29)
	mr r28,r3
	mr r3,r29
	lwz r0,16(r2)
	mtctr r0
	mr r12,r0
	bctrl
	b L2111
	.p2align 4,,15
L2098:
	lwz r3,12(r30)
	lwz r0,140(r1)
	lwz r2,144(r1)
	cmpwi cr7,r3,0
	stw r0,20(r30)
	lwz r0,136(r1)
	stw r2,24(r30)
	stw r0,16(r30)
	beq cr7,L2104
	lwz r2,0(r3)
	lwz r0,16(r2)
	mtctr r0
	mr r12,r0
LEHB132:
	bctrl
	cmpwi cr7,r3,0
	beq cr7,L2104
	li r0,0
	stw r0,12(r30)
L2104:
	mtcrf 128,r27
	stw r29,12(r30)
	beq cr0,L2109
	lwz r2,0(r29)
	mr r3,r29
	lwz r0,12(r2)
	mtctr r0
	mr r12,r0
	bctrl
LEHE132:
	mtcrf 128,r27
	beq- cr0,L2109
	lwz r2,0(r29)
	mr r3,r29
	lwz r0,16(r2)
	mtctr r0
	mr r12,r0
LEHB133:
	bctrl
LEHE133:
	b L2109
L2146:
	mr r28,r3
L2111:
	mtcrf 128,r27
	beq cr0,L2114
	lwz r2,0(r29)
	mr r3,r29
	lwz r0,16(r2)
	mtctr r0
	mr r12,r0
	bctrl
	b L2114
L2148:
	mr r28,r3
L2114:
L2149:
L2116:
	stw r23,28(r30)
	stw r24,0(r30)
	addi r29,r30,8
	stw r26,8(r30)
	lwz r3,4(r29)
	cmpwi cr7,r3,0
	beq cr7,L2117
	lwz r2,0(r3)
	lwz r0,16(r2)
	mtctr r0
	mr r12,r0
LEHB134:
	bctrl
LEHE134:
	cmpwi cr7,r3,0
	beq cr7,L2117
	li r0,0
	stw r0,4(r29)
	b L2117
L2144:
	b L2158
L2121:
L2117:
	stw r25,0(r30)
	mr r3,r30
	bl L__ZNSt9exceptionD2Ev$stub
L2150:
L2122:
L2151:
L2123:
	mr r3,r30
	bl L___cxa_free_exception$stub
	lwz r3,132(r1)
	stw r24,120(r1)
	stw r26,128(r1)
	cmpwi cr7,r3,0
	beq cr7,L2124
	lwz r2,0(r3)
	lwz r0,16(r2)
	mtctr r0
	mr r12,r0
LEHB135:
	bctrl
LEHE135:
	cmpwi cr7,r3,0
	beq cr7,L2124
	li r0,0
	stw r0,132(r1)
L2124:
	addi r3,r1,120
	stw r25,120(r1)
	bl L__ZNSt9exceptionD2Ev$stub
	b L2134
L2143:
	b L2158
L2128:
	.p2align 4,,15
L2109:
	lwz r3,132(r1)
	stw r24,120(r1)
	stw r26,128(r1)
	cmpwi cr7,r3,0
	beq- cr7,L2129
	lwz r2,0(r3)
	lwz r0,16(r2)
	mtctr r0
	mr r12,r0
LEHB136:
	bctrl
LEHE136:
	cmpwi cr7,r3,0
	beq cr7,L2129
	li r0,0
	stw r0,132(r1)
L2129:
	addi r3,r1,120
	stw r25,120(r1)
	bl L__ZNSt9exceptionD2Ev$stub
	addis r4,r31,ha16(__ZTIN5boost16exception_detail10clone_implINS0_19error_info_injectorINS_10lock_errorEEEEE-"L00000000075$pb")
	addis r5,r31,ha16(L__ZN5boost16exception_detail10clone_implINS0_19error_info_injectorINS_10lock_errorEEEED1Ev$non_lazy_ptr-"L00000000075$pb")
	mr r3,r30
	la r4,lo16(__ZTIN5boost16exception_detail10clone_implINS0_19error_info_injectorINS_10lock_errorEEEEE-"L00000000075$pb")(r4)
	lwz r5,lo16(L__ZN5boost16exception_detail10clone_implINS0_19error_info_injectorINS_10lock_errorEEEED1Ev$non_lazy_ptr-"L00000000075$pb")(r5)
LEHB137:
	bl L___cxa_throw$stub
LEHE137:
L2142:
L2158:
	cmpwi cr7,r4,-1
	bne cr7,L2156
L2133:
LEHB138:
	bl L___cxa_call_unexpected$stub
L2152:
	mr r28,r3
L2134:
	addi r3,r1,84
	stw r25,84(r1)
	bl L__ZNSt9exceptionD2Ev$stub
	mr r3,r28
L2156:
	bl L__Unwind_Resume$stub
	.p2align 4,,15
L2093:
	mr r4,r30
	addi r3,r26,32
	bl L__ZN5boost7polygon9operatorspLIfNS0_19polygon_90_set_dataIfEEEERNS_9enable_ifINS0_7gtl_andINS1_9y_ps90_peENS0_22is_polygon_90_set_typeIT0_E4typeEE4typeENS3_IT_EEE4typeERSF_RKS9_$stub
	mr r3,r29
	bl L_pthread_mutex_unlock$stub
	cmpwi cr7,r3,0
	beq+ cr7,L2136
	addis r3,r31,ha16(LC7-"L00000000075$pb")
	addis r4,r31,ha16(LC8-"L00000000075$pb")
	addis r6,r31,ha16(LC9-"L00000000075$pb")
	li r5,61
	la r3,lo16(LC7-"L00000000075$pb")(r3)
	la r4,lo16(LC8-"L00000000075$pb")(r4)
	la r6,lo16(LC9-"L00000000075$pb")(r6)
	bl L___eprintf$stub
	.p2align 4,,15
L2136:
	lwz r3,68(r26)
	bl L_CFRunLoopSourceSignal$stub
	lwz r3,56(r26)
	bl L_CFRunLoopWakeUp$stub
LEHE138:
L2138:
	addi r1,r1,240
	lwz r0,8(r1)
	lmw r22,-80(r1)
	mtlr r0
	b restFP+52 ; restore f27-f31
LFE8447:
	.section __DATA,__gcc_except_tab
GCC_except_table36:
	.align 2
LLSDA8447:
	.byte	0xff
	.byte	0x0
	.byte	0xbc,0x1
	.byte	0x3
	.byte	0xb6,0x1
	.set L$set$331,LEHB125-LFB8447
	.long L$set$331
	.set L$set$332,LEHE125-LEHB125
	.long L$set$332
	.long	0x0
	.byte	0x0
	.set L$set$333,LEHB126-LFB8447
	.long L$set$333
	.set L$set$334,LEHE126-LEHB126
	.long L$set$334
	.set L$set$335,L2153-LFB8447
	.long L$set$335
	.byte	0x0
	.set L$set$336,LEHB127-LFB8447
	.long L$set$336
	.set L$set$337,LEHE127-LEHB127
	.long L$set$337
	.long	0x0
	.byte	0x0
	.set L$set$338,LEHB128-LFB8447
	.long L$set$338
	.set L$set$339,LEHE128-LEHB128
	.long L$set$339
	.set L$set$340,L2147-LFB8447
	.long L$set$340
	.byte	0x0
	.set L$set$341,LEHB129-LFB8447
	.long L$set$341
	.set L$set$342,LEHE129-LEHB129
	.long L$set$342
	.set L$set$343,L2146-LFB8447
	.long L$set$343
	.byte	0x0
	.set L$set$344,LEHB130-LFB8447
	.long L$set$344
	.set L$set$345,LEHE130-LEHB130
	.long L$set$345
	.set L$set$346,L2145-LFB8447
	.long L$set$346
	.byte	0x0
	.set L$set$347,LEHB131-LFB8447
	.long L$set$347
	.set L$set$348,LEHE131-LEHB131
	.long L$set$348
	.set L$set$349,L2146-LFB8447
	.long L$set$349
	.byte	0x0
	.set L$set$350,LEHB132-LFB8447
	.long L$set$350
	.set L$set$351,LEHE132-LEHB132
	.long L$set$351
	.set L$set$352,L2146-LFB8447
	.long L$set$352
	.byte	0x0
	.set L$set$353,LEHB133-LFB8447
	.long L$set$353
	.set L$set$354,LEHE133-LEHB133
	.long L$set$354
	.set L$set$355,L2148-LFB8447
	.long L$set$355
	.byte	0x0
	.set L$set$356,LEHB134-LFB8447
	.long L$set$356
	.set L$set$357,LEHE134-LEHB134
	.long L$set$357
	.set L$set$358,L2144-LFB8447
	.long L$set$358
	.byte	0x1
	.set L$set$359,LEHB135-LFB8447
	.long L$set$359
	.set L$set$360,LEHE135-LEHB135
	.long L$set$360
	.set L$set$361,L2143-LFB8447
	.long L$set$361
	.byte	0x1
	.set L$set$362,LEHB136-LFB8447
	.long L$set$362
	.set L$set$363,LEHE136-LEHB136
	.long L$set$363
	.set L$set$364,L2142-LFB8447
	.long L$set$364
	.byte	0x1
	.set L$set$365,LEHB137-LFB8447
	.long L$set$365
	.set L$set$366,LEHE137-LEHB137
	.long L$set$366
	.set L$set$367,L2152-LFB8447
	.long L$set$367
	.byte	0x0
	.set L$set$368,LEHB138-LFB8447
	.long L$set$368
	.set L$set$369,LEHE138-LEHB138
	.long L$set$369
	.long	0x0
	.byte	0x0
	.byte	0x7f
	.byte	0x0
	.align 2
	.byte	0x0
	.section __TEXT,__textcoal_nt,coalesced,pure_instructions
	.text
	.align 2
	.p2align 4,,15
	.globl __ZN8Fielding13HostViewCocoa12needsDisplayERKNS_6RegionE
	.private_extern __ZN8Fielding13HostViewCocoa12needsDisplayERKNS_6RegionE
__ZN8Fielding13HostViewCocoa12needsDisplayERKNS_6RegionE:
LFB8477:
	lwz r3,96(r3)
	cmpwi cr7,r3,0
	beqlr cr7
	b L__ZN17CocoaViewInstance12needsDisplayERKN8Fielding6RegionE$stub
LFE8477:
	.section __TEXT,__textcoal_nt,coalesced,pure_instructions
	.align 2
	.p2align 4,,15
	.globl __ZN17CocoaViewInstance17runLoopFireStaticEPv
	.weak_definition __ZN17CocoaViewInstance17runLoopFireStaticEPv
	.private_extern __ZN17CocoaViewInstance17runLoopFireStaticEPv
__ZN17CocoaViewInstance17runLoopFireStaticEPv:
LFB8464:
	mflr r0
LCFI437:
	mfcr r2
LCFI438:
	bcl 20,31,"L00000000076$pb"
"L00000000076$pb":
	stmw r24,-32(r1)
LCFI439:
	mflr r31
	stw r0,8(r1)
LCFI440:
	li r30,0
	addi r27,r3,84
	stw r2,4(r1)
LCFI441:
	stwu r1,-208(r1)
LCFI442:
	li r0,0
	mr r28,r3
	mr r3,r27
	stw r0,76(r1)
	stw r30,80(r1)
	stw r30,84(r1)
	stw r30,88(r1)
	stw r30,92(r1)
	stw r30,96(r1)
	stw r30,100(r1)
	stw r30,104(r1)
	stw r30,108(r1)
LEHB139:
	bl L_pthread_mutex_lock$stub
LEHE139:
	mr. r10,r3
	beq cr0,L2165
	addis r2,r31,ha16(__ZTVN5boost16exception_detail19error_info_injectorINS_10lock_errorEEE-"L00000000076$pb")
	addis r29,r31,ha16(__ZTVN5boost10lock_errorE-"L00000000076$pb")
	stw r10,140(r1)
	stw r10,72(r1)
	stw r30,148(r1)
	stw r30,152(r1)
	stw r30,156(r1)
	la r2,lo16(__ZTVN5boost16exception_detail19error_info_injectorINS_10lock_errorEEE-"L00000000076$pb")(r2)
	la r29,lo16(__ZTVN5boost10lock_errorE-"L00000000076$pb")(r29)
	addis r9,r31,ha16(__ZTVN5boost16thread_exceptionE-"L00000000076$pb")
	addi r11,r2,28
	addi r26,r2,8
	addis r2,r31,ha16(L__ZTVN5boost9exceptionE$non_lazy_ptr-"L00000000076$pb")
	li r0,-1
	addi r29,r29,8
	la r9,lo16(__ZTVN5boost16thread_exceptionE-"L00000000076$pb")(r9)
	stw r11,144(r1)
	stw r26,136(r1)
	lwz r2,lo16(L__ZTVN5boost9exceptionE$non_lazy_ptr-"L00000000076$pb")(r2)
	stw r0,160(r1)
	li r3,32
	stw r29,68(r1)
	addi r25,r9,8
	addi r27,r2,8
	bl L___cxa_allocate_exception$stub
	lwz r0,140(r1)
	mr r28,r3
	lwz r3,148(r1)
	stw r29,0(r28)
	stw r27,8(r28)
	stw r0,4(r28)
	cmpwi cr7,r3,0
	stw r3,12(r28)
	beq cr7,L2167
	lwz r2,0(r3)
	lwz r0,12(r2)
	mtctr r0
	mr r12,r0
LEHB140:
	bctrl
LEHE140:
L2167:
	addis r2,r31,ha16(__ZTVN5boost16exception_detail10clone_implINS0_19error_info_injectorINS_10lock_errorEEEEE-"L00000000076$pb")
	lwz r7,152(r1)
	lwz r8,156(r1)
	lwz r10,160(r1)
	addis r9,r31,ha16(__ZTVN5boost16exception_detail10clone_baseE-"L00000000076$pb")
	li r29,0
	la r2,lo16(__ZTVN5boost16exception_detail10clone_implINS0_19error_info_injectorINS_10lock_errorEEEEE-"L00000000076$pb")(r2)
	la r9,lo16(__ZTVN5boost16exception_detail10clone_baseE-"L00000000076$pb")(r9)
	addi r0,r2,52
	addi r11,r2,8
	stw r7,16(r28)
	stw r8,20(r28)
	stw r10,24(r28)
	stw r0,28(r28)
	addi r2,r2,36
	stw r11,0(r28)
	stw r2,8(r28)
	addi r24,r9,8
	lwz r4,148(r1)
	cmpwi cr7,r4,0
	bne cr7,L2169
	mcrf cr4,cr7
	b L2170
L2245:
L2171:
	stw r25,0(r28)
	mr r30,r3
	mr r3,r28
	bl L__ZNSt9exceptionD2Ev$stub
	b L2194
	.p2align 4,,15
L2169:
	lwz r2,0(r4)
	cmpwi cr4,r30,0
	addi r3,r1,64
	lwz r0,20(r2)
	mtctr r0
	mr r12,r0
LEHB141:
	bctrl
LEHE141:
	lwz r29,64(r1)
	cmpwi cr4,r29,0
	beq cr4,L2170
	lwz r2,0(r29)
	mr r3,r29
	lwz r0,12(r2)
	mtctr r0
	mr r12,r0
LEHB142:
	bctrl
LEHE142:
	lwz r2,0(r29)
	mr r3,r29
	lwz r0,16(r2)
	mtctr r0
	mr r12,r0
LEHB143:
	bctrl
LEHE143:
	b L2170
L2243:
L2175:
	lwz r2,0(r29)
	mr r30,r3
	mr r3,r29
	lwz r0,16(r2)
	mtctr r0
	mr r12,r0
	bctrl
	b L2183
	.p2align 4,,15
L2170:
	lwz r3,12(r28)
	lwz r0,156(r1)
	lwz r2,160(r1)
	cmpwi cr7,r3,0
	stw r0,20(r28)
	lwz r0,152(r1)
	stw r2,24(r28)
	stw r0,16(r28)
	beq cr7,L2176
	lwz r2,0(r3)
	lwz r0,16(r2)
	mtctr r0
	mr r12,r0
LEHB144:
	bctrl
	cmpwi cr7,r3,0
	beq cr7,L2176
	li r0,0
	stw r0,12(r28)
L2176:
	stw r29,12(r28)
	beq cr4,L2181
	lwz r2,0(r29)
	mr r3,r29
	lwz r0,12(r2)
	mtctr r0
	mr r12,r0
	bctrl
LEHE144:
	beq- cr4,L2181
	lwz r2,0(r29)
	mr r3,r29
	lwz r0,16(r2)
	mtctr r0
	mr r12,r0
LEHB145:
	bctrl
LEHE145:
	b L2181
L2244:
	mr r30,r3
L2183:
	beq cr4,L2186
	lwz r2,0(r29)
	mr r3,r29
	lwz r0,16(r2)
	mtctr r0
	mr r12,r0
	bctrl
	b L2186
L2246:
	mr r30,r3
L2186:
L2247:
L2188:
	stw r24,28(r28)
	stw r26,0(r28)
	addi r29,r28,8
	stw r27,8(r28)
	lwz r3,4(r29)
	cmpwi cr7,r3,0
	beq cr7,L2189
	lwz r2,0(r3)
	lwz r0,16(r2)
	mtctr r0
	mr r12,r0
LEHB146:
	bctrl
LEHE146:
	cmpwi cr7,r3,0
	beq cr7,L2189
	li r0,0
	stw r0,4(r29)
	b L2189
L2242:
	b L2261
L2193:
L2189:
	stw r25,0(r28)
	mr r3,r28
	bl L__ZNSt9exceptionD2Ev$stub
L2248:
L2194:
L2249:
L2195:
	mr r3,r28
	bl L___cxa_free_exception$stub
	lwz r3,148(r1)
	stw r26,136(r1)
	stw r27,144(r1)
	cmpwi cr7,r3,0
	beq cr7,L2196
	lwz r2,0(r3)
	lwz r0,16(r2)
	mtctr r0
	mr r12,r0
LEHB147:
	bctrl
LEHE147:
	cmpwi cr7,r3,0
	beq cr7,L2196
	li r0,0
	stw r0,148(r1)
L2196:
	addi r3,r1,136
	stw r25,136(r1)
	bl L__ZNSt9exceptionD2Ev$stub
	b L2206
L2241:
	b L2261
L2200:
	.p2align 4,,15
L2181:
	lwz r3,148(r1)
	stw r26,136(r1)
	stw r27,144(r1)
	cmpwi cr7,r3,0
	beq- cr7,L2201
	lwz r2,0(r3)
	lwz r0,16(r2)
	mtctr r0
	mr r12,r0
LEHB148:
	bctrl
LEHE148:
	cmpwi cr7,r3,0
	beq cr7,L2201
	li r0,0
	stw r0,148(r1)
L2201:
	addi r3,r1,136
	stw r25,136(r1)
	bl L__ZNSt9exceptionD2Ev$stub
	addis r4,r31,ha16(__ZTIN5boost16exception_detail10clone_implINS0_19error_info_injectorINS_10lock_errorEEEEE-"L00000000076$pb")
	addis r5,r31,ha16(L__ZN5boost16exception_detail10clone_implINS0_19error_info_injectorINS_10lock_errorEEEED1Ev$non_lazy_ptr-"L00000000076$pb")
	mr r3,r28
	la r4,lo16(__ZTIN5boost16exception_detail10clone_implINS0_19error_info_injectorINS_10lock_errorEEEEE-"L00000000076$pb")(r4)
	lwz r5,lo16(L__ZN5boost16exception_detail10clone_implINS0_19error_info_injectorINS_10lock_errorEEEED1Ev$non_lazy_ptr-"L00000000076$pb")(r5)
LEHB149:
	bl L___cxa_throw$stub
LEHE149:
L2240:
L2261:
	cmpwi cr7,r4,-1
	bne cr7,L2259
L2205:
LEHB150:
	bl L___cxa_call_unexpected$stub
LEHE150:
L2250:
	mr r30,r3
L2206:
	addi r3,r1,68
	stw r25,68(r1)
	bl L__ZNSt9exceptionD2Ev$stub
	b L2226
	.p2align 4,,15
L2165:
	addi r29,r28,72
	addi r3,r1,76
	mr r4,r29
LEHB151:
	bl L__ZNSt6vectorI18tSimpleCallbackArgSaIS0_EEaSERKS2_$stub
	lwz r5,72(r28)
	lwz r6,76(r28)
	mr r4,r29
	addi r3,r1,168
	addi r26,r1,88
	addi r29,r28,32
	bl L__ZNSt6vectorI18tSimpleCallbackArgSaIS0_EE5eraseEN9__gnu_cxx17__normal_iteratorIPS0_S2_EES6_$stub
	cmpw cr7,r26,r29
	beq cr7,L2208
	lwz r0,32(r28)
	addi r3,r1,92
	addi r4,r28,36
	stw r0,88(r1)
	bl L__ZNSt6vectorISt4pairIfS0_IfiEESaIS2_EEaSERKS4_$stub
LEHE151:
	lwz r0,48(r28)
	lwz r2,52(r28)
	stw r0,104(r1)
	stw r2,108(r1)
L2208:
	addi r0,r1,112
	stw r30,112(r1)
	stw r30,116(r1)
	stw r30,120(r1)
	stw r30,124(r1)
	stw r30,128(r1)
	stw r30,132(r1)
	cmpw cr7,r29,r0
	beq cr7,L2210
	stw r30,32(r28)
	addi r3,r28,36
	addi r4,r1,116
LEHB152:
	bl L__ZNSt6vectorISt4pairIfS0_IfiEESaIS2_EEaSERKS4_$stub
LEHE152:
	lwz r0,128(r1)
	lwz r2,132(r1)
	stw r0,48(r28)
	stw r2,52(r28)
L2210:
	lwz r3,116(r1)
	lwz r4,120(r1)
	addi r5,r1,56
	bl L__ZSt8_DestroyIPSt4pairIfS0_IfiEESaIS2_EEvT_S5_T0_$stub
	lwz r3,116(r1)
	cmpwi cr7,r3,0
	beq cr7,L2212
	bl L__ZdlPv$stub
L2212:
	mr r3,r27
LEHB153:
	bl L_pthread_mutex_unlock$stub
	b L2263
L2251:
L2215:
	mr r30,r3
	lwz r4,120(r1)
	lwz r3,116(r1)
	addi r5,r1,57
	bl L__ZSt8_DestroyIPSt4pairIfS0_IfiEESaIS2_EEvT_S5_T0_$stub
	lwz r3,116(r1)
	cmpwi cr7,r3,0
	beq cr7,L2226
	bl L__ZdlPv$stub
	b L2226
L2263:
	cmpwi cr7,r3,0
	beq+ cr7,L2218
	addis r3,r31,ha16(LC7-"L00000000076$pb")
	addis r4,r31,ha16(LC8-"L00000000076$pb")
	addis r6,r31,ha16(LC9-"L00000000076$pb")
	li r5,61
	la r3,lo16(LC7-"L00000000076$pb")(r3)
	la r4,lo16(LC8-"L00000000076$pb")(r4)
	la r6,lo16(LC9-"L00000000076$pb")(r6)
	bl L___eprintf$stub
	.p2align 4,,15
L2218:
	lwz r29,76(r1)
	lwz r30,80(r1)
	cmpw cr7,r29,r30
	beq cr7,L2220
	.p2align 4,,15
L2255:
	lwz r0,0(r29)
	cmpwi cr7,r0,0
	beq cr7,L2222
	mtctr r0
	lwz r3,4(r29)
	mr r12,r0
	bctrl
	lwz r30,80(r1)
L2222:
	addi r29,r29,8
	cmpw cr7,r30,r29
	bne cr7,L2255
L2220:
	mr r3,r26
	bl L__ZN5boost7polygon5emptyINS0_19polygon_90_set_dataIfEEEENS_9enable_ifINS0_30is_mutable_polygon_90_set_typeIT_E4typeEbE4typeERKS6_$stub
	cmpwi cr7,r3,0
	bne cr7,L2224
	mr r3,r28
	mr r4,r26
	bl L__ZN17CocoaViewInstance12needsDisplayERKN8Fielding6RegionE$stub
LEHE153:
	b L2224
L2252:
	mr r30,r3
L2226:
	lwz r3,92(r1)
	lwz r4,96(r1)
	addi r5,r1,58
	bl L__ZSt8_DestroyIPSt4pairIfS0_IfiEESaIS2_EEvT_S5_T0_$stub
	lwz r3,92(r1)
	cmpwi cr7,r3,0
	beq cr7,L2227
	bl L__ZdlPv$stub
	b L2227
	.p2align 4,,15
L2224:
	lwz r3,92(r1)
	lwz r4,96(r1)
	addi r5,r1,59
	bl L__ZSt8_DestroyIPSt4pairIfS0_IfiEESaIS2_EEvT_S5_T0_$stub
	lwz r3,92(r1)
	cmpwi cr7,r3,0
	beq cr7,L2229
	bl L__ZdlPv$stub
L2229:
	lwz r3,76(r1)
	lwz r4,80(r1)
	addi r5,r1,61
	bl L__ZSt8_DestroyIP18tSimpleCallbackArgSaIS0_EEvT_S3_T0_$stub
	lwz r3,76(r1)
	cmpwi cr7,r3,0
	bne cr7,L2231
	b L2236
L2253:
L2227:
L2233:
	lwz r3,76(r1)
	lwz r4,80(r1)
	addi r5,r1,60
	bl L__ZSt8_DestroyIP18tSimpleCallbackArgSaIS0_EEvT_S3_T0_$stub
	lwz r3,76(r1)
	cmpwi cr7,r3,0
	beq cr7,L2234
	bl L__ZdlPv$stub
L2234:
	mr r3,r30
L2259:
LEHB154:
	bl L__Unwind_Resume$stub
LEHE154:
	.p2align 4,,15
L2231:
	bl L__ZdlPv$stub
L2236:
	addi r1,r1,208
	lwz r0,8(r1)
	lwz r11,4(r1)
	lmw r24,-32(r1)
	mtlr r0
	mtcrf 8,r11
	blr
LFE8464:
	.section __DATA,__gcc_except_tab
GCC_except_table37:
	.align 2
LLSDA8464:
	.byte	0xff
	.byte	0x0
	.byte	0xd8,0x1
	.byte	0x3
	.byte	0xd0,0x1
	.set L$set$370,LEHB139-LFB8464
	.long L$set$370
	.set L$set$371,LEHE139-LEHB139
	.long L$set$371
	.set L$set$372,L2252-LFB8464
	.long L$set$372
	.byte	0x0
	.set L$set$373,LEHB140-LFB8464
	.long L$set$373
	.set L$set$374,LEHE140-LEHB140
	.long L$set$374
	.set L$set$375,L2245-LFB8464
	.long L$set$375
	.byte	0x0
	.set L$set$376,LEHB141-LFB8464
	.long L$set$376
	.set L$set$377,LEHE141-LEHB141
	.long L$set$377
	.set L$set$378,L2244-LFB8464
	.long L$set$378
	.byte	0x0
	.set L$set$379,LEHB142-LFB8464
	.long L$set$379
	.set L$set$380,LEHE142-LEHB142
	.long L$set$380
	.set L$set$381,L2243-LFB8464
	.long L$set$381
	.byte	0x0
	.set L$set$382,LEHB143-LFB8464
	.long L$set$382
	.set L$set$383,LEHE143-LEHB143
	.long L$set$383
	.set L$set$384,L2244-LFB8464
	.long L$set$384
	.byte	0x0
	.set L$set$385,LEHB144-LFB8464
	.long L$set$385
	.set L$set$386,LEHE144-LEHB144
	.long L$set$386
	.set L$set$387,L2244-LFB8464
	.long L$set$387
	.byte	0x0
	.set L$set$388,LEHB145-LFB8464
	.long L$set$388
	.set L$set$389,LEHE145-LEHB145
	.long L$set$389
	.set L$set$390,L2246-LFB8464
	.long L$set$390
	.byte	0x0
	.set L$set$391,LEHB146-LFB8464
	.long L$set$391
	.set L$set$392,LEHE146-LEHB146
	.long L$set$392
	.set L$set$393,L2242-LFB8464
	.long L$set$393
	.byte	0x1
	.set L$set$394,LEHB147-LFB8464
	.long L$set$394
	.set L$set$395,LEHE147-LEHB147
	.long L$set$395
	.set L$set$396,L2241-LFB8464
	.long L$set$396
	.byte	0x1
	.set L$set$397,LEHB148-LFB8464
	.long L$set$397
	.set L$set$398,LEHE148-LEHB148
	.long L$set$398
	.set L$set$399,L2240-LFB8464
	.long L$set$399
	.byte	0x1
	.set L$set$400,LEHB149-LFB8464
	.long L$set$400
	.set L$set$401,LEHE149-LEHB149
	.long L$set$401
	.set L$set$402,L2250-LFB8464
	.long L$set$402
	.byte	0x0
	.set L$set$403,LEHB150-LFB8464
	.long L$set$403
	.set L$set$404,LEHE150-LEHB150
	.long L$set$404
	.long	0x0
	.byte	0x0
	.set L$set$405,LEHB151-LFB8464
	.long L$set$405
	.set L$set$406,LEHE151-LEHB151
	.long L$set$406
	.set L$set$407,L2252-LFB8464
	.long L$set$407
	.byte	0x0
	.set L$set$408,LEHB152-LFB8464
	.long L$set$408
	.set L$set$409,LEHE152-LEHB152
	.long L$set$409
	.set L$set$410,L2251-LFB8464
	.long L$set$410
	.byte	0x0
	.set L$set$411,LEHB153-LFB8464
	.long L$set$411
	.set L$set$412,LEHE153-LEHB153
	.long L$set$412
	.set L$set$413,L2252-LFB8464
	.long L$set$413
	.byte	0x0
	.set L$set$414,LEHB154-LFB8464
	.long L$set$414
	.set L$set$415,LEHE154-LEHB154
	.long L$set$415
	.long	0x0
	.byte	0x0
	.byte	0x7f
	.byte	0x0
	.align 2
	.byte	0x0
	.section __TEXT,__textcoal_nt,coalesced,pure_instructions
.lcomm __ZN12_GLOBAL__N_12_1E,1,0
	.private_extern __ZGVZN5boost16exception_detail27get_static_exception_objectINS0_10bad_alloc_EEENS_13exception_ptrEvE2ep
	.globl __ZGVZN5boost16exception_detail27get_static_exception_objectINS0_10bad_alloc_EEENS_13exception_ptrEvE2ep
	.weak_definition __ZGVZN5boost16exception_detail27get_static_exception_objectINS0_10bad_alloc_EEENS_13exception_ptrEvE2ep
	.section __DATA,__datacoal_nt,coalesced
	.align 3
__ZGVZN5boost16exception_detail27get_static_exception_objectINS0_10bad_alloc_EEENS_13exception_ptrEvE2ep:
	.space 8
	.private_extern __ZGVZN5boost16exception_detail27get_static_exception_objectINS0_14bad_exception_EEENS_13exception_ptrEvE2ep
	.globl __ZGVZN5boost16exception_detail27get_static_exception_objectINS0_14bad_exception_EEENS_13exception_ptrEvE2ep
	.weak_definition __ZGVZN5boost16exception_detail27get_static_exception_objectINS0_14bad_exception_EEENS_13exception_ptrEvE2ep
	.align 3
__ZGVZN5boost16exception_detail27get_static_exception_objectINS0_14bad_exception_EEENS_13exception_ptrEvE2ep:
	.space 8
	.private_extern __ZTVN8Fielding13HostViewCocoaE
	.globl __ZTVN8Fielding13HostViewCocoaE
	.const_data
	.align 3
__ZTVN8Fielding13HostViewCocoaE:
	.long	0
	.long	__ZTIN8Fielding13HostViewCocoaE
	.long	__ZN8Fielding13HostViewCocoaD1Ev
	.long	__ZN8Fielding13HostViewCocoaD0Ev
	.long	__ZN8Fielding4View16addedToSuperViewEv
	.long	__ZN8Fielding4View20removedFromSuperViewEv
	.long	__ZN8Fielding9SuperView4drawERNS_8GContextERKNS_6RegionE
	.long	__ZN8Fielding9SuperView7hitTestERKN5boost7polygon10point_dataIfEE
	.long	__ZN8Fielding9SuperView5wheelERKN5boost7polygon10point_dataIfEEf
	.long	__ZN8Fielding9SuperView9mouseDownERKN5boost7polygon10point_dataIfEE
	.long	__ZN8Fielding9SuperView7mouseUpERKN5boost7polygon10point_dataIfEE
	.long	__ZN8Fielding9SuperView9mouseDragERKN5boost7polygon10point_dataIfEE
	.long	__ZN8Fielding9SuperView13mouseDblClickERKN5boost7polygon10point_dataIfEE
	.long	__ZN8Fielding9SuperView5timerEv
	.long	__ZN8Fielding9SuperView8isOpaqueEv
	.long	__ZN8Fielding9SuperView15GetOpaqueRegionEv
	.long	__ZN8Fielding13HostViewCocoa14callOnUIThreadEPFvPvES1_
	.long	__ZN8Fielding13HostViewCocoa11GetRootViewEv
	.long	__ZN8Fielding13HostViewCocoa12needsDisplayERKNS_6RegionE
	.long	__ZN8Fielding4View8setTimerEbd
	.long	__ZN8Fielding8HostView3addERNS_4ViewE
	.long	__ZN8Fielding8HostView6removeERNS_4ViewE
	.long	__ZN8Fielding8HostView18captureMouseOfViewERNS_4ViewE
	.long	__ZN8Fielding8HostView18releaseMouseOfViewERNS_4ViewE
	.long	__ZN8Fielding13HostViewCocoa14setTimerOfViewEbdRNS_4ViewE
	.long	__ZN8Fielding13HostViewCocoa8setChildEPNS_4ViewE
	.long	__ZN8Fielding13HostViewCocoa16hostMouseCaptureEv
	.long	__ZN8Fielding13HostViewCocoa16hostMouseReleaseEv
	.private_extern __ZTSN8Fielding13HostViewCocoaE
	.globl __ZTSN8Fielding13HostViewCocoaE
	.cstring
	.align 2
__ZTSN8Fielding13HostViewCocoaE:
	.ascii "N8Fielding13HostViewCocoaE\0"
	.private_extern __ZTIN8Fielding13HostViewCocoaE
	.globl __ZTIN8Fielding13HostViewCocoaE
	.const_data
	.align 2
__ZTIN8Fielding13HostViewCocoaE:
	.long	__ZTVN10__cxxabiv120__si_class_type_infoE+8
	.long	__ZTSN8Fielding13HostViewCocoaE
	.long	__ZTIN8Fielding8HostViewE
	.private_extern __ZGVN5boost16exception_detail37exception_ptr_static_exception_objectINS0_10bad_alloc_EE1eE
	.globl __ZGVN5boost16exception_detail37exception_ptr_static_exception_objectINS0_10bad_alloc_EE1eE
	.weak_definition __ZGVN5boost16exception_detail37exception_ptr_static_exception_objectINS0_10bad_alloc_EE1eE
	.section __DATA,__datacoal_nt,coalesced
	.align 3
__ZGVN5boost16exception_detail37exception_ptr_static_exception_objectINS0_10bad_alloc_EE1eE:
	.space 8
	.private_extern __ZGVN5boost16exception_detail37exception_ptr_static_exception_objectINS0_14bad_exception_EE1eE
	.globl __ZGVN5boost16exception_detail37exception_ptr_static_exception_objectINS0_14bad_exception_EE1eE
	.weak_definition __ZGVN5boost16exception_detail37exception_ptr_static_exception_objectINS0_14bad_exception_EE1eE
	.align 3
__ZGVN5boost16exception_detail37exception_ptr_static_exception_objectINS0_14bad_exception_EE1eE:
	.space 8
.lcomm L_ZL13_OBJC_SYMBOLS,12,2
	.objc_meth_var_names
	.align 2
L_ZL21_OBJC_METH_VAR_NAME_0:
	.ascii "graphicsPort\0"
	.objc_message_refs
	.align 2
L_ZL28_OBJC_SELECTOR_REFERENCES_15:
	.long	L_ZL21_OBJC_METH_VAR_NAME_0
	.objc_meth_var_names
	.align 2
L_ZL21_OBJC_METH_VAR_NAME_1:
	.ascii "currentContext\0"
	.objc_message_refs
	.align 2
L_ZL28_OBJC_SELECTOR_REFERENCES_14:
	.long	L_ZL21_OBJC_METH_VAR_NAME_1
	.objc_meth_var_names
	.align 2
L_ZL21_OBJC_METH_VAR_NAME_2:
	.ascii "getRectsBeingDrawn:count:\0"
	.objc_message_refs
	.align 2
L_ZL28_OBJC_SELECTOR_REFERENCES_13:
	.long	L_ZL21_OBJC_METH_VAR_NAME_2
	.objc_meth_var_names
	.align 2
L_ZL21_OBJC_METH_VAR_NAME_3:
	.ascii "deltaY\0"
	.objc_message_refs
	.align 2
L_ZL28_OBJC_SELECTOR_REFERENCES_12:
	.long	L_ZL21_OBJC_METH_VAR_NAME_3
	.objc_meth_var_names
	.align 2
L_ZL21_OBJC_METH_VAR_NAME_4:
	.ascii "clickCount\0"
	.objc_message_refs
	.align 2
L_ZL28_OBJC_SELECTOR_REFERENCES_11:
	.long	L_ZL21_OBJC_METH_VAR_NAME_4
	.objc_meth_var_names
	.align 2
L_ZL21_OBJC_METH_VAR_NAME_5:
	.ascii "modifierFlags\0"
	.objc_message_refs
	.align 2
L_ZL28_OBJC_SELECTOR_REFERENCES_10:
	.long	L_ZL21_OBJC_METH_VAR_NAME_5
	.objc_meth_var_names
	.align 2
L_ZL21_OBJC_METH_VAR_NAME_6:
	.ascii "locationInWindow\0"
	.objc_message_refs
	.align 2
L_ZL27_OBJC_SELECTOR_REFERENCES_9:
	.long	L_ZL21_OBJC_METH_VAR_NAME_6
	.objc_meth_var_names
	.align 2
L_ZL21_OBJC_METH_VAR_NAME_7:
	.ascii "convertPoint:fromView:\0"
	.objc_message_refs
	.align 2
L_ZL27_OBJC_SELECTOR_REFERENCES_8:
	.long	L_ZL21_OBJC_METH_VAR_NAME_7
	.objc_meth_var_names
	.align 2
L_ZL21_OBJC_METH_VAR_NAME_8:
	.ascii "superview\0"
	.objc_message_refs
	.align 2
L_ZL27_OBJC_SELECTOR_REFERENCES_7:
	.long	L_ZL21_OBJC_METH_VAR_NAME_8
	.objc_meth_var_names
	.align 2
L_ZL21_OBJC_METH_VAR_NAME_9:
	.ascii "setNeedsDisplayInRect:\0"
	.objc_message_refs
	.align 2
L_ZL27_OBJC_SELECTOR_REFERENCES_6:
	.long	L_ZL21_OBJC_METH_VAR_NAME_9
	.objc_meth_var_names
	.align 2
L_ZL22_OBJC_METH_VAR_NAME_10:
	.ascii "removeFromSuperview\0"
	.objc_message_refs
	.align 2
L_ZL27_OBJC_SELECTOR_REFERENCES_5:
	.long	L_ZL22_OBJC_METH_VAR_NAME_10
	.objc_meth_var_names
	.align 2
L_ZL22_OBJC_METH_VAR_NAME_11:
	.ascii "release\0"
	.objc_message_refs
	.align 2
L_ZL27_OBJC_SELECTOR_REFERENCES_4:
	.long	L_ZL22_OBJC_METH_VAR_NAME_11
	.objc_meth_var_names
	.align 2
L_ZL22_OBJC_METH_VAR_NAME_12:
	.ascii "addSubview:\0"
	.objc_message_refs
	.align 2
L_ZL27_OBJC_SELECTOR_REFERENCES_3:
	.long	L_ZL22_OBJC_METH_VAR_NAME_12
	.objc_meth_var_names
	.align 2
L_ZL22_OBJC_METH_VAR_NAME_13:
	.ascii "initWithFrame:andView:\0"
	.objc_message_refs
	.align 2
L_ZL27_OBJC_SELECTOR_REFERENCES_2:
	.long	L_ZL22_OBJC_METH_VAR_NAME_13
	.objc_meth_var_names
	.align 2
L_ZL22_OBJC_METH_VAR_NAME_14:
	.ascii "alloc\0"
	.objc_message_refs
	.align 2
L_ZL27_OBJC_SELECTOR_REFERENCES_1:
	.long	L_ZL22_OBJC_METH_VAR_NAME_14
	.objc_meth_var_names
	.align 2
L_ZL22_OBJC_METH_VAR_NAME_15:
	.ascii "frame\0"
	.objc_message_refs
	.align 2
L_ZL27_OBJC_SELECTOR_REFERENCES_0:
	.long	L_ZL22_OBJC_METH_VAR_NAME_15
	.objc_class_names
	.align 2
L_ZL18_OBJC_CLASS_NAME_0:
	.ascii "\0"
	.objc_module_info
	.align 2
L_ZL13_OBJC_MODULES:
	.long	7
	.long	16
	.long	L_ZL18_OBJC_CLASS_NAME_0
	.long	L_ZL13_OBJC_SYMBOLS
	.objc_class_names
	.align 2
L_ZL18_OBJC_CLASS_NAME_1:
	.ascii "com_fieldingdsp_UIToolBox_CocoaViewWrapper_c570292\0"
	.objc_cls_refs
	.align 2
L_ZL24_OBJC_CLASS_REFERENCES_0:
	.long	L_ZL18_OBJC_CLASS_NAME_1
	.objc_class_names
	.align 2
L_ZL18_OBJC_CLASS_NAME_2:
	.ascii "NSGraphicsContext\0"
	.objc_cls_refs
	.align 2
L_ZL24_OBJC_CLASS_REFERENCES_1:
	.long	L_ZL18_OBJC_CLASS_NAME_2
.lcomm __ZStL8__ioinit,1,0
	.private_extern __ZN5boost16exception_detail37exception_ptr_static_exception_objectINS0_10bad_alloc_EE1eE
	.globl __ZN5boost16exception_detail37exception_ptr_static_exception_objectINS0_10bad_alloc_EE1eE
	.weak_definition __ZN5boost16exception_detail37exception_ptr_static_exception_objectINS0_10bad_alloc_EE1eE
	.section __DATA,__datacoal_nt,coalesced
	.align 2
__ZN5boost16exception_detail37exception_ptr_static_exception_objectINS0_10bad_alloc_EE1eE:
	.space 8
	.private_extern __ZN5boost16exception_detail37exception_ptr_static_exception_objectINS0_14bad_exception_EE1eE
	.globl __ZN5boost16exception_detail37exception_ptr_static_exception_objectINS0_14bad_exception_EE1eE
	.weak_definition __ZN5boost16exception_detail37exception_ptr_static_exception_objectINS0_14bad_exception_EE1eE
	.align 2
__ZN5boost16exception_detail37exception_ptr_static_exception_objectINS0_14bad_exception_EE1eE:
	.space 8
	.private_extern __ZZN5boost16exception_detail27get_static_exception_objectINS0_10bad_alloc_EEENS_13exception_ptrEvE2ep
	.globl __ZZN5boost16exception_detail27get_static_exception_objectINS0_10bad_alloc_EEENS_13exception_ptrEvE2ep
	.weak_definition __ZZN5boost16exception_detail27get_static_exception_objectINS0_10bad_alloc_EEENS_13exception_ptrEvE2ep
	.align 2
__ZZN5boost16exception_detail27get_static_exception_objectINS0_10bad_alloc_EEENS_13exception_ptrEvE2ep:
	.space 8
	.cstring
	.align 2
__ZZN5boost16exception_detail27get_static_exception_objectINS0_10bad_alloc_EEENS_13exception_ptrEvE19__PRETTY_FUNCTION__:
	.ascii "boost::exception_ptr boost::exception_detail::get_static_exception_object() [with Exception = boost::exception_detail::bad_alloc_]\0"
	.private_extern __ZTVN5boost16exception_detail10bad_alloc_E
	.globl __ZTVN5boost16exception_detail10bad_alloc_E
	.weak_definition __ZTVN5boost16exception_detail10bad_alloc_E
	.section __DATA,__const_coal,coalesced
	.align 3
__ZTVN5boost16exception_detail10bad_alloc_E:
	.long	0
	.long	__ZTIN5boost16exception_detail10bad_alloc_E
	.long	__ZN5boost16exception_detail10bad_alloc_D1Ev
	.long	__ZN5boost16exception_detail10bad_alloc_D0Ev
	.long	-20
	.long	__ZTIN5boost16exception_detail10bad_alloc_E
	.long	__ZThn20_N5boost16exception_detail10bad_alloc_D1Ev
	.long	__ZThn20_N5boost16exception_detail10bad_alloc_D0Ev
	.long	__ZNKSt9exception4whatEv
	.private_extern __ZTIN5boost16exception_detail10bad_alloc_E
	.globl __ZTIN5boost16exception_detail10bad_alloc_E
	.weak_definition __ZTIN5boost16exception_detail10bad_alloc_E
	.align 2
__ZTIN5boost16exception_detail10bad_alloc_E:
	.long	__ZTVN10__cxxabiv121__vmi_class_type_infoE+8
	.long	__ZTSN5boost16exception_detail10bad_alloc_E
	.long	0
	.long	2
	.long	__ZTIN5boost9exceptionE
	.long	2
	.long	__ZTISt9bad_alloc
	.long	5122
	.private_extern __ZTSN5boost16exception_detail10bad_alloc_E
	.globl __ZTSN5boost16exception_detail10bad_alloc_E
	.weak_definition __ZTSN5boost16exception_detail10bad_alloc_E
	.section __TEXT,__const_coal,coalesced
	.align 2
__ZTSN5boost16exception_detail10bad_alloc_E:
	.ascii "N5boost16exception_detail10bad_alloc_E\0"
	.globl __ZTIN5boost9exceptionE
	.weak_definition __ZTIN5boost9exceptionE
	.section __DATA,__const_coal,coalesced
	.align 2
__ZTIN5boost9exceptionE:
	.long	__ZTVN10__cxxabiv117__class_type_infoE+8
	.long	__ZTSN5boost9exceptionE
	.globl __ZTSN5boost9exceptionE
	.weak_definition __ZTSN5boost9exceptionE
	.section __TEXT,__const_coal,coalesced
	.align 2
__ZTSN5boost9exceptionE:
	.ascii "N5boost9exceptionE\0"
	.globl __ZTVN5boost9exceptionE
	.weak_definition __ZTVN5boost9exceptionE
	.section __DATA,__const_coal,coalesced
	.align 3
__ZTVN5boost9exceptionE:
	.long	0
	.long	__ZTIN5boost9exceptionE
	.long	___cxa_pure_virtual
	.long	___cxa_pure_virtual
	.private_extern __ZTVN5boost16exception_detail10clone_implINS0_10bad_alloc_EEE
	.globl __ZTVN5boost16exception_detail10clone_implINS0_10bad_alloc_EEE
	.weak_definition __ZTVN5boost16exception_detail10clone_implINS0_10bad_alloc_EEE
	.align 3
__ZTVN5boost16exception_detail10clone_implINS0_10bad_alloc_EEE:
	.long	0
	.long	__ZTIN5boost16exception_detail10clone_implINS0_10bad_alloc_EEE
	.long	__ZN5boost16exception_detail10clone_implINS0_10bad_alloc_EED1Ev
	.long	__ZN5boost16exception_detail10clone_implINS0_10bad_alloc_EED0Ev
	.long	__ZNK5boost16exception_detail10clone_implINS0_10bad_alloc_EE5cloneEv
	.long	__ZNK5boost16exception_detail10clone_implINS0_10bad_alloc_EE7rethrowEv
	.long	-20
	.long	__ZTIN5boost16exception_detail10clone_implINS0_10bad_alloc_EEE
	.long	__ZThn20_N5boost16exception_detail10clone_implINS0_10bad_alloc_EED1Ev
	.long	__ZThn20_N5boost16exception_detail10clone_implINS0_10bad_alloc_EED0Ev
	.long	__ZNKSt9exception4whatEv
	.long	-24
	.long	__ZTIN5boost16exception_detail10clone_implINS0_10bad_alloc_EEE
	.long	__ZThn24_NK5boost16exception_detail10clone_implINS0_10bad_alloc_EE5cloneEv
	.long	__ZThn24_NK5boost16exception_detail10clone_implINS0_10bad_alloc_EE7rethrowEv
	.long	__ZThn24_N5boost16exception_detail10clone_implINS0_10bad_alloc_EED1Ev
	.long	__ZThn24_N5boost16exception_detail10clone_implINS0_10bad_alloc_EED0Ev
	.private_extern __ZTIN5boost16exception_detail10clone_implINS0_10bad_alloc_EEE
	.globl __ZTIN5boost16exception_detail10clone_implINS0_10bad_alloc_EEE
	.weak_definition __ZTIN5boost16exception_detail10clone_implINS0_10bad_alloc_EEE
	.align 2
__ZTIN5boost16exception_detail10clone_implINS0_10bad_alloc_EEE:
	.long	__ZTVN10__cxxabiv121__vmi_class_type_infoE+8
	.long	__ZTSN5boost16exception_detail10clone_implINS0_10bad_alloc_EEE
	.long	0
	.long	2
	.long	__ZTIN5boost16exception_detail10bad_alloc_E
	.long	2
	.long	__ZTIN5boost16exception_detail10clone_baseE
	.long	6146
	.private_extern __ZTSN5boost16exception_detail10clone_implINS0_10bad_alloc_EEE
	.globl __ZTSN5boost16exception_detail10clone_implINS0_10bad_alloc_EEE
	.weak_definition __ZTSN5boost16exception_detail10clone_implINS0_10bad_alloc_EEE
	.section __TEXT,__const_coal,coalesced
	.align 2
__ZTSN5boost16exception_detail10clone_implINS0_10bad_alloc_EEE:
	.ascii "N5boost16exception_detail10clone_implINS0_10bad_alloc_EEE\0"
	.private_extern __ZTIN5boost16exception_detail10clone_baseE
	.globl __ZTIN5boost16exception_detail10clone_baseE
	.weak_definition __ZTIN5boost16exception_detail10clone_baseE
	.section __DATA,__const_coal,coalesced
	.align 2
__ZTIN5boost16exception_detail10clone_baseE:
	.long	__ZTVN10__cxxabiv117__class_type_infoE+8
	.long	__ZTSN5boost16exception_detail10clone_baseE
	.private_extern __ZTSN5boost16exception_detail10clone_baseE
	.globl __ZTSN5boost16exception_detail10clone_baseE
	.weak_definition __ZTSN5boost16exception_detail10clone_baseE
	.section __TEXT,__const_coal,coalesced
	.align 2
__ZTSN5boost16exception_detail10clone_baseE:
	.ascii "N5boost16exception_detail10clone_baseE\0"
	.private_extern __ZTVN5boost16exception_detail10clone_baseE
	.globl __ZTVN5boost16exception_detail10clone_baseE
	.weak_definition __ZTVN5boost16exception_detail10clone_baseE
	.section __DATA,__const_coal,coalesced
	.align 3
__ZTVN5boost16exception_detail10clone_baseE:
	.long	0
	.long	__ZTIN5boost16exception_detail10clone_baseE
	.long	___cxa_pure_virtual
	.long	___cxa_pure_virtual
	.long	__ZN5boost16exception_detail10clone_baseD1Ev
	.long	__ZN5boost16exception_detail10clone_baseD0Ev
	.private_extern __ZTVN5boost6detail17sp_counted_impl_pINS_16exception_detail10clone_implINS2_10bad_alloc_EEEEE
	.globl __ZTVN5boost6detail17sp_counted_impl_pINS_16exception_detail10clone_implINS2_10bad_alloc_EEEEE
	.weak_definition __ZTVN5boost6detail17sp_counted_impl_pINS_16exception_detail10clone_implINS2_10bad_alloc_EEEEE
	.align 3
__ZTVN5boost6detail17sp_counted_impl_pINS_16exception_detail10clone_implINS2_10bad_alloc_EEEEE:
	.long	0
	.long	__ZTIN5boost6detail17sp_counted_impl_pINS_16exception_detail10clone_implINS2_10bad_alloc_EEEEE
	.long	__ZN5boost6detail17sp_counted_impl_pINS_16exception_detail10clone_implINS2_10bad_alloc_EEEED1Ev
	.long	__ZN5boost6detail17sp_counted_impl_pINS_16exception_detail10clone_implINS2_10bad_alloc_EEEED0Ev
	.long	__ZN5boost6detail17sp_counted_impl_pINS_16exception_detail10clone_implINS2_10bad_alloc_EEEE7disposeEv
	.long	__ZN5boost6detail15sp_counted_base7destroyEv
	.long	__ZN5boost6detail17sp_counted_impl_pINS_16exception_detail10clone_implINS2_10bad_alloc_EEEE11get_deleterERKSt9type_info
	.private_extern __ZTIN5boost6detail17sp_counted_impl_pINS_16exception_detail10clone_implINS2_10bad_alloc_EEEEE
	.globl __ZTIN5boost6detail17sp_counted_impl_pINS_16exception_detail10clone_implINS2_10bad_alloc_EEEEE
	.weak_definition __ZTIN5boost6detail17sp_counted_impl_pINS_16exception_detail10clone_implINS2_10bad_alloc_EEEEE
	.align 2
__ZTIN5boost6detail17sp_counted_impl_pINS_16exception_detail10clone_implINS2_10bad_alloc_EEEEE:
	.long	__ZTVN10__cxxabiv120__si_class_type_infoE+8
	.long	__ZTSN5boost6detail17sp_counted_impl_pINS_16exception_detail10clone_implINS2_10bad_alloc_EEEEE
	.long	__ZTIN5boost6detail15sp_counted_baseE
	.private_extern __ZTSN5boost6detail17sp_counted_impl_pINS_16exception_detail10clone_implINS2_10bad_alloc_EEEEE
	.globl __ZTSN5boost6detail17sp_counted_impl_pINS_16exception_detail10clone_implINS2_10bad_alloc_EEEEE
	.weak_definition __ZTSN5boost6detail17sp_counted_impl_pINS_16exception_detail10clone_implINS2_10bad_alloc_EEEEE
	.section __TEXT,__const_coal,coalesced
	.align 2
__ZTSN5boost6detail17sp_counted_impl_pINS_16exception_detail10clone_implINS2_10bad_alloc_EEEEE:
	.ascii "N5boost6detail17sp_counted_impl_pINS_16exception_detail10clone_implINS2_10bad_alloc_EEEEE\0"
	.private_extern __ZTIN5boost6detail15sp_counted_baseE
	.globl __ZTIN5boost6detail15sp_counted_baseE
	.weak_definition __ZTIN5boost6detail15sp_counted_baseE
	.section __DATA,__const_coal,coalesced
	.align 2
__ZTIN5boost6detail15sp_counted_baseE:
	.long	__ZTVN10__cxxabiv117__class_type_infoE+8
	.long	__ZTSN5boost6detail15sp_counted_baseE
	.private_extern __ZTSN5boost6detail15sp_counted_baseE
	.globl __ZTSN5boost6detail15sp_counted_baseE
	.weak_definition __ZTSN5boost6detail15sp_counted_baseE
	.section __TEXT,__const_coal,coalesced
	.align 2
__ZTSN5boost6detail15sp_counted_baseE:
	.ascii "N5boost6detail15sp_counted_baseE\0"
	.private_extern __ZTVN5boost6detail15sp_counted_baseE
	.globl __ZTVN5boost6detail15sp_counted_baseE
	.weak_definition __ZTVN5boost6detail15sp_counted_baseE
	.section __DATA,__const_coal,coalesced
	.align 3
__ZTVN5boost6detail15sp_counted_baseE:
	.long	0
	.long	__ZTIN5boost6detail15sp_counted_baseE
	.long	__ZN5boost6detail15sp_counted_baseD1Ev
	.long	__ZN5boost6detail15sp_counted_baseD0Ev
	.long	___cxa_pure_virtual
	.long	__ZN5boost6detail15sp_counted_base7destroyEv
	.long	___cxa_pure_virtual
	.private_extern __ZZN5boost16exception_detail27get_static_exception_objectINS0_14bad_exception_EEENS_13exception_ptrEvE2ep
	.globl __ZZN5boost16exception_detail27get_static_exception_objectINS0_14bad_exception_EEENS_13exception_ptrEvE2ep
	.weak_definition __ZZN5boost16exception_detail27get_static_exception_objectINS0_14bad_exception_EEENS_13exception_ptrEvE2ep
	.section __DATA,__datacoal_nt,coalesced
	.align 2
__ZZN5boost16exception_detail27get_static_exception_objectINS0_14bad_exception_EEENS_13exception_ptrEvE2ep:
	.space 8
	.cstring
	.align 2
__ZZN5boost16exception_detail27get_static_exception_objectINS0_14bad_exception_EEENS_13exception_ptrEvE19__PRETTY_FUNCTION__:
	.ascii "boost::exception_ptr boost::exception_detail::get_static_exception_object() [with Exception = boost::exception_detail::bad_exception_]\0"
	.private_extern __ZTVN5boost16exception_detail14bad_exception_E
	.globl __ZTVN5boost16exception_detail14bad_exception_E
	.weak_definition __ZTVN5boost16exception_detail14bad_exception_E
	.section __DATA,__const_coal,coalesced
	.align 3
__ZTVN5boost16exception_detail14bad_exception_E:
	.long	0
	.long	__ZTIN5boost16exception_detail14bad_exception_E
	.long	__ZN5boost16exception_detail14bad_exception_D1Ev
	.long	__ZN5boost16exception_detail14bad_exception_D0Ev
	.long	-20
	.long	__ZTIN5boost16exception_detail14bad_exception_E
	.long	__ZThn20_N5boost16exception_detail14bad_exception_D1Ev
	.long	__ZThn20_N5boost16exception_detail14bad_exception_D0Ev
	.long	__ZNKSt9exception4whatEv
	.private_extern __ZTIN5boost16exception_detail14bad_exception_E
	.globl __ZTIN5boost16exception_detail14bad_exception_E
	.weak_definition __ZTIN5boost16exception_detail14bad_exception_E
	.align 2
__ZTIN5boost16exception_detail14bad_exception_E:
	.long	__ZTVN10__cxxabiv121__vmi_class_type_infoE+8
	.long	__ZTSN5boost16exception_detail14bad_exception_E
	.long	0
	.long	2
	.long	__ZTIN5boost9exceptionE
	.long	2
	.long	__ZTISt13bad_exception
	.long	5122
	.private_extern __ZTSN5boost16exception_detail14bad_exception_E
	.globl __ZTSN5boost16exception_detail14bad_exception_E
	.weak_definition __ZTSN5boost16exception_detail14bad_exception_E
	.section __TEXT,__const_coal,coalesced
	.align 2
__ZTSN5boost16exception_detail14bad_exception_E:
	.ascii "N5boost16exception_detail14bad_exception_E\0"
	.private_extern __ZTVN5boost16exception_detail10clone_implINS0_14bad_exception_EEE
	.globl __ZTVN5boost16exception_detail10clone_implINS0_14bad_exception_EEE
	.weak_definition __ZTVN5boost16exception_detail10clone_implINS0_14bad_exception_EEE
	.section __DATA,__const_coal,coalesced
	.align 3
__ZTVN5boost16exception_detail10clone_implINS0_14bad_exception_EEE:
	.long	0
	.long	__ZTIN5boost16exception_detail10clone_implINS0_14bad_exception_EEE
	.long	__ZN5boost16exception_detail10clone_implINS0_14bad_exception_EED1Ev
	.long	__ZN5boost16exception_detail10clone_implINS0_14bad_exception_EED0Ev
	.long	__ZNK5boost16exception_detail10clone_implINS0_14bad_exception_EE5cloneEv
	.long	__ZNK5boost16exception_detail10clone_implINS0_14bad_exception_EE7rethrowEv
	.long	-20
	.long	__ZTIN5boost16exception_detail10clone_implINS0_14bad_exception_EEE
	.long	__ZThn20_N5boost16exception_detail10clone_implINS0_14bad_exception_EED1Ev
	.long	__ZThn20_N5boost16exception_detail10clone_implINS0_14bad_exception_EED0Ev
	.long	__ZNKSt9exception4whatEv
	.long	-24
	.long	__ZTIN5boost16exception_detail10clone_implINS0_14bad_exception_EEE
	.long	__ZThn24_NK5boost16exception_detail10clone_implINS0_14bad_exception_EE5cloneEv
	.long	__ZThn24_NK5boost16exception_detail10clone_implINS0_14bad_exception_EE7rethrowEv
	.long	__ZThn24_N5boost16exception_detail10clone_implINS0_14bad_exception_EED1Ev
	.long	__ZThn24_N5boost16exception_detail10clone_implINS0_14bad_exception_EED0Ev
	.private_extern __ZTIN5boost16exception_detail10clone_implINS0_14bad_exception_EEE
	.globl __ZTIN5boost16exception_detail10clone_implINS0_14bad_exception_EEE
	.weak_definition __ZTIN5boost16exception_detail10clone_implINS0_14bad_exception_EEE
	.align 2
__ZTIN5boost16exception_detail10clone_implINS0_14bad_exception_EEE:
	.long	__ZTVN10__cxxabiv121__vmi_class_type_infoE+8
	.long	__ZTSN5boost16exception_detail10clone_implINS0_14bad_exception_EEE
	.long	0
	.long	2
	.long	__ZTIN5boost16exception_detail14bad_exception_E
	.long	2
	.long	__ZTIN5boost16exception_detail10clone_baseE
	.long	6146
	.private_extern __ZTSN5boost16exception_detail10clone_implINS0_14bad_exception_EEE
	.globl __ZTSN5boost16exception_detail10clone_implINS0_14bad_exception_EEE
	.weak_definition __ZTSN5boost16exception_detail10clone_implINS0_14bad_exception_EEE
	.section __TEXT,__const_coal,coalesced
	.align 2
__ZTSN5boost16exception_detail10clone_implINS0_14bad_exception_EEE:
	.ascii "N5boost16exception_detail10clone_implINS0_14bad_exception_EEE\0"
	.private_extern __ZTVN5boost6detail17sp_counted_impl_pINS_16exception_detail10clone_implINS2_14bad_exception_EEEEE
	.globl __ZTVN5boost6detail17sp_counted_impl_pINS_16exception_detail10clone_implINS2_14bad_exception_EEEEE
	.weak_definition __ZTVN5boost6detail17sp_counted_impl_pINS_16exception_detail10clone_implINS2_14bad_exception_EEEEE
	.section __DATA,__const_coal,coalesced
	.align 3
__ZTVN5boost6detail17sp_counted_impl_pINS_16exception_detail10clone_implINS2_14bad_exception_EEEEE:
	.long	0
	.long	__ZTIN5boost6detail17sp_counted_impl_pINS_16exception_detail10clone_implINS2_14bad_exception_EEEEE
	.long	__ZN5boost6detail17sp_counted_impl_pINS_16exception_detail10clone_implINS2_14bad_exception_EEEED1Ev
	.long	__ZN5boost6detail17sp_counted_impl_pINS_16exception_detail10clone_implINS2_14bad_exception_EEEED0Ev
	.long	__ZN5boost6detail17sp_counted_impl_pINS_16exception_detail10clone_implINS2_14bad_exception_EEEE7disposeEv
	.long	__ZN5boost6detail15sp_counted_base7destroyEv
	.long	__ZN5boost6detail17sp_counted_impl_pINS_16exception_detail10clone_implINS2_14bad_exception_EEEE11get_deleterERKSt9type_info
	.private_extern __ZTIN5boost6detail17sp_counted_impl_pINS_16exception_detail10clone_implINS2_14bad_exception_EEEEE
	.globl __ZTIN5boost6detail17sp_counted_impl_pINS_16exception_detail10clone_implINS2_14bad_exception_EEEEE
	.weak_definition __ZTIN5boost6detail17sp_counted_impl_pINS_16exception_detail10clone_implINS2_14bad_exception_EEEEE
	.align 2
__ZTIN5boost6detail17sp_counted_impl_pINS_16exception_detail10clone_implINS2_14bad_exception_EEEEE:
	.long	__ZTVN10__cxxabiv120__si_class_type_infoE+8
	.long	__ZTSN5boost6detail17sp_counted_impl_pINS_16exception_detail10clone_implINS2_14bad_exception_EEEEE
	.long	__ZTIN5boost6detail15sp_counted_baseE
	.private_extern __ZTSN5boost6detail17sp_counted_impl_pINS_16exception_detail10clone_implINS2_14bad_exception_EEEEE
	.globl __ZTSN5boost6detail17sp_counted_impl_pINS_16exception_detail10clone_implINS2_14bad_exception_EEEEE
	.weak_definition __ZTSN5boost6detail17sp_counted_impl_pINS_16exception_detail10clone_implINS2_14bad_exception_EEEEE
	.section __TEXT,__const_coal,coalesced
	.align 2
__ZTSN5boost6detail17sp_counted_impl_pINS_16exception_detail10clone_implINS2_14bad_exception_EEEEE:
	.ascii "N5boost6detail17sp_counted_impl_pINS_16exception_detail10clone_implINS2_14bad_exception_EEEEE\0"
	.private_extern __ZTVN5boost10lock_errorE
	.globl __ZTVN5boost10lock_errorE
	.weak_definition __ZTVN5boost10lock_errorE
	.section __DATA,__const_coal,coalesced
	.align 3
__ZTVN5boost10lock_errorE:
	.long	0
	.long	__ZTIN5boost10lock_errorE
	.long	__ZN5boost10lock_errorD1Ev
	.long	__ZN5boost10lock_errorD0Ev
	.long	__ZNK5boost10lock_error4whatEv
	.private_extern __ZTIN5boost10lock_errorE
	.globl __ZTIN5boost10lock_errorE
	.weak_definition __ZTIN5boost10lock_errorE
	.align 2
__ZTIN5boost10lock_errorE:
	.long	__ZTVN10__cxxabiv120__si_class_type_infoE+8
	.long	__ZTSN5boost10lock_errorE
	.long	__ZTIN5boost16thread_exceptionE
	.private_extern __ZTSN5boost10lock_errorE
	.globl __ZTSN5boost10lock_errorE
	.weak_definition __ZTSN5boost10lock_errorE
	.section __TEXT,__const_coal,coalesced
	.align 2
__ZTSN5boost10lock_errorE:
	.ascii "N5boost10lock_errorE\0"
	.private_extern __ZTIN5boost16thread_exceptionE
	.globl __ZTIN5boost16thread_exceptionE
	.weak_definition __ZTIN5boost16thread_exceptionE
	.section __DATA,__const_coal,coalesced
	.align 2
__ZTIN5boost16thread_exceptionE:
	.long	__ZTVN10__cxxabiv120__si_class_type_infoE+8
	.long	__ZTSN5boost16thread_exceptionE
	.long	__ZTISt9exception
	.private_extern __ZTSN5boost16thread_exceptionE
	.globl __ZTSN5boost16thread_exceptionE
	.weak_definition __ZTSN5boost16thread_exceptionE
	.section __TEXT,__const_coal,coalesced
	.align 2
__ZTSN5boost16thread_exceptionE:
	.ascii "N5boost16thread_exceptionE\0"
	.private_extern __ZTVN5boost16thread_exceptionE
	.globl __ZTVN5boost16thread_exceptionE
	.weak_definition __ZTVN5boost16thread_exceptionE
	.section __DATA,__const_coal,coalesced
	.align 3
__ZTVN5boost16thread_exceptionE:
	.long	0
	.long	__ZTIN5boost16thread_exceptionE
	.long	__ZN5boost16thread_exceptionD1Ev
	.long	__ZN5boost16thread_exceptionD0Ev
	.long	__ZNKSt9exception4whatEv
	.private_extern __ZTIN5boost16exception_detail10clone_implINS0_19error_info_injectorINS_10lock_errorEEEEE
	.globl __ZTIN5boost16exception_detail10clone_implINS0_19error_info_injectorINS_10lock_errorEEEEE
	.weak_definition __ZTIN5boost16exception_detail10clone_implINS0_19error_info_injectorINS_10lock_errorEEEEE
	.align 2
__ZTIN5boost16exception_detail10clone_implINS0_19error_info_injectorINS_10lock_errorEEEEE:
	.long	__ZTVN10__cxxabiv121__vmi_class_type_infoE+8
	.long	__ZTSN5boost16exception_detail10clone_implINS0_19error_info_injectorINS_10lock_errorEEEEE
	.long	0
	.long	2
	.long	__ZTIN5boost16exception_detail19error_info_injectorINS_10lock_errorEEE
	.long	2
	.long	__ZTIN5boost16exception_detail10clone_baseE
	.long	7170
	.private_extern __ZTSN5boost16exception_detail10clone_implINS0_19error_info_injectorINS_10lock_errorEEEEE
	.globl __ZTSN5boost16exception_detail10clone_implINS0_19error_info_injectorINS_10lock_errorEEEEE
	.weak_definition __ZTSN5boost16exception_detail10clone_implINS0_19error_info_injectorINS_10lock_errorEEEEE
	.section __TEXT,__const_coal,coalesced
	.align 2
__ZTSN5boost16exception_detail10clone_implINS0_19error_info_injectorINS_10lock_errorEEEEE:
	.ascii "N5boost16exception_detail10clone_implINS0_19error_info_injectorINS_10lock_errorEEEEE\0"
	.private_extern __ZTIN5boost16exception_detail19error_info_injectorINS_10lock_errorEEE
	.globl __ZTIN5boost16exception_detail19error_info_injectorINS_10lock_errorEEE
	.weak_definition __ZTIN5boost16exception_detail19error_info_injectorINS_10lock_errorEEE
	.section __DATA,__const_coal,coalesced
	.align 2
__ZTIN5boost16exception_detail19error_info_injectorINS_10lock_errorEEE:
	.long	__ZTVN10__cxxabiv121__vmi_class_type_infoE+8
	.long	__ZTSN5boost16exception_detail19error_info_injectorINS_10lock_errorEEE
	.long	0
	.long	2
	.long	__ZTIN5boost10lock_errorE
	.long	2
	.long	__ZTIN5boost9exceptionE
	.long	2050
	.private_extern __ZTSN5boost16exception_detail19error_info_injectorINS_10lock_errorEEE
	.globl __ZTSN5boost16exception_detail19error_info_injectorINS_10lock_errorEEE
	.weak_definition __ZTSN5boost16exception_detail19error_info_injectorINS_10lock_errorEEE
	.section __TEXT,__const_coal,coalesced
	.align 2
__ZTSN5boost16exception_detail19error_info_injectorINS_10lock_errorEEE:
	.ascii "N5boost16exception_detail19error_info_injectorINS_10lock_errorEEE\0"
	.private_extern __ZTVN5boost16exception_detail19error_info_injectorINS_10lock_errorEEE
	.globl __ZTVN5boost16exception_detail19error_info_injectorINS_10lock_errorEEE
	.weak_definition __ZTVN5boost16exception_detail19error_info_injectorINS_10lock_errorEEE
	.section __DATA,__const_coal,coalesced
	.align 3
__ZTVN5boost16exception_detail19error_info_injectorINS_10lock_errorEEE:
	.long	0
	.long	__ZTIN5boost16exception_detail19error_info_injectorINS_10lock_errorEEE
	.long	__ZN5boost16exception_detail19error_info_injectorINS_10lock_errorEED1Ev
	.long	__ZN5boost16exception_detail19error_info_injectorINS_10lock_errorEED0Ev
	.long	__ZNK5boost10lock_error4whatEv
	.long	-8
	.long	__ZTIN5boost16exception_detail19error_info_injectorINS_10lock_errorEEE
	.long	__ZThn8_N5boost16exception_detail19error_info_injectorINS_10lock_errorEED1Ev
	.long	__ZThn8_N5boost16exception_detail19error_info_injectorINS_10lock_errorEED0Ev
	.private_extern __ZTVN5boost16exception_detail10clone_implINS0_19error_info_injectorINS_10lock_errorEEEEE
	.globl __ZTVN5boost16exception_detail10clone_implINS0_19error_info_injectorINS_10lock_errorEEEEE
	.weak_definition __ZTVN5boost16exception_detail10clone_implINS0_19error_info_injectorINS_10lock_errorEEEEE
	.align 3
__ZTVN5boost16exception_detail10clone_implINS0_19error_info_injectorINS_10lock_errorEEEEE:
	.long	0
	.long	__ZTIN5boost16exception_detail10clone_implINS0_19error_info_injectorINS_10lock_errorEEEEE
	.long	__ZN5boost16exception_detail10clone_implINS0_19error_info_injectorINS_10lock_errorEEEED1Ev
	.long	__ZN5boost16exception_detail10clone_implINS0_19error_info_injectorINS_10lock_errorEEEED0Ev
	.long	__ZNK5boost10lock_error4whatEv
	.long	__ZNK5boost16exception_detail10clone_implINS0_19error_info_injectorINS_10lock_errorEEEE5cloneEv
	.long	__ZNK5boost16exception_detail10clone_implINS0_19error_info_injectorINS_10lock_errorEEEE7rethrowEv
	.long	-8
	.long	__ZTIN5boost16exception_detail10clone_implINS0_19error_info_injectorINS_10lock_errorEEEEE
	.long	__ZThn8_N5boost16exception_detail10clone_implINS0_19error_info_injectorINS_10lock_errorEEEED1Ev
	.long	__ZThn8_N5boost16exception_detail10clone_implINS0_19error_info_injectorINS_10lock_errorEEEED0Ev
	.long	-28
	.long	__ZTIN5boost16exception_detail10clone_implINS0_19error_info_injectorINS_10lock_errorEEEEE
	.long	__ZThn28_NK5boost16exception_detail10clone_implINS0_19error_info_injectorINS_10lock_errorEEEE5cloneEv
	.long	__ZThn28_NK5boost16exception_detail10clone_implINS0_19error_info_injectorINS_10lock_errorEEEE7rethrowEv
	.long	__ZThn28_N5boost16exception_detail10clone_implINS0_19error_info_injectorINS_10lock_errorEEEED1Ev
	.long	__ZThn28_N5boost16exception_detail10clone_implINS0_19error_info_injectorINS_10lock_errorEEEED0Ev
	.private_extern __ZTV17CocoaViewInstance
	.globl __ZTV17CocoaViewInstance
	.weak_definition __ZTV17CocoaViewInstance
	.align 3
__ZTV17CocoaViewInstance:
	.long	0
	.long	__ZTI17CocoaViewInstance
	.long	__ZN17CocoaViewInstanceD1Ev
	.long	__ZN17CocoaViewInstanceD0Ev
	.long	__ZN17CocoaViewInstance19viewDidMoveToWindowEv
	.long	__ZN17CocoaViewInstance9mouseDownEP7NSEvent
	.long	__ZN17CocoaViewInstance12mouseDraggedEP7NSEvent
	.long	__ZN17CocoaViewInstance7mouseUpEP7NSEvent
	.long	__ZN17CocoaViewInstance4drawER6CGRect
	.long	__ZN17CocoaViewInstance7hitTestER8_NSPoint
	.long	__ZN17CocoaViewInstance11scrollWheelEP7NSEvent
	.private_extern __ZTI17CocoaViewInstance
	.globl __ZTI17CocoaViewInstance
	.weak_definition __ZTI17CocoaViewInstance
	.align 2
__ZTI17CocoaViewInstance:
	.long	__ZTVN10__cxxabiv120__si_class_type_infoE+8
	.long	__ZTS17CocoaViewInstance
	.long	__ZTI18CocoaViewInterface
	.private_extern __ZTS17CocoaViewInstance
	.globl __ZTS17CocoaViewInstance
	.weak_definition __ZTS17CocoaViewInstance
	.section __TEXT,__const_coal,coalesced
	.align 2
__ZTS17CocoaViewInstance:
	.ascii "17CocoaViewInstance\0"
	.private_extern __ZTI18CocoaViewInterface
	.globl __ZTI18CocoaViewInterface
	.weak_definition __ZTI18CocoaViewInterface
	.section __DATA,__const_coal,coalesced
	.align 2
__ZTI18CocoaViewInterface:
	.long	__ZTVN10__cxxabiv117__class_type_infoE+8
	.long	__ZTS18CocoaViewInterface
	.private_extern __ZTS18CocoaViewInterface
	.globl __ZTS18CocoaViewInterface
	.weak_definition __ZTS18CocoaViewInterface
	.section __TEXT,__const_coal,coalesced
	.align 2
__ZTS18CocoaViewInterface:
	.ascii "18CocoaViewInterface\0"
	.private_extern __ZTV18CocoaViewInterface
	.globl __ZTV18CocoaViewInterface
	.weak_definition __ZTV18CocoaViewInterface
	.section __DATA,__const_coal,coalesced
	.align 3
__ZTV18CocoaViewInterface:
	.long	0
	.long	__ZTI18CocoaViewInterface
	.long	___cxa_pure_virtual
	.long	___cxa_pure_virtual
	.long	___cxa_pure_virtual
	.long	___cxa_pure_virtual
	.long	___cxa_pure_virtual
	.long	___cxa_pure_virtual
	.long	___cxa_pure_virtual
	.long	___cxa_pure_virtual
	.long	___cxa_pure_virtual
	.private_extern __ZTVN5boost21thread_resource_errorE
	.globl __ZTVN5boost21thread_resource_errorE
	.weak_definition __ZTVN5boost21thread_resource_errorE
	.align 3
__ZTVN5boost21thread_resource_errorE:
	.long	0
	.long	__ZTIN5boost21thread_resource_errorE
	.long	__ZN5boost21thread_resource_errorD1Ev
	.long	__ZN5boost21thread_resource_errorD0Ev
	.long	__ZNK5boost21thread_resource_error4whatEv
	.private_extern __ZTIN5boost21thread_resource_errorE
	.globl __ZTIN5boost21thread_resource_errorE
	.weak_definition __ZTIN5boost21thread_resource_errorE
	.align 2
__ZTIN5boost21thread_resource_errorE:
	.long	__ZTVN10__cxxabiv120__si_class_type_infoE+8
	.long	__ZTSN5boost21thread_resource_errorE
	.long	__ZTIN5boost16thread_exceptionE
	.private_extern __ZTSN5boost21thread_resource_errorE
	.globl __ZTSN5boost21thread_resource_errorE
	.weak_definition __ZTSN5boost21thread_resource_errorE
	.section __TEXT,__const_coal,coalesced
	.align 2
__ZTSN5boost21thread_resource_errorE:
	.ascii "N5boost21thread_resource_errorE\0"
	.private_extern __ZTIN5boost16exception_detail10clone_implINS0_19error_info_injectorINS_21thread_resource_errorEEEEE
	.globl __ZTIN5boost16exception_detail10clone_implINS0_19error_info_injectorINS_21thread_resource_errorEEEEE
	.weak_definition __ZTIN5boost16exception_detail10clone_implINS0_19error_info_injectorINS_21thread_resource_errorEEEEE
	.section __DATA,__const_coal,coalesced
	.align 2
__ZTIN5boost16exception_detail10clone_implINS0_19error_info_injectorINS_21thread_resource_errorEEEEE:
	.long	__ZTVN10__cxxabiv121__vmi_class_type_infoE+8
	.long	__ZTSN5boost16exception_detail10clone_implINS0_19error_info_injectorINS_21thread_resource_errorEEEEE
	.long	0
	.long	2
	.long	__ZTIN5boost16exception_detail19error_info_injectorINS_21thread_resource_errorEEE
	.long	2
	.long	__ZTIN5boost16exception_detail10clone_baseE
	.long	7170
	.private_extern __ZTSN5boost16exception_detail10clone_implINS0_19error_info_injectorINS_21thread_resource_errorEEEEE
	.globl __ZTSN5boost16exception_detail10clone_implINS0_19error_info_injectorINS_21thread_resource_errorEEEEE
	.weak_definition __ZTSN5boost16exception_detail10clone_implINS0_19error_info_injectorINS_21thread_resource_errorEEEEE
	.section __TEXT,__const_coal,coalesced
	.align 2
__ZTSN5boost16exception_detail10clone_implINS0_19error_info_injectorINS_21thread_resource_errorEEEEE:
	.ascii "N5boost16exception_detail10clone_implINS0_19error_info_injectorINS_21thread_resource_errorEEEEE\0"
	.private_extern __ZTIN5boost16exception_detail19error_info_injectorINS_21thread_resource_errorEEE
	.globl __ZTIN5boost16exception_detail19error_info_injectorINS_21thread_resource_errorEEE
	.weak_definition __ZTIN5boost16exception_detail19error_info_injectorINS_21thread_resource_errorEEE
	.section __DATA,__const_coal,coalesced
	.align 2
__ZTIN5boost16exception_detail19error_info_injectorINS_21thread_resource_errorEEE:
	.long	__ZTVN10__cxxabiv121__vmi_class_type_infoE+8
	.long	__ZTSN5boost16exception_detail19error_info_injectorINS_21thread_resource_errorEEE
	.long	0
	.long	2
	.long	__ZTIN5boost21thread_resource_errorE
	.long	2
	.long	__ZTIN5boost9exceptionE
	.long	2050
	.private_extern __ZTSN5boost16exception_detail19error_info_injectorINS_21thread_resource_errorEEE
	.globl __ZTSN5boost16exception_detail19error_info_injectorINS_21thread_resource_errorEEE
	.weak_definition __ZTSN5boost16exception_detail19error_info_injectorINS_21thread_resource_errorEEE
	.section __TEXT,__const_coal,coalesced
	.align 2
__ZTSN5boost16exception_detail19error_info_injectorINS_21thread_resource_errorEEE:
	.ascii "N5boost16exception_detail19error_info_injectorINS_21thread_resource_errorEEE\0"
	.private_extern __ZTVN5boost16exception_detail19error_info_injectorINS_21thread_resource_errorEEE
	.globl __ZTVN5boost16exception_detail19error_info_injectorINS_21thread_resource_errorEEE
	.weak_definition __ZTVN5boost16exception_detail19error_info_injectorINS_21thread_resource_errorEEE
	.section __DATA,__const_coal,coalesced
	.align 3
__ZTVN5boost16exception_detail19error_info_injectorINS_21thread_resource_errorEEE:
	.long	0
	.long	__ZTIN5boost16exception_detail19error_info_injectorINS_21thread_resource_errorEEE
	.long	__ZN5boost16exception_detail19error_info_injectorINS_21thread_resource_errorEED1Ev
	.long	__ZN5boost16exception_detail19error_info_injectorINS_21thread_resource_errorEED0Ev
	.long	__ZNK5boost21thread_resource_error4whatEv
	.long	-8
	.long	__ZTIN5boost16exception_detail19error_info_injectorINS_21thread_resource_errorEEE
	.long	__ZThn8_N5boost16exception_detail19error_info_injectorINS_21thread_resource_errorEED1Ev
	.long	__ZThn8_N5boost16exception_detail19error_info_injectorINS_21thread_resource_errorEED0Ev
	.private_extern __ZTVN5boost16exception_detail10clone_implINS0_19error_info_injectorINS_21thread_resource_errorEEEEE
	.globl __ZTVN5boost16exception_detail10clone_implINS0_19error_info_injectorINS_21thread_resource_errorEEEEE
	.weak_definition __ZTVN5boost16exception_detail10clone_implINS0_19error_info_injectorINS_21thread_resource_errorEEEEE
	.align 3
__ZTVN5boost16exception_detail10clone_implINS0_19error_info_injectorINS_21thread_resource_errorEEEEE:
	.long	0
	.long	__ZTIN5boost16exception_detail10clone_implINS0_19error_info_injectorINS_21thread_resource_errorEEEEE
	.long	__ZN5boost16exception_detail10clone_implINS0_19error_info_injectorINS_21thread_resource_errorEEEED1Ev
	.long	__ZN5boost16exception_detail10clone_implINS0_19error_info_injectorINS_21thread_resource_errorEEEED0Ev
	.long	__ZNK5boost21thread_resource_error4whatEv
	.long	__ZNK5boost16exception_detail10clone_implINS0_19error_info_injectorINS_21thread_resource_errorEEEE5cloneEv
	.long	__ZNK5boost16exception_detail10clone_implINS0_19error_info_injectorINS_21thread_resource_errorEEEE7rethrowEv
	.long	-8
	.long	__ZTIN5boost16exception_detail10clone_implINS0_19error_info_injectorINS_21thread_resource_errorEEEEE
	.long	__ZThn8_N5boost16exception_detail10clone_implINS0_19error_info_injectorINS_21thread_resource_errorEEEED1Ev
	.long	__ZThn8_N5boost16exception_detail10clone_implINS0_19error_info_injectorINS_21thread_resource_errorEEEED0Ev
	.long	-28
	.long	__ZTIN5boost16exception_detail10clone_implINS0_19error_info_injectorINS_21thread_resource_errorEEEEE
	.long	__ZThn28_NK5boost16exception_detail10clone_implINS0_19error_info_injectorINS_21thread_resource_errorEEEE5cloneEv
	.long	__ZThn28_NK5boost16exception_detail10clone_implINS0_19error_info_injectorINS_21thread_resource_errorEEEE7rethrowEv
	.long	__ZThn28_N5boost16exception_detail10clone_implINS0_19error_info_injectorINS_21thread_resource_errorEEEED1Ev
	.long	__ZThn28_N5boost16exception_detail10clone_implINS0_19error_info_injectorINS_21thread_resource_errorEEEED0Ev
	.literal8
	.align 3
LC2:
	.long	0
	.long	0
	.literal4
	.align 2
LC3:
	.long	0
	.align 2
LC10:
	.long	2139095039
	.align 2
LC12:
	.long	1065353216
	.align 2
LC13:
	.long	-1082130432
	.globl __ZN8Fielding13HostViewCocoa11GetRootViewEv.eh
	.private_extern __ZN8Fielding13HostViewCocoa11GetRootViewEv.eh
__ZN8Fielding13HostViewCocoa11GetRootViewEv.eh = 0
.no_dead_strip __ZN8Fielding13HostViewCocoa11GetRootViewEv.eh
	.globl __ZN8Fielding13HostViewCocoa16hostMouseCaptureEv.eh
	.private_extern __ZN8Fielding13HostViewCocoa16hostMouseCaptureEv.eh
__ZN8Fielding13HostViewCocoa16hostMouseCaptureEv.eh = 0
.no_dead_strip __ZN8Fielding13HostViewCocoa16hostMouseCaptureEv.eh
	.globl __ZN8Fielding13HostViewCocoa16hostMouseReleaseEv.eh
	.private_extern __ZN8Fielding13HostViewCocoa16hostMouseReleaseEv.eh
__ZN8Fielding13HostViewCocoa16hostMouseReleaseEv.eh = 0
.no_dead_strip __ZN8Fielding13HostViewCocoa16hostMouseReleaseEv.eh
	.globl __ZN18CocoaViewInterfaceD0Ev.eh
	.private_extern __ZN18CocoaViewInterfaceD0Ev.eh
__ZN18CocoaViewInterfaceD0Ev.eh = 0
.no_dead_strip __ZN18CocoaViewInterfaceD0Ev.eh
	.globl __ZN18CocoaViewInterfaceD2Ev.eh
	.private_extern __ZN18CocoaViewInterfaceD2Ev.eh
__ZN18CocoaViewInterfaceD2Ev.eh = 0
.no_dead_strip __ZN18CocoaViewInterfaceD2Ev.eh
	.globl __ZN18CocoaViewInterfaceD1Ev.eh
	.private_extern __ZN18CocoaViewInterfaceD1Ev.eh
__ZN18CocoaViewInterfaceD1Ev.eh = 0
.no_dead_strip __ZN18CocoaViewInterfaceD1Ev.eh
___tcf_2.eh = 0
.no_dead_strip ___tcf_2.eh
	.globl __ZN8Fielding13HostViewCocoa12setModifiersERNS_4ViewEj.eh
	.private_extern __ZN8Fielding13HostViewCocoa12setModifiersERNS_4ViewEj.eh
__ZN8Fielding13HostViewCocoa12setModifiersERNS_4ViewEj.eh = 0
.no_dead_strip __ZN8Fielding13HostViewCocoa12setModifiersERNS_4ViewEj.eh
	.globl __ZN8Fielding13HostViewCocoaD1Ev.eh
	.private_extern __ZN8Fielding13HostViewCocoaD1Ev.eh
__ZN8Fielding13HostViewCocoaD1Ev.eh = 0
.no_dead_strip __ZN8Fielding13HostViewCocoaD1Ev.eh
	.globl __ZN8Fielding13HostViewCocoaC1EP6NSView.eh
	.private_extern __ZN8Fielding13HostViewCocoaC1EP6NSView.eh
__ZN8Fielding13HostViewCocoaC1EP6NSView.eh = 0
.no_dead_strip __ZN8Fielding13HostViewCocoaC1EP6NSView.eh
__GLOBAL__I__ZN12_GLOBAL__N_12_1E.eh = 0
.no_dead_strip __GLOBAL__I__ZN12_GLOBAL__N_12_1E.eh
	.globl __ZN8Fielding13HostViewCocoa12needsDisplayERKNS_6RegionE.eh
	.private_extern __ZN8Fielding13HostViewCocoa12needsDisplayERKNS_6RegionE.eh
__ZN8Fielding13HostViewCocoa12needsDisplayERKNS_6RegionE.eh = 0
.no_dead_strip __ZN8Fielding13HostViewCocoa12needsDisplayERKNS_6RegionE.eh
	.section __TEXT,__eh_frame,coalesced,no_toc+strip_static_syms+live_support
EH_frame1:
	.set L$set$416,LECIE1-LSCIE1
	.long L$set$416
LSCIE1:
	.long	0x0
	.byte	0x1
	.ascii "zPLR\0"
	.byte	0x1
	.byte	0x7c
	.byte	0x41
	.byte	0x7
	.byte	0x9b
	.long	L___gxx_personality_v0$non_lazy_ptr-.
	.byte	0x10
	.byte	0x10
	.byte	0xc
	.byte	0x1
	.byte	0x0
	.align 2
LECIE1:
	.globl __ZNK5boost10lock_error4whatEv.eh
	.private_extern __ZNK5boost10lock_error4whatEv.eh
	.weak_definition __ZNK5boost10lock_error4whatEv.eh
__ZNK5boost10lock_error4whatEv.eh:
LSFDE1:
	.set L$set$417,LEFDE1-LASFDE1
	.long L$set$417
LASFDE1:
	.long	LASFDE1-EH_frame1
	.long	LFB4375-.
	.set L$set$418,LFE4375-LFB4375
	.long L$set$418
	.byte	0x4
	.long	0x0
	.align 2
LEFDE1:
	.globl __ZNK5boost21thread_resource_error4whatEv.eh
	.private_extern __ZNK5boost21thread_resource_error4whatEv.eh
	.weak_definition __ZNK5boost21thread_resource_error4whatEv.eh
__ZNK5boost21thread_resource_error4whatEv.eh:
LSFDE3:
	.set L$set$419,LEFDE3-LASFDE3
	.long L$set$419
LASFDE3:
	.long	LASFDE3-EH_frame1
	.long	LFB4386-.
	.set L$set$420,LFE4386-LFB4386
	.long L$set$420
	.byte	0x4
	.long	0x0
	.align 2
LEFDE3:
	.globl __ZN5boost6detail15sp_counted_base7destroyEv.eh
	.private_extern __ZN5boost6detail15sp_counted_base7destroyEv.eh
	.weak_definition __ZN5boost6detail15sp_counted_base7destroyEv.eh
__ZN5boost6detail15sp_counted_base7destroyEv.eh:
LSFDE5:
	.set L$set$421,LEFDE5-LASFDE5
	.long L$set$421
LASFDE5:
	.long	LASFDE5-EH_frame1
	.long	LFB4484-.
	.set L$set$422,LFE4484-LFB4484
	.long L$set$422
	.byte	0x4
	.long	0x0
	.align 2
LEFDE5:
	.globl __ZN5boost6detail26sp_enable_shared_from_thisEz.eh
	.private_extern __ZN5boost6detail26sp_enable_shared_from_thisEz.eh
	.weak_definition __ZN5boost6detail26sp_enable_shared_from_thisEz.eh
__ZN5boost6detail26sp_enable_shared_from_thisEz.eh:
LSFDE7:
	.set L$set$423,LEFDE7-LASFDE7
	.long L$set$423
LASFDE7:
	.long	LASFDE7-EH_frame1
	.long	LFB4585-.
	.set L$set$424,LFE4585-LFB4585
	.long L$set$424
	.byte	0x4
	.long	0x0
	.align 2
LEFDE7:
	.globl __ZN17CocoaViewInstance19viewDidMoveToWindowEv.eh
	.private_extern __ZN17CocoaViewInstance19viewDidMoveToWindowEv.eh
	.weak_definition __ZN17CocoaViewInstance19viewDidMoveToWindowEv.eh
__ZN17CocoaViewInstance19viewDidMoveToWindowEv.eh:
LSFDE9:
	.set L$set$425,LEFDE9-LASFDE9
	.long L$set$425
LASFDE9:
	.long	LASFDE9-EH_frame1
	.long	LFB8445-.
	.set L$set$426,LFE8445-LFB8445
	.long L$set$426
	.byte	0x4
	.long	0x0
	.align 2
LEFDE9:
	.globl __ZN17CocoaViewInstance18EventLoopTimerProcEP16__CFRunLoopTimerPv.eh
	.private_extern __ZN17CocoaViewInstance18EventLoopTimerProcEP16__CFRunLoopTimerPv.eh
	.weak_definition __ZN17CocoaViewInstance18EventLoopTimerProcEP16__CFRunLoopTimerPv.eh
__ZN17CocoaViewInstance18EventLoopTimerProcEP16__CFRunLoopTimerPv.eh:
LSFDE11:
	.set L$set$427,LEFDE11-LASFDE11
	.long L$set$427
LASFDE11:
	.long	LASFDE11-EH_frame1
	.long	LFB8461-.
	.set L$set$428,LFE8461-LFB8461
	.long L$set$428
	.byte	0x4
	.long	0x0
	.align 2
LEFDE11:
	.globl __ZN5boost7polygon15end_90_set_dataINS0_19polygon_90_set_dataIfEEEENS_9enable_ifINS0_22is_polygon_90_set_typeIT_E4typeENS0_21polygon_90_set_traitsIS6_E13iterator_typeEE4typeERKS6_.eh
	.private_extern __ZN5boost7polygon15end_90_set_dataINS0_19polygon_90_set_dataIfEEEENS_9enable_ifINS0_22is_polygon_90_set_typeIT_E4typeENS0_21polygon_90_set_traitsIS6_E13iterator_typeEE4typeERKS6_.eh
	.weak_definition __ZN5boost7polygon15end_90_set_dataINS0_19polygon_90_set_dataIfEEEENS_9enable_ifINS0_22is_polygon_90_set_typeIT_E4typeENS0_21polygon_90_set_traitsIS6_E13iterator_typeEE4typeERKS6_.eh
__ZN5boost7polygon15end_90_set_dataINS0_19polygon_90_set_dataIfEEEENS_9enable_ifINS0_22is_polygon_90_set_typeIT_E4typeENS0_21polygon_90_set_traitsIS6_E13iterator_typeEE4typeERKS6_.eh:
LSFDE19:
	.set L$set$429,LEFDE19-LASFDE19
	.long L$set$429
LASFDE19:
	.long	LASFDE19-EH_frame1
	.long	LFB9459-.
	.set L$set$430,LFE9459-LFB9459
	.long L$set$430
	.byte	0x4
	.long	0x0
	.align 2
LEFDE19:
	.globl __ZN5boost7polygon17begin_90_set_dataINS0_19polygon_90_set_dataIfEEEENS_9enable_ifINS0_22is_polygon_90_set_typeIT_E4typeENS0_21polygon_90_set_traitsIS6_E13iterator_typeEE4typeERKS6_.eh
	.private_extern __ZN5boost7polygon17begin_90_set_dataINS0_19polygon_90_set_dataIfEEEENS_9enable_ifINS0_22is_polygon_90_set_typeIT_E4typeENS0_21polygon_90_set_traitsIS6_E13iterator_typeEE4typeERKS6_.eh
	.weak_definition __ZN5boost7polygon17begin_90_set_dataINS0_19polygon_90_set_dataIfEEEENS_9enable_ifINS0_22is_polygon_90_set_typeIT_E4typeENS0_21polygon_90_set_traitsIS6_E13iterator_typeEE4typeERKS6_.eh
__ZN5boost7polygon17begin_90_set_dataINS0_19polygon_90_set_dataIfEEEENS_9enable_ifINS0_22is_polygon_90_set_typeIT_E4typeENS0_21polygon_90_set_traitsIS6_E13iterator_typeEE4typeERKS6_.eh:
LSFDE21:
	.set L$set$431,LEFDE21-LASFDE21
	.long L$set$431
LASFDE21:
	.long	LASFDE21-EH_frame1
	.long	LFB9460-.
	.set L$set$432,LFE9460-LFB9460
	.long L$set$432
	.byte	0x4
	.long	0x0
	.align 2
LEFDE21:
	.globl __ZN5boost7polygon3getINS0_14rectangle_dataIfEEEENS0_23rectangle_interval_typeIT_E4typeERKS5_NS0_14orientation_2dEPNS_9enable_ifINS0_6gtl_ifINS0_20is_rectangle_conceptINS0_16geometry_conceptIS5_E4typeEE4typeEE4typeEvE4typeE.eh
	.private_extern __ZN5boost7polygon3getINS0_14rectangle_dataIfEEEENS0_23rectangle_interval_typeIT_E4typeERKS5_NS0_14orientation_2dEPNS_9enable_ifINS0_6gtl_ifINS0_20is_rectangle_conceptINS0_16geometry_conceptIS5_E4typeEE4typeEE4typeEvE4typeE.eh
	.weak_definition __ZN5boost7polygon3getINS0_14rectangle_dataIfEEEENS0_23rectangle_interval_typeIT_E4typeERKS5_NS0_14orientation_2dEPNS_9enable_ifINS0_6gtl_ifINS0_20is_rectangle_conceptINS0_16geometry_conceptIS5_E4typeEE4typeEE4typeEvE4typeE.eh
__ZN5boost7polygon3getINS0_14rectangle_dataIfEEEENS0_23rectangle_interval_typeIT_E4typeERKS5_NS0_14orientation_2dEPNS_9enable_ifINS0_6gtl_ifINS0_20is_rectangle_conceptINS0_16geometry_conceptIS5_E4typeEE4typeEE4typeEvE4typeE.eh:
LSFDE23:
	.set L$set$433,LEFDE23-LASFDE23
	.long L$set$433
LASFDE23:
	.long	LASFDE23-EH_frame1
	.long	LFB9492-.
	.set L$set$434,LFE9492-LFB9492
	.long L$set$434
	.byte	0x4
	.long	0x0
	.align 2
LEFDE23:
	.globl __ZSt8_DestroyIP18tSimpleCallbackArgSaIS0_EEvT_S3_T0_.eh
	.private_extern __ZSt8_DestroyIP18tSimpleCallbackArgSaIS0_EEvT_S3_T0_.eh
	.weak_definition __ZSt8_DestroyIP18tSimpleCallbackArgSaIS0_EEvT_S3_T0_.eh
__ZSt8_DestroyIP18tSimpleCallbackArgSaIS0_EEvT_S3_T0_.eh:
LSFDE25:
	.set L$set$435,LEFDE25-LASFDE25
	.long L$set$435
LASFDE25:
	.long	LASFDE25-EH_frame1
	.long	LFB10188-.
	.set L$set$436,LFE10188-LFB10188
	.long L$set$436
	.byte	0x4
	.long	0x0
	.align 2
LEFDE25:
	.globl __ZSt8_DestroyIPN5boost7polygon14rectangle_dataIfEESaIS3_EEvT_S6_T0_.eh
	.private_extern __ZSt8_DestroyIPN5boost7polygon14rectangle_dataIfEESaIS3_EEvT_S6_T0_.eh
	.weak_definition __ZSt8_DestroyIPN5boost7polygon14rectangle_dataIfEESaIS3_EEvT_S6_T0_.eh
__ZSt8_DestroyIPN5boost7polygon14rectangle_dataIfEESaIS3_EEvT_S6_T0_.eh:
LSFDE27:
	.set L$set$437,LEFDE27-LASFDE27
	.long L$set$437
LASFDE27:
	.long	LASFDE27-EH_frame1
	.long	LFB10210-.
	.set L$set$438,LFE10210-LFB10210
	.long L$set$438
	.byte	0x4
	.long	0x0
	.align 2
LEFDE27:
	.globl __ZN5boost7polygon8verticalINS0_14rectangle_dataIfEEEENS_9enable_ifINS0_7gtl_andINS0_5y_r_vENS0_6gtl_ifINS0_20is_rectangle_conceptINS0_16geometry_conceptIT_E4typeEE4typeEE4typeEE4typeENS0_16rectangle_traitsISA_NS0_7gtl_yesEE13interval_typeEE4typeERKSA_.eh
	.private_extern __ZN5boost7polygon8verticalINS0_14rectangle_dataIfEEEENS_9enable_ifINS0_7gtl_andINS0_5y_r_vENS0_6gtl_ifINS0_20is_rectangle_conceptINS0_16geometry_conceptIT_E4typeEE4typeEE4typeEE4typeENS0_16rectangle_traitsISA_NS0_7gtl_yesEE13interval_typeEE4typeERKSA_.eh
	.weak_definition __ZN5boost7polygon8verticalINS0_14rectangle_dataIfEEEENS_9enable_ifINS0_7gtl_andINS0_5y_r_vENS0_6gtl_ifINS0_20is_rectangle_conceptINS0_16geometry_conceptIT_E4typeEE4typeEE4typeEE4typeENS0_16rectangle_traitsISA_NS0_7gtl_yesEE13interval_typeEE4typeERKSA_.eh
__ZN5boost7polygon8verticalINS0_14rectangle_dataIfEEEENS_9enable_ifINS0_7gtl_andINS0_5y_r_vENS0_6gtl_ifINS0_20is_rectangle_conceptINS0_16geometry_conceptIT_E4typeEE4typeEE4typeEE4typeENS0_16rectangle_traitsISA_NS0_7gtl_yesEE13interval_typeEE4typeERKSA_.eh:
LSFDE29:
	.set L$set$439,LEFDE29-LASFDE29
	.long L$set$439
LASFDE29:
	.long	LASFDE29-EH_frame1
	.long	LFB10229-.
	.set L$set$440,LFE10229-LFB10229
	.long L$set$440
	.byte	0x4
	.long	0x0
	.align 2
LEFDE29:
	.globl __ZN5boost7polygon10horizontalINS0_14rectangle_dataIfEEEENS_9enable_ifINS0_7gtl_andINS0_5y_r_hENS0_6gtl_ifINS0_20is_rectangle_conceptINS0_16geometry_conceptIT_E4typeEE4typeEE4typeEE4typeENS0_16rectangle_traitsISA_NS0_7gtl_yesEE13interval_typeEE4typeERKSA_.eh
	.private_extern __ZN5boost7polygon10horizontalINS0_14rectangle_dataIfEEEENS_9enable_ifINS0_7gtl_andINS0_5y_r_hENS0_6gtl_ifINS0_20is_rectangle_conceptINS0_16geometry_conceptIT_E4typeEE4typeEE4typeEE4typeENS0_16rectangle_traitsISA_NS0_7gtl_yesEE13interval_typeEE4typeERKSA_.eh
	.weak_definition __ZN5boost7polygon10horizontalINS0_14rectangle_dataIfEEEENS_9enable_ifINS0_7gtl_andINS0_5y_r_hENS0_6gtl_ifINS0_20is_rectangle_conceptINS0_16geometry_conceptIT_E4typeEE4typeEE4typeEE4typeENS0_16rectangle_traitsISA_NS0_7gtl_yesEE13interval_typeEE4typeERKSA_.eh
__ZN5boost7polygon10horizontalINS0_14rectangle_dataIfEEEENS_9enable_ifINS0_7gtl_andINS0_5y_r_hENS0_6gtl_ifINS0_20is_rectangle_conceptINS0_16geometry_conceptIT_E4typeEE4typeEE4typeEE4typeENS0_16rectangle_traitsISA_NS0_7gtl_yesEE13interval_typeEE4typeERKSA_.eh:
LSFDE31:
	.set L$set$441,LEFDE31-LASFDE31
	.long L$set$441
LASFDE31:
	.long	LASFDE31-EH_frame1
	.long	LFB10232-.
	.set L$set$442,LFE10232-LFB10232
	.long L$set$442
	.byte	0x4
	.long	0x0
	.align 2
LEFDE31:
	.globl __ZSt8_DestroyIN9__gnu_cxx17__normal_iteratorIP18tSimpleCallbackArgSt6vectorIS2_SaIS2_EEEES5_EvT_S8_T0_.eh
	.private_extern __ZSt8_DestroyIN9__gnu_cxx17__normal_iteratorIP18tSimpleCallbackArgSt6vectorIS2_SaIS2_EEEES5_EvT_S8_T0_.eh
	.weak_definition __ZSt8_DestroyIN9__gnu_cxx17__normal_iteratorIP18tSimpleCallbackArgSt6vectorIS2_SaIS2_EEEES5_EvT_S8_T0_.eh
__ZSt8_DestroyIN9__gnu_cxx17__normal_iteratorIP18tSimpleCallbackArgSt6vectorIS2_SaIS2_EEEES5_EvT_S8_T0_.eh:
LSFDE33:
	.set L$set$443,LEFDE33-LASFDE33
	.long L$set$443
LASFDE33:
	.long	LASFDE33-EH_frame1
	.long	LFB10246-.
	.set L$set$444,LFE10246-LFB10246
	.long L$set$444
	.byte	0x4
	.long	0x0
	.align 2
LEFDE33:
	.globl __ZSt8_DestroyIPSt4pairIfS0_IfiEESaIS2_EEvT_S5_T0_.eh
	.private_extern __ZSt8_DestroyIPSt4pairIfS0_IfiEESaIS2_EEvT_S5_T0_.eh
	.weak_definition __ZSt8_DestroyIPSt4pairIfS0_IfiEESaIS2_EEvT_S5_T0_.eh
__ZSt8_DestroyIPSt4pairIfS0_IfiEESaIS2_EEvT_S5_T0_.eh:
LSFDE35:
	.set L$set$445,LEFDE35-LASFDE35
	.long L$set$445
LASFDE35:
	.long	LASFDE35-EH_frame1
	.long	LFB10476-.
	.set L$set$446,LFE10476-LFB10476
	.long L$set$446
	.byte	0x4
	.long	0x0
	.align 2
LEFDE35:
	.globl __ZN5boost7polygon20scanline_orientationINS0_19polygon_90_set_dataIfEEEENS_9enable_ifINS0_22is_polygon_90_set_typeIT_E4typeENS0_14orientation_2dEE4typeERKS6_.eh
	.private_extern __ZN5boost7polygon20scanline_orientationINS0_19polygon_90_set_dataIfEEEENS_9enable_ifINS0_22is_polygon_90_set_typeIT_E4typeENS0_14orientation_2dEE4typeERKS6_.eh
	.weak_definition __ZN5boost7polygon20scanline_orientationINS0_19polygon_90_set_dataIfEEEENS_9enable_ifINS0_22is_polygon_90_set_typeIT_E4typeENS0_14orientation_2dEE4typeERKS6_.eh
__ZN5boost7polygon20scanline_orientationINS0_19polygon_90_set_dataIfEEEENS_9enable_ifINS0_22is_polygon_90_set_typeIT_E4typeENS0_14orientation_2dEE4typeERKS6_.eh:
LSFDE37:
	.set L$set$447,LEFDE37-LASFDE37
	.long L$set$447
LASFDE37:
	.long	LASFDE37-EH_frame1
	.long	LFB10486-.
	.set L$set$448,LFE10486-LFB10486
	.long L$set$448
	.byte	0x4
	.long	0x0
	.align 2
LEFDE37:
	.globl __ZN5boost16exception_detail8set_infoINS0_10clone_implINS0_10bad_alloc_EEEEERKT_S7_RKNS_10error_infoINS_15throw_function_EPKcEE.eh
	.private_extern __ZN5boost16exception_detail8set_infoINS0_10clone_implINS0_10bad_alloc_EEEEERKT_S7_RKNS_10error_infoINS_15throw_function_EPKcEE.eh
	.weak_definition __ZN5boost16exception_detail8set_infoINS0_10clone_implINS0_10bad_alloc_EEEEERKT_S7_RKNS_10error_infoINS_15throw_function_EPKcEE.eh
__ZN5boost16exception_detail8set_infoINS0_10clone_implINS0_10bad_alloc_EEEEERKT_S7_RKNS_10error_infoINS_15throw_function_EPKcEE.eh:
LSFDE39:
	.set L$set$449,LEFDE39-LASFDE39
	.long L$set$449
LASFDE39:
	.long	LASFDE39-EH_frame1
	.long	LFB10823-.
	.set L$set$450,LFE10823-LFB10823
	.long L$set$450
	.byte	0x4
	.long	0x0
	.align 2
LEFDE39:
	.globl __ZN5boost16exception_detail8set_infoINS0_10clone_implINS0_10bad_alloc_EEEEERKT_S7_RKNS_10error_infoINS_11throw_file_EPKcEE.eh
	.private_extern __ZN5boost16exception_detail8set_infoINS0_10clone_implINS0_10bad_alloc_EEEEERKT_S7_RKNS_10error_infoINS_11throw_file_EPKcEE.eh
	.weak_definition __ZN5boost16exception_detail8set_infoINS0_10clone_implINS0_10bad_alloc_EEEEERKT_S7_RKNS_10error_infoINS_11throw_file_EPKcEE.eh
__ZN5boost16exception_detail8set_infoINS0_10clone_implINS0_10bad_alloc_EEEEERKT_S7_RKNS_10error_infoINS_11throw_file_EPKcEE.eh:
LSFDE41:
	.set L$set$451,LEFDE41-LASFDE41
	.long L$set$451
LASFDE41:
	.long	LASFDE41-EH_frame1
	.long	LFB10824-.
	.set L$set$452,LFE10824-LFB10824
	.long L$set$452
	.byte	0x4
	.long	0x0
	.align 2
LEFDE41:
	.globl __ZN5boost16exception_detail8set_infoINS0_10clone_implINS0_10bad_alloc_EEEEERKT_S7_RKNS_10error_infoINS_11throw_line_EiEE.eh
	.private_extern __ZN5boost16exception_detail8set_infoINS0_10clone_implINS0_10bad_alloc_EEEEERKT_S7_RKNS_10error_infoINS_11throw_line_EiEE.eh
	.weak_definition __ZN5boost16exception_detail8set_infoINS0_10clone_implINS0_10bad_alloc_EEEEERKT_S7_RKNS_10error_infoINS_11throw_line_EiEE.eh
__ZN5boost16exception_detail8set_infoINS0_10clone_implINS0_10bad_alloc_EEEEERKT_S7_RKNS_10error_infoINS_11throw_line_EiEE.eh:
LSFDE43:
	.set L$set$453,LEFDE43-LASFDE43
	.long L$set$453
LASFDE43:
	.long	LASFDE43-EH_frame1
	.long	LFB10825-.
	.set L$set$454,LFE10825-LFB10825
	.long L$set$454
	.byte	0x4
	.long	0x0
	.align 2
LEFDE43:
	.globl __ZN5boost16exception_detail8set_infoINS0_10clone_implINS0_14bad_exception_EEEEERKT_S7_RKNS_10error_infoINS_15throw_function_EPKcEE.eh
	.private_extern __ZN5boost16exception_detail8set_infoINS0_10clone_implINS0_14bad_exception_EEEEERKT_S7_RKNS_10error_infoINS_15throw_function_EPKcEE.eh
	.weak_definition __ZN5boost16exception_detail8set_infoINS0_10clone_implINS0_14bad_exception_EEEEERKT_S7_RKNS_10error_infoINS_15throw_function_EPKcEE.eh
__ZN5boost16exception_detail8set_infoINS0_10clone_implINS0_14bad_exception_EEEEERKT_S7_RKNS_10error_infoINS_15throw_function_EPKcEE.eh:
LSFDE45:
	.set L$set$455,LEFDE45-LASFDE45
	.long L$set$455
LASFDE45:
	.long	LASFDE45-EH_frame1
	.long	LFB10829-.
	.set L$set$456,LFE10829-LFB10829
	.long L$set$456
	.byte	0x4
	.long	0x0
	.align 2
LEFDE45:
	.globl __ZN5boost16exception_detail8set_infoINS0_10clone_implINS0_14bad_exception_EEEEERKT_S7_RKNS_10error_infoINS_11throw_file_EPKcEE.eh
	.private_extern __ZN5boost16exception_detail8set_infoINS0_10clone_implINS0_14bad_exception_EEEEERKT_S7_RKNS_10error_infoINS_11throw_file_EPKcEE.eh
	.weak_definition __ZN5boost16exception_detail8set_infoINS0_10clone_implINS0_14bad_exception_EEEEERKT_S7_RKNS_10error_infoINS_11throw_file_EPKcEE.eh
__ZN5boost16exception_detail8set_infoINS0_10clone_implINS0_14bad_exception_EEEEERKT_S7_RKNS_10error_infoINS_11throw_file_EPKcEE.eh:
LSFDE47:
	.set L$set$457,LEFDE47-LASFDE47
	.long L$set$457
LASFDE47:
	.long	LASFDE47-EH_frame1
	.long	LFB10830-.
	.set L$set$458,LFE10830-LFB10830
	.long L$set$458
	.byte	0x4
	.long	0x0
	.align 2
LEFDE47:
	.globl __ZN5boost16exception_detail8set_infoINS0_10clone_implINS0_14bad_exception_EEEEERKT_S7_RKNS_10error_infoINS_11throw_line_EiEE.eh
	.private_extern __ZN5boost16exception_detail8set_infoINS0_10clone_implINS0_14bad_exception_EEEEERKT_S7_RKNS_10error_infoINS_11throw_line_EiEE.eh
	.weak_definition __ZN5boost16exception_detail8set_infoINS0_10clone_implINS0_14bad_exception_EEEEERKT_S7_RKNS_10error_infoINS_11throw_line_EiEE.eh
__ZN5boost16exception_detail8set_infoINS0_10clone_implINS0_14bad_exception_EEEEERKT_S7_RKNS_10error_infoINS_11throw_line_EiEE.eh:
LSFDE49:
	.set L$set$459,LEFDE49-LASFDE49
	.long L$set$459
LASFDE49:
	.long	LASFDE49-EH_frame1
	.long	LFB10831-.
	.set L$set$460,LFE10831-LFB10831
	.long L$set$460
	.byte	0x4
	.long	0x0
	.align 2
LEFDE49:
	.globl __ZN5boost7polygon3getINS0_13interval_dataIfEEEENS0_24interval_coordinate_typeIT_E4typeERKS5_NS0_12direction_1dEPNS_9enable_ifINS0_6gtl_ifINS0_19is_interval_conceptINS0_16geometry_conceptIS5_E4typeEE4typeEE4typeEvE4typeE.eh
	.private_extern __ZN5boost7polygon3getINS0_13interval_dataIfEEEENS0_24interval_coordinate_typeIT_E4typeERKS5_NS0_12direction_1dEPNS_9enable_ifINS0_6gtl_ifINS0_19is_interval_conceptINS0_16geometry_conceptIS5_E4typeEE4typeEE4typeEvE4typeE.eh
	.weak_definition __ZN5boost7polygon3getINS0_13interval_dataIfEEEENS0_24interval_coordinate_typeIT_E4typeERKS5_NS0_12direction_1dEPNS_9enable_ifINS0_6gtl_ifINS0_19is_interval_conceptINS0_16geometry_conceptIS5_E4typeEE4typeEE4typeEvE4typeE.eh
__ZN5boost7polygon3getINS0_13interval_dataIfEEEENS0_24interval_coordinate_typeIT_E4typeERKS5_NS0_12direction_1dEPNS_9enable_ifINS0_6gtl_ifINS0_19is_interval_conceptINS0_16geometry_conceptIS5_E4typeEE4typeEE4typeEvE4typeE.eh:
LSFDE51:
	.set L$set$461,LEFDE51-LASFDE51
	.long L$set$461
LASFDE51:
	.long	LASFDE51-EH_frame1
	.long	LFB11012-.
	.set L$set$462,LFE11012-LFB11012
	.long L$set$462
	.byte	0x4
	.long	0x0
	.align 2
LEFDE51:
	.globl __ZN5boost7polygon3lowINS0_13interval_dataIfEEEENS0_15interval_traitsIT_E15coordinate_typeERKS5_PNS_9enable_ifINS0_19is_interval_conceptINS0_16geometry_conceptIS5_E4typeEE4typeEvE4typeE.eh
	.private_extern __ZN5boost7polygon3lowINS0_13interval_dataIfEEEENS0_15interval_traitsIT_E15coordinate_typeERKS5_PNS_9enable_ifINS0_19is_interval_conceptINS0_16geometry_conceptIS5_E4typeEE4typeEvE4typeE.eh
	.weak_definition __ZN5boost7polygon3lowINS0_13interval_dataIfEEEENS0_15interval_traitsIT_E15coordinate_typeERKS5_PNS_9enable_ifINS0_19is_interval_conceptINS0_16geometry_conceptIS5_E4typeEE4typeEvE4typeE.eh
__ZN5boost7polygon3lowINS0_13interval_dataIfEEEENS0_15interval_traitsIT_E15coordinate_typeERKS5_PNS_9enable_ifINS0_19is_interval_conceptINS0_16geometry_conceptIS5_E4typeEE4typeEvE4typeE.eh:
LSFDE53:
	.set L$set$463,LEFDE53-LASFDE53
	.long L$set$463
LASFDE53:
	.long	LASFDE53-EH_frame1
	.long	LFB10538-.
	.set L$set$464,LFE10538-LFB10538
	.long L$set$464
	.byte	0x4
	.long	0x0
	.byte	0x4
	.set L$set$465,LCFI2-LFB10538
	.long L$set$465
	.byte	0xe
	.byte	0x60
	.byte	0x11
	.byte	0x41
	.byte	0x7e
	.align 2
LEFDE53:
	.globl __ZN5boost7polygon3getINS0_14rectangle_dataIfEEEENS_9enable_ifINS0_7gtl_andINS0_7y_r_getENS0_6gtl_ifINS0_20is_rectangle_conceptINS0_16geometry_conceptIT_E4typeEE4typeEE4typeEE4typeENS0_25rectangle_coordinate_typeISA_E4typeEE4typeERKSA_NS0_14orientation_2dENS0_12direction_1dE.eh
	.private_extern __ZN5boost7polygon3getINS0_14rectangle_dataIfEEEENS_9enable_ifINS0_7gtl_andINS0_7y_r_getENS0_6gtl_ifINS0_20is_rectangle_conceptINS0_16geometry_conceptIT_E4typeEE4typeEE4typeEE4typeENS0_25rectangle_coordinate_typeISA_E4typeEE4typeERKSA_NS0_14orientation_2dENS0_12direction_1dE.eh
	.weak_definition __ZN5boost7polygon3getINS0_14rectangle_dataIfEEEENS_9enable_ifINS0_7gtl_andINS0_7y_r_getENS0_6gtl_ifINS0_20is_rectangle_conceptINS0_16geometry_conceptIT_E4typeEE4typeEE4typeEE4typeENS0_25rectangle_coordinate_typeISA_E4typeEE4typeERKSA_NS0_14orientation_2dENS0_12direction_1dE.eh
__ZN5boost7polygon3getINS0_14rectangle_dataIfEEEENS_9enable_ifINS0_7gtl_andINS0_7y_r_getENS0_6gtl_ifINS0_20is_rectangle_conceptINS0_16geometry_conceptIT_E4typeEE4typeEE4typeEE4typeENS0_25rectangle_coordinate_typeISA_E4typeEE4typeERKSA_NS0_14orientation_2dENS0_12direction_1dE.eh:
LSFDE55:
	.set L$set$466,LEFDE55-LASFDE55
	.long L$set$466
LASFDE55:
	.long	LASFDE55-EH_frame1
	.long	LFB10167-.
	.set L$set$467,LFE10167-LFB10167
	.long L$set$467
	.byte	0x4
	.long	0x0
	.byte	0x4
	.set L$set$468,LCFI5-LFB10167
	.long L$set$468
	.byte	0xe
	.byte	0x60
	.byte	0x11
	.byte	0x41
	.byte	0x7e
	.align 2
LEFDE55:
	.globl __ZN5boost7polygon2ylINS0_14rectangle_dataIfEEEENS_9enable_ifINS0_7gtl_andINS0_6y_r_ylENS0_6gtl_ifINS0_20is_rectangle_conceptINS0_16geometry_conceptIT_E4typeEE4typeEE4typeEE4typeENS0_25rectangle_coordinate_typeISA_E4typeEE4typeERKSA_.eh
	.private_extern __ZN5boost7polygon2ylINS0_14rectangle_dataIfEEEENS_9enable_ifINS0_7gtl_andINS0_6y_r_ylENS0_6gtl_ifINS0_20is_rectangle_conceptINS0_16geometry_conceptIT_E4typeEE4typeEE4typeEE4typeENS0_25rectangle_coordinate_typeISA_E4typeEE4typeERKSA_.eh
	.weak_definition __ZN5boost7polygon2ylINS0_14rectangle_dataIfEEEENS_9enable_ifINS0_7gtl_andINS0_6y_r_ylENS0_6gtl_ifINS0_20is_rectangle_conceptINS0_16geometry_conceptIT_E4typeEE4typeEE4typeEE4typeENS0_25rectangle_coordinate_typeISA_E4typeEE4typeERKSA_.eh
__ZN5boost7polygon2ylINS0_14rectangle_dataIfEEEENS_9enable_ifINS0_7gtl_andINS0_6y_r_ylENS0_6gtl_ifINS0_20is_rectangle_conceptINS0_16geometry_conceptIT_E4typeEE4typeEE4typeEE4typeENS0_25rectangle_coordinate_typeISA_E4typeEE4typeERKSA_.eh:
LSFDE57:
	.set L$set$469,LEFDE57-LASFDE57
	.long L$set$469
LASFDE57:
	.long	LASFDE57-EH_frame1
	.long	LFB9280-.
	.set L$set$470,LFE9280-LFB9280
	.long L$set$470
	.byte	0x4
	.long	0x0
	.byte	0x4
	.set L$set$471,LCFI8-LFB9280
	.long L$set$471
	.byte	0xe
	.byte	0x60
	.byte	0x11
	.byte	0x41
	.byte	0x7e
	.align 2
LEFDE57:
	.globl __ZN5boost7polygon2xlINS0_14rectangle_dataIfEEEENS_9enable_ifINS0_7gtl_andINS0_6y_r_xlENS0_6gtl_ifINS0_20is_rectangle_conceptINS0_16geometry_conceptIT_E4typeEE4typeEE4typeEE4typeENS0_25rectangle_coordinate_typeISA_E4typeEE4typeERKSA_.eh
	.private_extern __ZN5boost7polygon2xlINS0_14rectangle_dataIfEEEENS_9enable_ifINS0_7gtl_andINS0_6y_r_xlENS0_6gtl_ifINS0_20is_rectangle_conceptINS0_16geometry_conceptIT_E4typeEE4typeEE4typeEE4typeENS0_25rectangle_coordinate_typeISA_E4typeEE4typeERKSA_.eh
	.weak_definition __ZN5boost7polygon2xlINS0_14rectangle_dataIfEEEENS_9enable_ifINS0_7gtl_andINS0_6y_r_xlENS0_6gtl_ifINS0_20is_rectangle_conceptINS0_16geometry_conceptIT_E4typeEE4typeEE4typeEE4typeENS0_25rectangle_coordinate_typeISA_E4typeEE4typeERKSA_.eh
__ZN5boost7polygon2xlINS0_14rectangle_dataIfEEEENS_9enable_ifINS0_7gtl_andINS0_6y_r_xlENS0_6gtl_ifINS0_20is_rectangle_conceptINS0_16geometry_conceptIT_E4typeEE4typeEE4typeEE4typeENS0_25rectangle_coordinate_typeISA_E4typeEE4typeERKSA_.eh:
LSFDE59:
	.set L$set$472,LEFDE59-LASFDE59
	.long L$set$472
LASFDE59:
	.long	LASFDE59-EH_frame1
	.long	LFB9279-.
	.set L$set$473,LFE9279-LFB9279
	.long L$set$473
	.byte	0x4
	.long	0x0
	.byte	0x4
	.set L$set$474,LCFI11-LFB9279
	.long L$set$474
	.byte	0xe
	.byte	0x60
	.byte	0x11
	.byte	0x41
	.byte	0x7e
	.align 2
LEFDE59:
	.globl __ZN5boost7polygon4highINS0_13interval_dataIfEEEENS0_15interval_traitsIT_E15coordinate_typeERKS5_PNS_9enable_ifINS0_19is_interval_conceptINS0_16geometry_conceptIS5_E4typeEE4typeEvE4typeE.eh
	.private_extern __ZN5boost7polygon4highINS0_13interval_dataIfEEEENS0_15interval_traitsIT_E15coordinate_typeERKS5_PNS_9enable_ifINS0_19is_interval_conceptINS0_16geometry_conceptIS5_E4typeEE4typeEvE4typeE.eh
	.weak_definition __ZN5boost7polygon4highINS0_13interval_dataIfEEEENS0_15interval_traitsIT_E15coordinate_typeERKS5_PNS_9enable_ifINS0_19is_interval_conceptINS0_16geometry_conceptIS5_E4typeEE4typeEvE4typeE.eh
__ZN5boost7polygon4highINS0_13interval_dataIfEEEENS0_15interval_traitsIT_E15coordinate_typeERKS5_PNS_9enable_ifINS0_19is_interval_conceptINS0_16geometry_conceptIS5_E4typeEE4typeEvE4typeE.eh:
LSFDE61:
	.set L$set$475,LEFDE61-LASFDE61
	.long L$set$475
LASFDE61:
	.long	LASFDE61-EH_frame1
	.long	LFB11013-.
	.set L$set$476,LFE11013-LFB11013
	.long L$set$476
	.byte	0x4
	.long	0x0
	.byte	0x4
	.set L$set$477,LCFI14-LFB11013
	.long L$set$477
	.byte	0xe
	.byte	0x60
	.byte	0x11
	.byte	0x41
	.byte	0x7e
	.align 2
LEFDE61:
	.globl __ZN5boost7polygon8containsINS0_13interval_dataIfEEEENS_9enable_ifINS0_7gtl_andINS0_12y_i_containsENS0_19is_interval_conceptINS0_16geometry_conceptIT_E4typeEE4typeEE4typeEbE4typeERKS9_NS0_15interval_traitsIS9_E15coordinate_typeEb.eh
	.private_extern __ZN5boost7polygon8containsINS0_13interval_dataIfEEEENS_9enable_ifINS0_7gtl_andINS0_12y_i_containsENS0_19is_interval_conceptINS0_16geometry_conceptIT_E4typeEE4typeEE4typeEbE4typeERKS9_NS0_15interval_traitsIS9_E15coordinate_typeEb.eh
	.weak_definition __ZN5boost7polygon8containsINS0_13interval_dataIfEEEENS_9enable_ifINS0_7gtl_andINS0_12y_i_containsENS0_19is_interval_conceptINS0_16geometry_conceptIT_E4typeEE4typeEE4typeEbE4typeERKS9_NS0_15interval_traitsIS9_E15coordinate_typeEb.eh
__ZN5boost7polygon8containsINS0_13interval_dataIfEEEENS_9enable_ifINS0_7gtl_andINS0_12y_i_containsENS0_19is_interval_conceptINS0_16geometry_conceptIT_E4typeEE4typeEE4typeEbE4typeERKS9_NS0_15interval_traitsIS9_E15coordinate_typeEb.eh:
LSFDE63:
	.set L$set$478,LEFDE63-LASFDE63
	.long L$set$478
LASFDE63:
	.long	LASFDE63-EH_frame1
	.long	LFB10231-.
	.set L$set$479,LFE10231-LFB10231
	.long L$set$479
	.byte	0x4
	.long	0x0
	.byte	0x4
	.set L$set$480,LCFI16-LFB10231
	.long L$set$480
	.byte	0xbf
	.byte	0x2
	.byte	0x9
	.byte	0x41
	.byte	0x0
	.byte	0x4
	.set L$set$481,LCFI17-LCFI16
	.long L$set$481
	.byte	0x9f
	.byte	0x3
	.byte	0x9e
	.byte	0x4
	.byte	0x4
	.set L$set$482,LCFI19-LCFI17
	.long L$set$482
	.byte	0xe
	.byte	0x50
	.byte	0x11
	.byte	0x41
	.byte	0x7e
	.align 2
LEFDE63:
	.globl __ZN5boost7polygon5deltaINS0_13interval_dataIfEEEENS0_24interval_difference_typeIT_E4typeERKS5_PNS_9enable_ifINS0_19is_interval_conceptINS0_16geometry_conceptIS5_E4typeEE4typeEvE4typeE.eh
	.private_extern __ZN5boost7polygon5deltaINS0_13interval_dataIfEEEENS0_24interval_difference_typeIT_E4typeERKS5_PNS_9enable_ifINS0_19is_interval_conceptINS0_16geometry_conceptIS5_E4typeEE4typeEvE4typeE.eh
	.weak_definition __ZN5boost7polygon5deltaINS0_13interval_dataIfEEEENS0_24interval_difference_typeIT_E4typeERKS5_PNS_9enable_ifINS0_19is_interval_conceptINS0_16geometry_conceptIS5_E4typeEE4typeEvE4typeE.eh
__ZN5boost7polygon5deltaINS0_13interval_dataIfEEEENS0_24interval_difference_typeIT_E4typeERKS5_PNS_9enable_ifINS0_19is_interval_conceptINS0_16geometry_conceptIS5_E4typeEE4typeEvE4typeE.eh:
LSFDE65:
	.set L$set$483,LEFDE65-LASFDE65
	.long L$set$483
LASFDE65:
	.long	LASFDE65-EH_frame1
	.long	LFB10168-.
	.set L$set$484,LFE10168-LFB10168
	.long L$set$484
	.byte	0x4
	.long	0x0
	.byte	0x4
	.set L$set$485,LCFI22-LFB10168
	.long L$set$485
	.byte	0x9f
	.byte	0x3
	.byte	0x9e
	.byte	0x4
	.byte	0x9d
	.byte	0x5
	.byte	0xbf
	.byte	0x2
	.byte	0x9
	.byte	0x41
	.byte	0x0
	.byte	0x4
	.set L$set$486,LCFI24-LCFI22
	.long L$set$486
	.byte	0xe
	.byte	0x60
	.byte	0x11
	.byte	0x41
	.byte	0x7e
	.align 2
LEFDE65:
	.globl __ZN5boost7polygon5deltaINS0_14rectangle_dataIfEEEENS_9enable_ifINS0_7gtl_andINS0_9y_r_deltaENS0_6gtl_ifINS0_20is_rectangle_conceptINS0_16geometry_conceptIT_E4typeEE4typeEE4typeEE4typeENS0_25rectangle_difference_typeISA_E4typeEE4typeERKSA_NS0_14orientation_2dE.eh
	.private_extern __ZN5boost7polygon5deltaINS0_14rectangle_dataIfEEEENS_9enable_ifINS0_7gtl_andINS0_9y_r_deltaENS0_6gtl_ifINS0_20is_rectangle_conceptINS0_16geometry_conceptIT_E4typeEE4typeEE4typeEE4typeENS0_25rectangle_difference_typeISA_E4typeEE4typeERKSA_NS0_14orientation_2dE.eh
	.weak_definition __ZN5boost7polygon5deltaINS0_14rectangle_dataIfEEEENS_9enable_ifINS0_7gtl_andINS0_9y_r_deltaENS0_6gtl_ifINS0_20is_rectangle_conceptINS0_16geometry_conceptIT_E4typeEE4typeEE4typeEE4typeENS0_25rectangle_difference_typeISA_E4typeEE4typeERKSA_NS0_14orientation_2dE.eh
__ZN5boost7polygon5deltaINS0_14rectangle_dataIfEEEENS_9enable_ifINS0_7gtl_andINS0_9y_r_deltaENS0_6gtl_ifINS0_20is_rectangle_conceptINS0_16geometry_conceptIT_E4typeEE4typeEE4typeEE4typeENS0_25rectangle_difference_typeISA_E4typeEE4typeERKSA_NS0_14orientation_2dE.eh:
LSFDE67:
	.set L$set$487,LEFDE67-LASFDE67
	.long L$set$487
LASFDE67:
	.long	LASFDE67-EH_frame1
	.long	LFB9281-.
	.set L$set$488,LFE9281-LFB9281
	.long L$set$488
	.byte	0x4
	.long	0x0
	.byte	0x4
	.set L$set$489,LCFI28-LFB9281
	.long L$set$489
	.byte	0xe
	.byte	0x60
	.byte	0x9f
	.byte	0x1
	.byte	0x9e
	.byte	0x2
	.byte	0x9d
	.byte	0x3
	.byte	0x11
	.byte	0x41
	.byte	0x7e
	.align 2
LEFDE67:
	.globl __ZN5boost7polygon3getINS0_10point_dataIfEEEENS0_21point_coordinate_typeIT_E4typeERKS5_NS0_14orientation_2dEPNS_9enable_ifINS0_6gtl_ifINS0_16is_point_conceptINS0_16geometry_conceptIS5_E4typeEE4typeEE4typeEvE4typeE.eh
	.private_extern __ZN5boost7polygon3getINS0_10point_dataIfEEEENS0_21point_coordinate_typeIT_E4typeERKS5_NS0_14orientation_2dEPNS_9enable_ifINS0_6gtl_ifINS0_16is_point_conceptINS0_16geometry_conceptIS5_E4typeEE4typeEE4typeEvE4typeE.eh
	.weak_definition __ZN5boost7polygon3getINS0_10point_dataIfEEEENS0_21point_coordinate_typeIT_E4typeERKS5_NS0_14orientation_2dEPNS_9enable_ifINS0_6gtl_ifINS0_16is_point_conceptINS0_16geometry_conceptIS5_E4typeEE4typeEE4typeEvE4typeE.eh
__ZN5boost7polygon3getINS0_10point_dataIfEEEENS0_21point_coordinate_typeIT_E4typeERKS5_NS0_14orientation_2dEPNS_9enable_ifINS0_6gtl_ifINS0_16is_point_conceptINS0_16geometry_conceptIS5_E4typeEE4typeEE4typeEvE4typeE.eh:
LSFDE69:
	.set L$set$490,LEFDE69-LASFDE69
	.long L$set$490
LASFDE69:
	.long	LASFDE69-EH_frame1
	.long	LFB11054-.
	.set L$set$491,LFE11054-LFB11054
	.long L$set$491
	.byte	0x4
	.long	0x0
	.align 2
LEFDE69:
	.globl __ZN5boost7polygon1xINS0_10point_dataIfEEEENS_9enable_ifINS0_7gtl_andINS0_5y_p_xENS0_16is_point_conceptINS0_16geometry_conceptIT_E4typeEE4typeEE4typeENS0_12point_traitsIS9_E15coordinate_typeEE4typeERKS9_.eh
	.private_extern __ZN5boost7polygon1xINS0_10point_dataIfEEEENS_9enable_ifINS0_7gtl_andINS0_5y_p_xENS0_16is_point_conceptINS0_16geometry_conceptIT_E4typeEE4typeEE4typeENS0_12point_traitsIS9_E15coordinate_typeEE4typeERKS9_.eh
	.weak_definition __ZN5boost7polygon1xINS0_10point_dataIfEEEENS_9enable_ifINS0_7gtl_andINS0_5y_p_xENS0_16is_point_conceptINS0_16geometry_conceptIT_E4typeEE4typeEE4typeENS0_12point_traitsIS9_E15coordinate_typeEE4typeERKS9_.eh
__ZN5boost7polygon1xINS0_10point_dataIfEEEENS_9enable_ifINS0_7gtl_andINS0_5y_p_xENS0_16is_point_conceptINS0_16geometry_conceptIT_E4typeEE4typeEE4typeENS0_12point_traitsIS9_E15coordinate_typeEE4typeERKS9_.eh:
LSFDE71:
	.set L$set$492,LEFDE71-LASFDE71
	.long L$set$492
LASFDE71:
	.long	LASFDE71-EH_frame1
	.long	LFB10233-.
	.set L$set$493,LFE10233-LFB10233
	.long L$set$493
	.byte	0x4
	.long	0x0
	.byte	0x4
	.set L$set$494,LCFI31-LFB10233
	.long L$set$494
	.byte	0xe
	.byte	0x60
	.byte	0x11
	.byte	0x41
	.byte	0x7e
	.align 2
LEFDE71:
	.globl __ZN5boost7polygon1yINS0_10point_dataIfEEEENS_9enable_ifINS0_7gtl_andINS0_5y_p_yENS0_16is_point_conceptINS0_16geometry_conceptIT_E4typeEE4typeEE4typeENS0_12point_traitsIS9_E15coordinate_typeEE4typeERKS9_.eh
	.private_extern __ZN5boost7polygon1yINS0_10point_dataIfEEEENS_9enable_ifINS0_7gtl_andINS0_5y_p_yENS0_16is_point_conceptINS0_16geometry_conceptIT_E4typeEE4typeEE4typeENS0_12point_traitsIS9_E15coordinate_typeEE4typeERKS9_.eh
	.weak_definition __ZN5boost7polygon1yINS0_10point_dataIfEEEENS_9enable_ifINS0_7gtl_andINS0_5y_p_yENS0_16is_point_conceptINS0_16geometry_conceptIT_E4typeEE4typeEE4typeENS0_12point_traitsIS9_E15coordinate_typeEE4typeERKS9_.eh
__ZN5boost7polygon1yINS0_10point_dataIfEEEENS_9enable_ifINS0_7gtl_andINS0_5y_p_yENS0_16is_point_conceptINS0_16geometry_conceptIT_E4typeEE4typeEE4typeENS0_12point_traitsIS9_E15coordinate_typeEE4typeERKS9_.eh:
LSFDE73:
	.set L$set$495,LEFDE73-LASFDE73
	.long L$set$495
LASFDE73:
	.long	LASFDE73-EH_frame1
	.long	LFB10230-.
	.set L$set$496,LFE10230-LFB10230
	.long L$set$496
	.byte	0x4
	.long	0x0
	.byte	0x4
	.set L$set$497,LCFI34-LFB10230
	.long L$set$497
	.byte	0xe
	.byte	0x60
	.byte	0x11
	.byte	0x41
	.byte	0x7e
	.align 2
LEFDE73:
	.globl __ZN5boost7polygon8containsINS0_14rectangle_dataIfEENS0_10point_dataIfEEEENS_9enable_ifINS0_9gtl_and_3INS0_13y_r_contains2ENS0_20is_rectangle_conceptINS0_16geometry_conceptIT_E4typeEE4typeENS0_16is_point_conceptINSA_IT0_E4typeEE4typeEE4typeEbE4typeERKSB_SH_b.eh
	.private_extern __ZN5boost7polygon8containsINS0_14rectangle_dataIfEENS0_10point_dataIfEEEENS_9enable_ifINS0_9gtl_and_3INS0_13y_r_contains2ENS0_20is_rectangle_conceptINS0_16geometry_conceptIT_E4typeEE4typeENS0_16is_point_conceptINSA_IT0_E4typeEE4typeEE4typeEbE4typeERKSB_SH_b.eh
	.weak_definition __ZN5boost7polygon8containsINS0_14rectangle_dataIfEENS0_10point_dataIfEEEENS_9enable_ifINS0_9gtl_and_3INS0_13y_r_contains2ENS0_20is_rectangle_conceptINS0_16geometry_conceptIT_E4typeEE4typeENS0_16is_point_conceptINSA_IT0_E4typeEE4typeEE4typeEbE4typeERKSB_SH_b.eh
__ZN5boost7polygon8containsINS0_14rectangle_dataIfEENS0_10point_dataIfEEEENS_9enable_ifINS0_9gtl_and_3INS0_13y_r_contains2ENS0_20is_rectangle_conceptINS0_16geometry_conceptIT_E4typeEE4typeENS0_16is_point_conceptINSA_IT0_E4typeEE4typeEE4typeEbE4typeERKSB_SH_b.eh:
LSFDE75:
	.set L$set$498,LEFDE75-LASFDE75
	.long L$set$498
LASFDE75:
	.long	LASFDE75-EH_frame1
	.long	LFB9328-.
	.set L$set$499,LFE9328-LFB9328
	.long L$set$499
	.byte	0x4
	.long	0x0
	.byte	0x4
	.set L$set$500,LCFI36-LFB9328
	.long L$set$500
	.byte	0x9f
	.byte	0x1
	.byte	0x9e
	.byte	0x2
	.byte	0x9d
	.byte	0x3
	.byte	0x9c
	.byte	0x4
	.byte	0x9b
	.byte	0x5
	.byte	0x9
	.byte	0x41
	.byte	0x0
	.byte	0x4
	.set L$set$501,LCFI38-LCFI36
	.long L$set$501
	.byte	0xe
	.byte	0x70
	.byte	0x11
	.byte	0x41
	.byte	0x7e
	.align 2
LEFDE75:
	.globl __ZSt8_DestroyIN9__gnu_cxx17__normal_iteratorIPSt4pairIfS2_IfiEESt6vectorIS4_SaIS4_EEEES7_EvT_SA_T0_.eh
	.private_extern __ZSt8_DestroyIN9__gnu_cxx17__normal_iteratorIPSt4pairIfS2_IfiEESt6vectorIS4_SaIS4_EEEES7_EvT_SA_T0_.eh
	.weak_definition __ZSt8_DestroyIN9__gnu_cxx17__normal_iteratorIPSt4pairIfS2_IfiEESt6vectorIS4_SaIS4_EEEES7_EvT_SA_T0_.eh
__ZSt8_DestroyIN9__gnu_cxx17__normal_iteratorIPSt4pairIfS2_IfiEESt6vectorIS4_SaIS4_EEEES7_EvT_SA_T0_.eh:
LSFDE77:
	.set L$set$502,LEFDE77-LASFDE77
	.long L$set$502
LASFDE77:
	.long	LASFDE77-EH_frame1
	.long	LFB11070-.
	.set L$set$503,LFE11070-LFB11070
	.long L$set$503
	.byte	0x4
	.long	0x0
	.align 2
LEFDE77:
	.globl __ZSt8_DestroyIPSt4pairIN5boost7polygon13interval_dataIfEEiESaIS5_EEvT_S8_T0_.eh
	.private_extern __ZSt8_DestroyIPSt4pairIN5boost7polygon13interval_dataIfEEiESaIS5_EEvT_S8_T0_.eh
	.weak_definition __ZSt8_DestroyIPSt4pairIN5boost7polygon13interval_dataIfEEiESaIS5_EEvT_S8_T0_.eh
__ZSt8_DestroyIPSt4pairIN5boost7polygon13interval_dataIfEEiESaIS5_EEvT_S8_T0_.eh:
LSFDE79:
	.set L$set$504,LEFDE79-LASFDE79
	.long L$set$504
LASFDE79:
	.long	LASFDE79-EH_frame1
	.long	LFB11976-.
	.set L$set$505,LFE11976-LFB11976
	.long L$set$505
	.byte	0x4
	.long	0x0
	.align 2
LEFDE79:
	.globl __ZN5boost7polygon8containsINS0_13interval_dataIfEES3_EEbRKT_RKT0_bPNS_9enable_ifINS0_7gtl_andINS0_19is_interval_conceptINS0_16geometry_conceptIS4_E4typeEE4typeENSC_INSD_IS7_E4typeEE4typeEE4typeEvE4typeE.eh
	.private_extern __ZN5boost7polygon8containsINS0_13interval_dataIfEES3_EEbRKT_RKT0_bPNS_9enable_ifINS0_7gtl_andINS0_19is_interval_conceptINS0_16geometry_conceptIS4_E4typeEE4typeENSC_INSD_IS7_E4typeEE4typeEE4typeEvE4typeE.eh
	.weak_definition __ZN5boost7polygon8containsINS0_13interval_dataIfEES3_EEbRKT_RKT0_bPNS_9enable_ifINS0_7gtl_andINS0_19is_interval_conceptINS0_16geometry_conceptIS4_E4typeEE4typeENSC_INSD_IS7_E4typeEE4typeEE4typeEvE4typeE.eh
__ZN5boost7polygon8containsINS0_13interval_dataIfEES3_EEbRKT_RKT0_bPNS_9enable_ifINS0_7gtl_andINS0_19is_interval_conceptINS0_16geometry_conceptIS4_E4typeEE4typeENSC_INSD_IS7_E4typeEE4typeEE4typeEvE4typeE.eh:
LSFDE81:
	.set L$set$506,LEFDE81-LASFDE81
	.long L$set$506
LASFDE81:
	.long	LASFDE81-EH_frame1
	.long	LFB12210-.
	.set L$set$507,LFE12210-LFB12210
	.long L$set$507
	.byte	0x4
	.long	0x0
	.byte	0x4
	.set L$set$508,LCFI40-LFB12210
	.long L$set$508
	.byte	0x9f
	.byte	0x1
	.byte	0x9e
	.byte	0x2
	.byte	0x9d
	.byte	0x3
	.byte	0x9c
	.byte	0x4
	.byte	0x9
	.byte	0x41
	.byte	0x0
	.byte	0x4
	.set L$set$509,LCFI42-LCFI40
	.long L$set$509
	.byte	0xe
	.byte	0x60
	.byte	0x11
	.byte	0x41
	.byte	0x7e
	.align 2
LEFDE81:
	.globl __ZSt8_DestroyIN9__gnu_cxx17__normal_iteratorIPSt4pairIN5boost7polygon13interval_dataIfEEiESt6vectorIS7_SaIS7_EEEESA_EvT_SD_T0_.eh
	.private_extern __ZSt8_DestroyIN9__gnu_cxx17__normal_iteratorIPSt4pairIN5boost7polygon13interval_dataIfEEiESt6vectorIS7_SaIS7_EEEESA_EvT_SD_T0_.eh
	.weak_definition __ZSt8_DestroyIN9__gnu_cxx17__normal_iteratorIPSt4pairIN5boost7polygon13interval_dataIfEEiESt6vectorIS7_SaIS7_EEEESA_EvT_SD_T0_.eh
__ZSt8_DestroyIN9__gnu_cxx17__normal_iteratorIPSt4pairIN5boost7polygon13interval_dataIfEEiESt6vectorIS7_SaIS7_EEEESA_EvT_SD_T0_.eh:
LSFDE83:
	.set L$set$510,LEFDE83-LASFDE83
	.long L$set$510
LASFDE83:
	.long	LASFDE83-EH_frame1
	.long	LFB12601-.
	.set L$set$511,LFE12601-LFB12601
	.long L$set$511
	.byte	0x4
	.long	0x0
	.align 2
LEFDE83:
	.globl __ZNSt6vectorI18tSimpleCallbackArgSaIS0_EE5eraseEN9__gnu_cxx17__normal_iteratorIPS0_S2_EES6_.eh
	.private_extern __ZNSt6vectorI18tSimpleCallbackArgSaIS0_EE5eraseEN9__gnu_cxx17__normal_iteratorIPS0_S2_EES6_.eh
	.weak_definition __ZNSt6vectorI18tSimpleCallbackArgSaIS0_EE5eraseEN9__gnu_cxx17__normal_iteratorIPS0_S2_EES6_.eh
__ZNSt6vectorI18tSimpleCallbackArgSaIS0_EE5eraseEN9__gnu_cxx17__normal_iteratorIPS0_S2_EES6_.eh:
LSFDE85:
	.set L$set$512,LEFDE85-LASFDE85
	.long L$set$512
LASFDE85:
	.long	LASFDE85-EH_frame1
	.long	LFB10250-.
	.set L$set$513,LFE10250-LFB10250
	.long L$set$513
	.byte	0x4
	.long	0x0
	.byte	0x4
	.set L$set$514,LCFI44-LFB10250
	.long L$set$514
	.byte	0x9f
	.byte	0x1
	.byte	0x9e
	.byte	0x2
	.byte	0x9d
	.byte	0x3
	.byte	0x9c
	.byte	0x4
	.byte	0x9b
	.byte	0x5
	.byte	0x9
	.byte	0x41
	.byte	0x0
	.byte	0x4
	.set L$set$515,LCFI46-LCFI44
	.long L$set$515
	.byte	0xe
	.byte	0x70
	.byte	0x11
	.byte	0x41
	.byte	0x7e
	.align 2
LEFDE85:
	.globl __ZNSt8_Rb_treeIfSt4pairIKfiESt10_Select1stIS2_ESt4lessIfESaIS2_EE11lower_boundERS1_.eh
	.private_extern __ZNSt8_Rb_treeIfSt4pairIKfiESt10_Select1stIS2_ESt4lessIfESaIS2_EE11lower_boundERS1_.eh
	.weak_definition __ZNSt8_Rb_treeIfSt4pairIKfiESt10_Select1stIS2_ESt4lessIfESaIS2_EE11lower_boundERS1_.eh
__ZNSt8_Rb_treeIfSt4pairIKfiESt10_Select1stIS2_ESt4lessIfESaIS2_EE11lower_boundERS1_.eh:
LSFDE87:
	.set L$set$516,LEFDE87-LASFDE87
	.long L$set$516
LASFDE87:
	.long	LASFDE87-EH_frame1
	.long	LFB13066-.
	.set L$set$517,LFE13066-LFB13066
	.long L$set$517
	.byte	0x4
	.long	0x0
	.align 2
LEFDE87:
	.globl __ZN5boost7polygon9constructINS0_13interval_dataIfEEffEET_T0_T1_PNS_9enable_ifINS0_27is_mutable_interval_conceptINS0_16geometry_conceptIS4_E4typeEE4typeEvE4typeE.eh
	.private_extern __ZN5boost7polygon9constructINS0_13interval_dataIfEEffEET_T0_T1_PNS_9enable_ifINS0_27is_mutable_interval_conceptINS0_16geometry_conceptIS4_E4typeEE4typeEvE4typeE.eh
	.weak_definition __ZN5boost7polygon9constructINS0_13interval_dataIfEEffEET_T0_T1_PNS_9enable_ifINS0_27is_mutable_interval_conceptINS0_16geometry_conceptIS4_E4typeEE4typeEvE4typeE.eh
__ZN5boost7polygon9constructINS0_13interval_dataIfEEffEET_T0_T1_PNS_9enable_ifINS0_27is_mutable_interval_conceptINS0_16geometry_conceptIS4_E4typeEE4typeEvE4typeE.eh:
LSFDE89:
	.set L$set$518,LEFDE89-LASFDE89
	.long L$set$518
LASFDE89:
	.long	LASFDE89-EH_frame1
	.long	LFB13160-.
	.set L$set$519,LFE13160-LFB13160
	.long L$set$519
	.byte	0x4
	.long	0x0
	.align 2
LEFDE89:
	.globl __ZN5boost7polygon14copy_constructINS0_13interval_dataIfEES3_EET_RKT0_PNS_9enable_ifINS0_7gtl_andINS0_27is_mutable_interval_conceptINS0_16geometry_conceptIS4_E4typeEE4typeENS0_19is_interval_conceptINSB_IS5_E4typeEE4typeEE4typeEvE4typeE.eh
	.private_extern __ZN5boost7polygon14copy_constructINS0_13interval_dataIfEES3_EET_RKT0_PNS_9enable_ifINS0_7gtl_andINS0_27is_mutable_interval_conceptINS0_16geometry_conceptIS4_E4typeEE4typeENS0_19is_interval_conceptINSB_IS5_E4typeEE4typeEE4typeEvE4typeE.eh
	.weak_definition __ZN5boost7polygon14copy_constructINS0_13interval_dataIfEES3_EET_RKT0_PNS_9enable_ifINS0_7gtl_andINS0_27is_mutable_interval_conceptINS0_16geometry_conceptIS4_E4typeEE4typeENS0_19is_interval_conceptINSB_IS5_E4typeEE4typeEE4typeEvE4typeE.eh
__ZN5boost7polygon14copy_constructINS0_13interval_dataIfEES3_EET_RKT0_PNS_9enable_ifINS0_7gtl_andINS0_27is_mutable_interval_conceptINS0_16geometry_conceptIS4_E4typeEE4typeENS0_19is_interval_conceptINSB_IS5_E4typeEE4typeEE4typeEvE4typeE.eh:
LSFDE91:
	.set L$set$520,LEFDE91-LASFDE91
	.long L$set$520
LASFDE91:
	.long	LASFDE91-EH_frame1
	.long	LFB12694-.
	.set L$set$521,LFE12694-LFB12694
	.long L$set$521
	.byte	0x4
	.long	0x0
	.byte	0x4
	.set L$set$522,LCFI49-LFB12694
	.long L$set$522
	.byte	0x9f
	.byte	0x3
	.byte	0x9e
	.byte	0x4
	.byte	0x9d
	.byte	0x5
	.byte	0x9c
	.byte	0x6
	.byte	0xbf
	.byte	0x2
	.byte	0x9
	.byte	0x41
	.byte	0x0
	.byte	0x4
	.set L$set$523,LCFI51-LCFI49
	.long L$set$523
	.byte	0xe
	.byte	0x70
	.byte	0x11
	.byte	0x41
	.byte	0x7e
	.align 2
LEFDE91:
	.globl __ZN5boost7polygon6assignINS0_13interval_dataIfEES3_EERT_S5_RKT0_PNS_9enable_ifINS0_7gtl_andINS0_27is_mutable_interval_conceptINS0_16geometry_conceptIS4_E4typeEE4typeENS0_19is_interval_conceptINSC_IS6_E4typeEE4typeEE4typeEvE4typeE.eh
	.private_extern __ZN5boost7polygon6assignINS0_13interval_dataIfEES3_EERT_S5_RKT0_PNS_9enable_ifINS0_7gtl_andINS0_27is_mutable_interval_conceptINS0_16geometry_conceptIS4_E4typeEE4typeENS0_19is_interval_conceptINSC_IS6_E4typeEE4typeEE4typeEvE4typeE.eh
	.weak_definition __ZN5boost7polygon6assignINS0_13interval_dataIfEES3_EERT_S5_RKT0_PNS_9enable_ifINS0_7gtl_andINS0_27is_mutable_interval_conceptINS0_16geometry_conceptIS4_E4typeEE4typeENS0_19is_interval_conceptINSC_IS6_E4typeEE4typeEE4typeEvE4typeE.eh
__ZN5boost7polygon6assignINS0_13interval_dataIfEES3_EERT_S5_RKT0_PNS_9enable_ifINS0_7gtl_andINS0_27is_mutable_interval_conceptINS0_16geometry_conceptIS4_E4typeEE4typeENS0_19is_interval_conceptINSC_IS6_E4typeEE4typeEE4typeEvE4typeE.eh:
LSFDE93:
	.set L$set$524,LEFDE93-LASFDE93
	.long L$set$524
LASFDE93:
	.long	LASFDE93-EH_frame1
	.long	LFB12051-.
	.set L$set$525,LFE12051-LFB12051
	.long L$set$525
	.byte	0x4
	.long	0x0
	.byte	0x4
	.set L$set$526,LCFI53-LFB12051
	.long L$set$526
	.byte	0x9f
	.byte	0x1
	.byte	0x9e
	.byte	0x2
	.byte	0x9d
	.byte	0x3
	.byte	0x9
	.byte	0x41
	.byte	0x0
	.byte	0x4
	.set L$set$527,LCFI55-LCFI53
	.long L$set$527
	.byte	0xe
	.byte	0x60
	.byte	0x11
	.byte	0x41
	.byte	0x7e
	.align 2
LEFDE93:
	.globl __ZN5boost7polygon3setINS0_14rectangle_dataIfEENS0_13interval_dataIfEEEENS_9enable_ifINS0_9gtl_and_3INS0_8y_r_set2ENS0_28is_mutable_rectangle_conceptINS0_16geometry_conceptIT_E4typeEE4typeENS0_19is_interval_conceptINSA_IT0_E4typeEE4typeEE4typeEvE4typeERSB_NS0_14orientation_2dERKSH_.eh
	.private_extern __ZN5boost7polygon3setINS0_14rectangle_dataIfEENS0_13interval_dataIfEEEENS_9enable_ifINS0_9gtl_and_3INS0_8y_r_set2ENS0_28is_mutable_rectangle_conceptINS0_16geometry_conceptIT_E4typeEE4typeENS0_19is_interval_conceptINSA_IT0_E4typeEE4typeEE4typeEvE4typeERSB_NS0_14orientation_2dERKSH_.eh
	.weak_definition __ZN5boost7polygon3setINS0_14rectangle_dataIfEENS0_13interval_dataIfEEEENS_9enable_ifINS0_9gtl_and_3INS0_8y_r_set2ENS0_28is_mutable_rectangle_conceptINS0_16geometry_conceptIT_E4typeEE4typeENS0_19is_interval_conceptINSA_IT0_E4typeEE4typeEE4typeEvE4typeERSB_NS0_14orientation_2dERKSH_.eh
__ZN5boost7polygon3setINS0_14rectangle_dataIfEENS0_13interval_dataIfEEEENS_9enable_ifINS0_9gtl_and_3INS0_8y_r_set2ENS0_28is_mutable_rectangle_conceptINS0_16geometry_conceptIT_E4typeEE4typeENS0_19is_interval_conceptINSA_IT0_E4typeEE4typeEE4typeEvE4typeERSB_NS0_14orientation_2dERKSH_.eh:
LSFDE95:
	.set L$set$528,LEFDE95-LASFDE95
	.long L$set$528
LASFDE95:
	.long	LASFDE95-EH_frame1
	.long	LFB9497-.
	.set L$set$529,LFE9497-LFB9497
	.long L$set$529
	.byte	0x4
	.long	0x0
	.align 2
LEFDE95:
	.globl __ZN5boost7polygon6assignINS0_14rectangle_dataIfEES3_EERNS_9enable_ifINS0_9gtl_and_3INS0_10y_r_assignENS0_28is_mutable_rectangle_conceptINS0_16geometry_conceptIT_E4typeEE4typeENS0_20is_rectangle_conceptINS8_IT0_E4typeEE4typeEE4typeES9_E4typeERS9_RKSF_.eh
	.private_extern __ZN5boost7polygon6assignINS0_14rectangle_dataIfEES3_EERNS_9enable_ifINS0_9gtl_and_3INS0_10y_r_assignENS0_28is_mutable_rectangle_conceptINS0_16geometry_conceptIT_E4typeEE4typeENS0_20is_rectangle_conceptINS8_IT0_E4typeEE4typeEE4typeES9_E4typeERS9_RKSF_.eh
	.weak_definition __ZN5boost7polygon6assignINS0_14rectangle_dataIfEES3_EERNS_9enable_ifINS0_9gtl_and_3INS0_10y_r_assignENS0_28is_mutable_rectangle_conceptINS0_16geometry_conceptIT_E4typeEE4typeENS0_20is_rectangle_conceptINS8_IT0_E4typeEE4typeEE4typeES9_E4typeERS9_RKSF_.eh
__ZN5boost7polygon6assignINS0_14rectangle_dataIfEES3_EERNS_9enable_ifINS0_9gtl_and_3INS0_10y_r_assignENS0_28is_mutable_rectangle_conceptINS0_16geometry_conceptIT_E4typeEE4typeENS0_20is_rectangle_conceptINS8_IT0_E4typeEE4typeEE4typeES9_E4typeERS9_RKSF_.eh:
LSFDE97:
	.set L$set$530,LEFDE97-LASFDE97
	.long L$set$530
LASFDE97:
	.long	LASFDE97-EH_frame1
	.long	LFB11598-.
	.set L$set$531,LFE11598-LFB11598
	.long L$set$531
	.byte	0x4
	.long	0x0
	.byte	0x4
	.set L$set$532,LCFI57-LFB11598
	.long L$set$532
	.byte	0x9f
	.byte	0x1
	.byte	0x9e
	.byte	0x2
	.byte	0x9d
	.byte	0x3
	.byte	0x9c
	.byte	0x4
	.byte	0x9b
	.byte	0x5
	.byte	0x9
	.byte	0x41
	.byte	0x0
	.byte	0x4
	.set L$set$533,LCFI59-LCFI57
	.long L$set$533
	.byte	0xe
	.byte	0x80,0x1
	.byte	0x11
	.byte	0x41
	.byte	0x7e
	.align 2
LEFDE97:
	.globl __ZSt8_DestroyIN9__gnu_cxx17__normal_iteratorIPN5boost7polygon14rectangle_dataIfEESt6vectorIS5_SaIS5_EEEES8_EvT_SB_T0_.eh
	.private_extern __ZSt8_DestroyIN9__gnu_cxx17__normal_iteratorIPN5boost7polygon14rectangle_dataIfEESt6vectorIS5_SaIS5_EEEES8_EvT_SB_T0_.eh
	.weak_definition __ZSt8_DestroyIN9__gnu_cxx17__normal_iteratorIPN5boost7polygon14rectangle_dataIfEESt6vectorIS5_SaIS5_EEEES8_EvT_SB_T0_.eh
__ZSt8_DestroyIN9__gnu_cxx17__normal_iteratorIPN5boost7polygon14rectangle_dataIfEESt6vectorIS5_SaIS5_EEEES8_EvT_SB_T0_.eh:
LSFDE99:
	.set L$set$534,LEFDE99-LASFDE99
	.long L$set$534
LASFDE99:
	.long	LASFDE99-EH_frame1
	.long	LFB13223-.
	.set L$set$535,LFE13223-LFB13223
	.long L$set$535
	.byte	0x4
	.long	0x0
	.align 2
LEFDE99:
	.globl __ZSt21__unguarded_partitionIN9__gnu_cxx17__normal_iteratorIPSt4pairIfS2_IfiEESt6vectorIS4_SaIS4_EEEES4_ET_SA_SA_T0_.eh
	.private_extern __ZSt21__unguarded_partitionIN9__gnu_cxx17__normal_iteratorIPSt4pairIfS2_IfiEESt6vectorIS4_SaIS4_EEEES4_ET_SA_SA_T0_.eh
	.weak_definition __ZSt21__unguarded_partitionIN9__gnu_cxx17__normal_iteratorIPSt4pairIfS2_IfiEESt6vectorIS4_SaIS4_EEEES4_ET_SA_SA_T0_.eh
__ZSt21__unguarded_partitionIN9__gnu_cxx17__normal_iteratorIPSt4pairIfS2_IfiEESt6vectorIS4_SaIS4_EEEES4_ET_SA_SA_T0_.eh:
LSFDE101:
	.set L$set$536,LEFDE101-LASFDE101
	.long L$set$536
LASFDE101:
	.long	LASFDE101-EH_frame1
	.long	LFB13409-.
	.set L$set$537,LFE13409-LFB13409
	.long L$set$537
	.byte	0x4
	.long	0x0
	.align 2
LEFDE101:
	.globl __ZSt25__unguarded_linear_insertIN9__gnu_cxx17__normal_iteratorIPSt4pairIfS2_IfiEESt6vectorIS4_SaIS4_EEEES4_EvT_T0_.eh
	.private_extern __ZSt25__unguarded_linear_insertIN9__gnu_cxx17__normal_iteratorIPSt4pairIfS2_IfiEESt6vectorIS4_SaIS4_EEEES4_EvT_T0_.eh
	.weak_definition __ZSt25__unguarded_linear_insertIN9__gnu_cxx17__normal_iteratorIPSt4pairIfS2_IfiEESt6vectorIS4_SaIS4_EEEES4_EvT_T0_.eh
__ZSt25__unguarded_linear_insertIN9__gnu_cxx17__normal_iteratorIPSt4pairIfS2_IfiEESt6vectorIS4_SaIS4_EEEES4_EvT_T0_.eh:
LSFDE103:
	.set L$set$538,LEFDE103-LASFDE103
	.long L$set$538
LASFDE103:
	.long	LASFDE103-EH_frame1
	.long	LFB13692-.
	.set L$set$539,LFE13692-LFB13692
	.long L$set$539
	.byte	0x4
	.long	0x0
	.align 2
LEFDE103:
	.globl __ZNSt6vectorISt4pairIN5boost7polygon13interval_dataIfEEiESaIS5_EE5eraseEN9__gnu_cxx17__normal_iteratorIPS5_S7_EESB_.eh
	.private_extern __ZNSt6vectorISt4pairIN5boost7polygon13interval_dataIfEEiESaIS5_EE5eraseEN9__gnu_cxx17__normal_iteratorIPS5_S7_EESB_.eh
	.weak_definition __ZNSt6vectorISt4pairIN5boost7polygon13interval_dataIfEEiESaIS5_EE5eraseEN9__gnu_cxx17__normal_iteratorIPS5_S7_EESB_.eh
__ZNSt6vectorISt4pairIN5boost7polygon13interval_dataIfEEiESaIS5_EE5eraseEN9__gnu_cxx17__normal_iteratorIPS5_S7_EESB_.eh:
LSFDE105:
	.set L$set$540,LEFDE105-LASFDE105
	.long L$set$540
LASFDE105:
	.long	LASFDE105-EH_frame1
	.long	LFB11982-.
	.set L$set$541,LFE11982-LFB11982
	.long L$set$541
	.byte	0x4
	.long	0x0
	.byte	0x4
	.set L$set$542,LCFI61-LFB11982
	.long L$set$542
	.byte	0x9f
	.byte	0x1
	.byte	0x9e
	.byte	0x2
	.byte	0x9d
	.byte	0x3
	.byte	0x9c
	.byte	0x4
	.byte	0x9b
	.byte	0x5
	.byte	0x9
	.byte	0x41
	.byte	0x0
	.byte	0x4
	.set L$set$543,LCFI63-LCFI61
	.long L$set$543
	.byte	0xe
	.byte	0x70
	.byte	0x11
	.byte	0x41
	.byte	0x7e
	.align 2
LEFDE105:
	.globl __ZSt16__insertion_sortIN9__gnu_cxx17__normal_iteratorIPSt4pairIfS2_IfiEESt6vectorIS4_SaIS4_EEEEEvT_SA_.eh
	.private_extern __ZSt16__insertion_sortIN9__gnu_cxx17__normal_iteratorIPSt4pairIfS2_IfiEESt6vectorIS4_SaIS4_EEEEEvT_SA_.eh
	.weak_definition __ZSt16__insertion_sortIN9__gnu_cxx17__normal_iteratorIPSt4pairIfS2_IfiEESt6vectorIS4_SaIS4_EEEEEvT_SA_.eh
__ZSt16__insertion_sortIN9__gnu_cxx17__normal_iteratorIPSt4pairIfS2_IfiEESt6vectorIS4_SaIS4_EEEEEvT_SA_.eh:
LSFDE107:
	.set L$set$544,LEFDE107-LASFDE107
	.long L$set$544
LASFDE107:
	.long	LASFDE107-EH_frame1
	.long	LFB13410-.
	.set L$set$545,LFE13410-LFB13410
	.long L$set$545
	.byte	0x4
	.long	0x0
	.byte	0x4
	.set L$set$546,LCFI65-LFB13410
	.long L$set$546
	.byte	0x9f
	.byte	0x1
	.byte	0x9e
	.byte	0x2
	.byte	0x9d
	.byte	0x3
	.byte	0x9c
	.byte	0x4
	.byte	0x9b
	.byte	0x5
	.byte	0x9a
	.byte	0x6
	.byte	0x9
	.byte	0x41
	.byte	0x0
	.byte	0x4
	.set L$set$547,LCFI67-LCFI65
	.long L$set$547
	.byte	0xe
	.byte	0x70
	.byte	0x11
	.byte	0x41
	.byte	0x7e
	.align 2
LEFDE107:
	.globl __ZSt22__final_insertion_sortIN9__gnu_cxx17__normal_iteratorIPSt4pairIfS2_IfiEESt6vectorIS4_SaIS4_EEEEEvT_SA_.eh
	.private_extern __ZSt22__final_insertion_sortIN9__gnu_cxx17__normal_iteratorIPSt4pairIfS2_IfiEESt6vectorIS4_SaIS4_EEEEEvT_SA_.eh
	.weak_definition __ZSt22__final_insertion_sortIN9__gnu_cxx17__normal_iteratorIPSt4pairIfS2_IfiEESt6vectorIS4_SaIS4_EEEEEvT_SA_.eh
__ZSt22__final_insertion_sortIN9__gnu_cxx17__normal_iteratorIPSt4pairIfS2_IfiEESt6vectorIS4_SaIS4_EEEEEvT_SA_.eh:
LSFDE109:
	.set L$set$548,LEFDE109-LASFDE109
	.long L$set$548
LASFDE109:
	.long	LASFDE109-EH_frame1
	.long	LFB13035-.
	.set L$set$549,LFE13035-LFB13035
	.long L$set$549
	.byte	0x4
	.long	0x0
	.byte	0x4
	.set L$set$550,LCFI71-LFB13035
	.long L$set$550
	.byte	0xe
	.byte	0x60
	.byte	0x9f
	.byte	0x1
	.byte	0x9e
	.byte	0x2
	.byte	0x9d
	.byte	0x3
	.byte	0x11
	.byte	0x41
	.byte	0x7e
	.align 2
LEFDE109:
	.globl __ZSt11__push_heapIN9__gnu_cxx17__normal_iteratorIPSt4pairIfS2_IfiEESt6vectorIS4_SaIS4_EEEEiS4_EvT_T0_SB_T1_.eh
	.private_extern __ZSt11__push_heapIN9__gnu_cxx17__normal_iteratorIPSt4pairIfS2_IfiEESt6vectorIS4_SaIS4_EEEEiS4_EvT_T0_SB_T1_.eh
	.weak_definition __ZSt11__push_heapIN9__gnu_cxx17__normal_iteratorIPSt4pairIfS2_IfiEESt6vectorIS4_SaIS4_EEEEiS4_EvT_T0_SB_T1_.eh
__ZSt11__push_heapIN9__gnu_cxx17__normal_iteratorIPSt4pairIfS2_IfiEESt6vectorIS4_SaIS4_EEEEiS4_EvT_T0_SB_T1_.eh:
LSFDE111:
	.set L$set$551,LEFDE111-LASFDE111
	.long L$set$551
LASFDE111:
	.long	LASFDE111-EH_frame1
	.long	LFB14013-.
	.set L$set$552,LFE14013-LFB14013
	.long L$set$552
	.byte	0x4
	.long	0x0
	.align 2
LEFDE111:
	.globl __ZSt13__adjust_heapIN9__gnu_cxx17__normal_iteratorIPSt4pairIfS2_IfiEESt6vectorIS4_SaIS4_EEEEiS4_EvT_T0_SB_T1_.eh
	.private_extern __ZSt13__adjust_heapIN9__gnu_cxx17__normal_iteratorIPSt4pairIfS2_IfiEESt6vectorIS4_SaIS4_EEEEiS4_EvT_T0_SB_T1_.eh
	.weak_definition __ZSt13__adjust_heapIN9__gnu_cxx17__normal_iteratorIPSt4pairIfS2_IfiEESt6vectorIS4_SaIS4_EEEEiS4_EvT_T0_SB_T1_.eh
__ZSt13__adjust_heapIN9__gnu_cxx17__normal_iteratorIPSt4pairIfS2_IfiEESt6vectorIS4_SaIS4_EEEEiS4_EvT_T0_SB_T1_.eh:
LSFDE113:
	.set L$set$553,LEFDE113-LASFDE113
	.long L$set$553
LASFDE113:
	.long	LASFDE113-EH_frame1
	.long	LFB13878-.
	.set L$set$554,LFE13878-LFB13878
	.long L$set$554
	.byte	0x4
	.long	0x0
	.align 2
LEFDE113:
	.globl __ZSt9make_heapIN9__gnu_cxx17__normal_iteratorIPSt4pairIfS2_IfiEESt6vectorIS4_SaIS4_EEEEEvT_SA_.eh
	.private_extern __ZSt9make_heapIN9__gnu_cxx17__normal_iteratorIPSt4pairIfS2_IfiEESt6vectorIS4_SaIS4_EEEEEvT_SA_.eh
	.weak_definition __ZSt9make_heapIN9__gnu_cxx17__normal_iteratorIPSt4pairIfS2_IfiEESt6vectorIS4_SaIS4_EEEEEvT_SA_.eh
__ZSt9make_heapIN9__gnu_cxx17__normal_iteratorIPSt4pairIfS2_IfiEESt6vectorIS4_SaIS4_EEEEEvT_SA_.eh:
LSFDE115:
	.set L$set$555,LEFDE115-LASFDE115
	.long L$set$555
LASFDE115:
	.long	LASFDE115-EH_frame1
	.long	LFB13684-.
	.set L$set$556,LFE13684-LFB13684
	.long L$set$556
	.byte	0x4
	.long	0x0
	.byte	0x4
	.set L$set$557,LCFI75-LFB13684
	.long L$set$557
	.byte	0xe
	.byte	0x70
	.byte	0x9f
	.byte	0x1
	.byte	0x9e
	.byte	0x2
	.byte	0x9d
	.byte	0x3
	.byte	0x9c
	.byte	0x4
	.byte	0x9b
	.byte	0x5
	.byte	0x11
	.byte	0x41
	.byte	0x7e
	.align 2
LEFDE115:
	.globl __ZN5boost6detail17sp_counted_impl_pINS_16exception_detail10clone_implINS2_14bad_exception_EEEE11get_deleterERKSt9type_info.eh
	.private_extern __ZN5boost6detail17sp_counted_impl_pINS_16exception_detail10clone_implINS2_14bad_exception_EEEE11get_deleterERKSt9type_info.eh
	.weak_definition __ZN5boost6detail17sp_counted_impl_pINS_16exception_detail10clone_implINS2_14bad_exception_EEEE11get_deleterERKSt9type_info.eh
__ZN5boost6detail17sp_counted_impl_pINS_16exception_detail10clone_implINS2_14bad_exception_EEEE11get_deleterERKSt9type_info.eh:
LSFDE117:
	.set L$set$558,LEFDE117-LASFDE117
	.long L$set$558
LASFDE117:
	.long	LASFDE117-EH_frame1
	.long	LFB14180-.
	.set L$set$559,LFE14180-LFB14180
	.long L$set$559
	.byte	0x4
	.long	0x0
	.align 2
LEFDE117:
	.globl __ZN5boost6detail17sp_counted_impl_pINS_16exception_detail10clone_implINS2_10bad_alloc_EEEE11get_deleterERKSt9type_info.eh
	.private_extern __ZN5boost6detail17sp_counted_impl_pINS_16exception_detail10clone_implINS2_10bad_alloc_EEEE11get_deleterERKSt9type_info.eh
	.weak_definition __ZN5boost6detail17sp_counted_impl_pINS_16exception_detail10clone_implINS2_10bad_alloc_EEEE11get_deleterERKSt9type_info.eh
__ZN5boost6detail17sp_counted_impl_pINS_16exception_detail10clone_implINS2_10bad_alloc_EEEE11get_deleterERKSt9type_info.eh:
LSFDE119:
	.set L$set$560,LEFDE119-LASFDE119
	.long L$set$560
LASFDE119:
	.long	LASFDE119-EH_frame1
	.long	LFB14182-.
	.set L$set$561,LFE14182-LFB14182
	.long L$set$561
	.byte	0x4
	.long	0x0
	.align 2
LEFDE119:
	.globl __ZNSt8_Rb_treeIfSt4pairIKfiESt10_Select1stIS2_ESt4lessIfESaIS2_EE8_M_eraseEPSt13_Rb_tree_nodeIS2_E.eh
	.private_extern __ZNSt8_Rb_treeIfSt4pairIKfiESt10_Select1stIS2_ESt4lessIfESaIS2_EE8_M_eraseEPSt13_Rb_tree_nodeIS2_E.eh
	.weak_definition __ZNSt8_Rb_treeIfSt4pairIKfiESt10_Select1stIS2_ESt4lessIfESaIS2_EE8_M_eraseEPSt13_Rb_tree_nodeIS2_E.eh
__ZNSt8_Rb_treeIfSt4pairIKfiESt10_Select1stIS2_ESt4lessIfESaIS2_EE8_M_eraseEPSt13_Rb_tree_nodeIS2_E.eh:
LSFDE121:
	.set L$set$562,LEFDE121-LASFDE121
	.long L$set$562
LASFDE121:
	.long	LASFDE121-EH_frame1
	.long	LFB11955-.
	.set L$set$563,LFE11955-LFB11955
	.long L$set$563
	.byte	0x4
	.long	0x0
	.byte	0x4
	.set L$set$564,LCFI77-LFB11955
	.long L$set$564
	.byte	0x9f
	.byte	0x1
	.byte	0x9e
	.byte	0x2
	.byte	0x9d
	.byte	0x3
	.byte	0x9c
	.byte	0x4
	.byte	0x9
	.byte	0x41
	.byte	0x0
	.byte	0x4
	.set L$set$565,LCFI79-LCFI77
	.long L$set$565
	.byte	0xe
	.byte	0x50
	.byte	0x11
	.byte	0x41
	.byte	0x7e
	.align 2
LEFDE121:
	.globl __ZNSt8_Rb_treeIN5boost7polygon14rectangle_dataIfEES3_St9_IdentityIS3_ENS1_22less_rectangle_conceptIS3_S3_EESaIS3_EE8_M_eraseEPSt13_Rb_tree_nodeIS3_E.eh
	.private_extern __ZNSt8_Rb_treeIN5boost7polygon14rectangle_dataIfEES3_St9_IdentityIS3_ENS1_22less_rectangle_conceptIS3_S3_EESaIS3_EE8_M_eraseEPSt13_Rb_tree_nodeIS3_E.eh
	.weak_definition __ZNSt8_Rb_treeIN5boost7polygon14rectangle_dataIfEES3_St9_IdentityIS3_ENS1_22less_rectangle_conceptIS3_S3_EESaIS3_EE8_M_eraseEPSt13_Rb_tree_nodeIS3_E.eh
__ZNSt8_Rb_treeIN5boost7polygon14rectangle_dataIfEES3_St9_IdentityIS3_ENS1_22less_rectangle_conceptIS3_S3_EESaIS3_EE8_M_eraseEPSt13_Rb_tree_nodeIS3_E.eh:
LSFDE123:
	.set L$set$566,LEFDE123-LASFDE123
	.long L$set$566
LASFDE123:
	.long	LASFDE123-EH_frame1
	.long	LFB11602-.
	.set L$set$567,LFE11602-LFB11602
	.long L$set$567
	.byte	0x4
	.long	0x0
	.byte	0x4
	.set L$set$568,LCFI81-LFB11602
	.long L$set$568
	.byte	0x9f
	.byte	0x1
	.byte	0x9e
	.byte	0x2
	.byte	0x9d
	.byte	0x3
	.byte	0x9c
	.byte	0x4
	.byte	0x9
	.byte	0x41
	.byte	0x0
	.byte	0x4
	.set L$set$569,LCFI83-LCFI81
	.long L$set$569
	.byte	0xe
	.byte	0x50
	.byte	0x11
	.byte	0x41
	.byte	0x7e
	.align 2
LEFDE123:
	.globl __ZN5boost6detail15sp_counted_baseD0Ev.eh
	.private_extern __ZN5boost6detail15sp_counted_baseD0Ev.eh
	.weak_definition __ZN5boost6detail15sp_counted_baseD0Ev.eh
__ZN5boost6detail15sp_counted_baseD0Ev.eh:
LSFDE131:
	.set L$set$570,LEFDE131-LASFDE131
	.long L$set$570
LASFDE131:
	.long	LASFDE131-EH_frame1
	.long	LFB4483-.
	.set L$set$571,LFE4483-LFB4483
	.long L$set$571
	.byte	0x4
	.long	0x0
	.align 2
LEFDE131:
	.globl __ZN5boost6detail17sp_counted_impl_pINS_16exception_detail10clone_implINS2_14bad_exception_EEEED1Ev.eh
	.private_extern __ZN5boost6detail17sp_counted_impl_pINS_16exception_detail10clone_implINS2_14bad_exception_EEEED1Ev.eh
	.weak_definition __ZN5boost6detail17sp_counted_impl_pINS_16exception_detail10clone_implINS2_14bad_exception_EEEED1Ev.eh
__ZN5boost6detail17sp_counted_impl_pINS_16exception_detail10clone_implINS2_14bad_exception_EEEED1Ev.eh:
LSFDE133:
	.set L$set$572,LEFDE133-LASFDE133
	.long L$set$572
LASFDE133:
	.long	LASFDE133-EH_frame1
	.long	LFB14143-.
	.set L$set$573,LFE14143-LFB14143
	.long L$set$573
	.byte	0x4
	.long	0x0
	.align 2
LEFDE133:
	.globl __ZN5boost16exception_detail10clone_baseD0Ev.eh
	.private_extern __ZN5boost16exception_detail10clone_baseD0Ev.eh
	.weak_definition __ZN5boost16exception_detail10clone_baseD0Ev.eh
__ZN5boost16exception_detail10clone_baseD0Ev.eh:
LSFDE135:
	.set L$set$574,LEFDE135-LASFDE135
	.long L$set$574
LASFDE135:
	.long	LASFDE135-EH_frame1
	.long	LFB4462-.
	.set L$set$575,LFE4462-LFB4462
	.long L$set$575
	.byte	0x4
	.long	0x0
	.align 2
LEFDE135:
	.globl __ZN5boost16exception_detail10clone_baseD1Ev.eh
	.private_extern __ZN5boost16exception_detail10clone_baseD1Ev.eh
	.weak_definition __ZN5boost16exception_detail10clone_baseD1Ev.eh
__ZN5boost16exception_detail10clone_baseD1Ev.eh:
LSFDE137:
	.set L$set$576,LEFDE137-LASFDE137
	.long L$set$576
LASFDE137:
	.long	LASFDE137-EH_frame1
	.long	LFB4461-.
	.set L$set$577,LFE4461-LFB4461
	.long L$set$577
	.byte	0x4
	.long	0x0
	.align 2
LEFDE137:
	.globl __ZN8Fielding13HostViewCocoa14GetNSViewFrameEP6NSView.eh
	.private_extern __ZN8Fielding13HostViewCocoa14GetNSViewFrameEP6NSView.eh
__ZN8Fielding13HostViewCocoa14GetNSViewFrameEP6NSView.eh:
LSFDE143:
	.set L$set$578,LEFDE143-LASFDE143
	.long L$set$578
LASFDE143:
	.long	LASFDE143-EH_frame1
	.long	LFB8480-.
	.set L$set$579,LFE8480-LFB8480
	.long L$set$579
	.byte	0x4
	.long	0x0
	.byte	0x4
	.set L$set$580,LCFI85-LFB8480
	.long L$set$580
	.byte	0x9f
	.byte	0x1
	.byte	0x9e
	.byte	0x2
	.byte	0x9
	.byte	0x41
	.byte	0x0
	.byte	0x4
	.set L$set$581,LCFI87-LCFI85
	.long L$set$581
	.byte	0xe
	.byte	0x60
	.byte	0x11
	.byte	0x41
	.byte	0x7e
	.align 2
LEFDE143:
	.globl __ZNSt8_Rb_treeIfSt4pairIKfiESt10_Select1stIS2_ESt4lessIfESaIS2_EE9_M_insertEPSt18_Rb_tree_node_baseSA_RKS2_.eh
	.private_extern __ZNSt8_Rb_treeIfSt4pairIKfiESt10_Select1stIS2_ESt4lessIfESaIS2_EE9_M_insertEPSt18_Rb_tree_node_baseSA_RKS2_.eh
	.weak_definition __ZNSt8_Rb_treeIfSt4pairIKfiESt10_Select1stIS2_ESt4lessIfESaIS2_EE9_M_insertEPSt18_Rb_tree_node_baseSA_RKS2_.eh
__ZNSt8_Rb_treeIfSt4pairIKfiESt10_Select1stIS2_ESt4lessIfESaIS2_EE9_M_insertEPSt18_Rb_tree_node_baseSA_RKS2_.eh:
LSFDE145:
	.set L$set$582,LEFDE145-LASFDE145
	.long L$set$582
LASFDE145:
	.long	LASFDE145-EH_frame1
	.long	LFB13431-.
	.set L$set$583,LFE13431-LFB13431
	.long L$set$583
	.byte	0x4
	.long	0x0
	.byte	0x4
	.set L$set$584,LCFI89-LFB13431
	.long L$set$584
	.byte	0x9f
	.byte	0x1
	.byte	0x9e
	.byte	0x2
	.byte	0x9d
	.byte	0x3
	.byte	0x9c
	.byte	0x4
	.byte	0x9b
	.byte	0x5
	.byte	0x9a
	.byte	0x6
	.byte	0x99
	.byte	0x7
	.byte	0x9
	.byte	0x41
	.byte	0x0
	.byte	0x4
	.set L$set$585,LCFI91-LCFI89
	.long L$set$585
	.byte	0xe
	.byte	0x60
	.byte	0x11
	.byte	0x41
	.byte	0x7e
	.align 2
LEFDE145:
	.globl __ZN5boost16thread_exceptionD0Ev.eh
	.private_extern __ZN5boost16thread_exceptionD0Ev.eh
	.weak_definition __ZN5boost16thread_exceptionD0Ev.eh
__ZN5boost16thread_exceptionD0Ev.eh:
LSFDE147:
	.set L$set$586,LEFDE147-LASFDE147
	.long L$set$586
LASFDE147:
	.long	LASFDE147-EH_frame1
	.long	LFB4362-.
	.set L$set$587,LFE4362-LFB4362
	.long L$set$587
	.byte	0x4
	.long	0x0
	.byte	0x4
	.set L$set$588,LCFI92-LFB4362
	.long L$set$588
	.byte	0x9
	.byte	0x41
	.byte	0x0
	.byte	0x4
	.set L$set$589,LCFI93-LCFI92
	.long L$set$589
	.byte	0x9f
	.byte	0x1
	.byte	0x9e
	.byte	0x2
	.byte	0x9d
	.byte	0x3
	.byte	0x4
	.set L$set$590,LCFI95-LCFI93
	.long L$set$590
	.byte	0xe
	.byte	0x50
	.byte	0x11
	.byte	0x41
	.byte	0x7e
	.align 2
LEFDE147:
	.globl __ZN5boost16thread_exceptionD1Ev.eh
	.private_extern __ZN5boost16thread_exceptionD1Ev.eh
	.weak_definition __ZN5boost16thread_exceptionD1Ev.eh
__ZN5boost16thread_exceptionD1Ev.eh:
LSFDE149:
	.set L$set$591,LEFDE149-LASFDE149
	.long L$set$591
LASFDE149:
	.long	LASFDE149-EH_frame1
	.long	LFB4361-.
	.set L$set$592,LFE4361-LFB4361
	.long L$set$592
	.byte	0x4
	.long	0x0
	.align 2
LEFDE149:
	.globl __ZN8Fielding13HostViewCocoaD0Ev.eh
	.private_extern __ZN8Fielding13HostViewCocoaD0Ev.eh
__ZN8Fielding13HostViewCocoaD0Ev.eh:
LSFDE151:
	.set L$set$593,LEFDE151-LASFDE151
	.long L$set$593
LASFDE151:
	.long	LASFDE151-EH_frame1
	.long	LFB8472-.
	.set L$set$594,LFE8472-LFB8472
	.long L$set$594
	.byte	0x4
	.long	LLSDA8472-.
	.byte	0x4
	.set L$set$595,LCFI97-LFB8472
	.long L$set$595
	.byte	0x9f
	.byte	0x1
	.byte	0x9e
	.byte	0x2
	.byte	0x9d
	.byte	0x3
	.byte	0x9
	.byte	0x41
	.byte	0x0
	.byte	0x4
	.set L$set$596,LCFI99-LCFI97
	.long L$set$596
	.byte	0xe
	.byte	0x50
	.byte	0x11
	.byte	0x41
	.byte	0x7e
	.align 2
LEFDE151:
	.globl __ZN8Fielding13HostViewCocoaD2Ev.eh
	.private_extern __ZN8Fielding13HostViewCocoaD2Ev.eh
__ZN8Fielding13HostViewCocoaD2Ev.eh:
LSFDE153:
	.set L$set$597,LEFDE153-LASFDE153
	.long L$set$597
LASFDE153:
	.long	LASFDE153-EH_frame1
	.long	LFB8470-.
	.set L$set$598,LFE8470-LFB8470
	.long L$set$598
	.byte	0x4
	.long	LLSDA8470-.
	.byte	0x4
	.set L$set$599,LCFI101-LFB8470
	.long L$set$599
	.byte	0x9f
	.byte	0x1
	.byte	0x9e
	.byte	0x2
	.byte	0x9d
	.byte	0x3
	.byte	0x9
	.byte	0x41
	.byte	0x0
	.byte	0x4
	.set L$set$600,LCFI103-LCFI101
	.long L$set$600
	.byte	0xe
	.byte	0x50
	.byte	0x11
	.byte	0x41
	.byte	0x7e
	.align 2
LEFDE153:
	.globl __ZN8Fielding13HostViewCocoaC2EP6NSView.eh
	.private_extern __ZN8Fielding13HostViewCocoaC2EP6NSView.eh
